MPLINK 5.00, LINKER
Linker Map File - Created Sun Jan 21 13:14:47 2024

                                 Section Info
                  Section       Type    Address   Location Size(Bytes)
                ---------  ---------  ---------  ---------  ---------
    REMAPPED_RESET_VECTOR       code   0x001000    program   0x000006
REMAPPED_HIGH_INTERRUPT_VECTOR       code   0x001008    program   0x000006
REMAPPED_LOW_INTERRUPT_VECTOR       code   0x001018    program   0x000006
                   .cinit    romdata   0x00102a    program   0x000026
              .code_ebb.o       code   0x001050    program   0x002d3e
              .code_UBW.o       code   0x003d8e    program   0x002b12
       .code_usb_device.o       code   0x0068a0    program   0x000d3e
                     PROG       code   0x0075de    program   0x000466
             .stringtable    romdata   0x007a44    program   0x000426
         .code_RCServo2.o       code   0x007e6a    program   0x0003f8
 .code_usb_function_cdc.o       code   0x008262    program   0x0003c6
        .code_ebb_print.o       code   0x008628    program   0x000230
  .code_WriteBytesFlash.o       code   0x008858    program   0x0001de
             .code_main.o       code   0x008a36    program   0x00014e
                    .code       code   0x008b84    program   0x000140
       .code_EraseFlash.o       code   0x008cc4    program   0x0000f8
           .romdata_UBW.o    romdata   0x008dbc    program   0x0000ac
               _cinit_scn       code   0x008e68    program   0x00009e
        .code_ReadFlash.o       code   0x008f06    program   0x000092
           .code_u1open.o       code   0x008f98    program   0x000072
          .code_fxm3232.o       code   0x00900a    program   0x000070
.romdata_usb_descriptors.o    romdata   0x00907a    program   0x000057
        .idata_u1open.o_i    romdata   0x0090d1    program   0x000000
        .romdata_u1open.o    romdata   0x0090d1    program   0x000000
       .romdata_fxm3232.o    romdata   0x0090d1    program   0x000000
     .idata_ReadFlash.o_i    romdata   0x0090d1    program   0x000000
       .idata_fxm3232.o_i    romdata   0x0090d1    program   0x000000
     .romdata_ReadFlash.o    romdata   0x0090d1    program   0x000000
       .idata_u1write.o_i    romdata   0x0090d1    program   0x000000
       .romdata_u1write.o    romdata   0x0090d1    program   0x000000
       .romdata_pow2x16.o    romdata   0x0090d1    program   0x000000
       .idata_pow2x16.o_i    romdata   0x0090d1    program   0x000000
        .idata_u1defs.o_i    romdata   0x0090d1    program   0x000000
        .romdata_u1defs.o    romdata   0x0090d1    program   0x000000
.idata_WriteBytesFlash.o_i    romdata   0x0090d1    program   0x000000
.romdata_WriteBytesFlash.o    romdata   0x0090d1    program   0x000000
        .idata___init.o_i    romdata   0x0090d1    program   0x000000
        .romdata___init.o    romdata   0x0090d1    program   0x000000
        .idata_u1baud.o_i    romdata   0x0090d1    program   0x000000
        .romdata_u1baud.o    romdata   0x0090d1    program   0x000000
.romdata_usb_function_cdc.o    romdata   0x0090d1    program   0x000000
           .romdata_ebb.o    romdata   0x0090d1    program   0x000000
.idata_usb_function_cdc.o_i    romdata   0x0090d1    program   0x000000
          .idata_main.o_i    romdata   0x0090d1    program   0x000000
          .romdata_main.o    romdata   0x0090d1    program   0x000000
    .romdata_usb_device.o    romdata   0x0090d1    program   0x000000
      .idata_RCServo2.o_i    romdata   0x0090d1    program   0x000000
      .romdata_RCServo2.o    romdata   0x0090d1    program   0x000000
    .idata_usb_device.o_i    romdata   0x0090d1    program   0x000000
         .romdata_c018i.o    romdata   0x0090d1    program   0x000000
     .idata_ebb_print.o_i    romdata   0x0090d1    program   0x000000
     .romdata_ebb_print.o    romdata   0x0090d1    program   0x000000
    .idata_EraseFlash.o_i    romdata   0x0090d1    program   0x000000
    .romdata_EraseFlash.o    romdata   0x0090d1    program   0x000000
      .idata_fxd3232u.o_i    romdata   0x0090d1    program   0x000000
      .romdata_fxd3232u.o    romdata   0x0090d1    program   0x000000
         .idata_c018i.o_i    romdata   0x0090d1    program   0x000000
            .code_c018i.o       code   0x0090d2    program   0x000000
           .code_u1defs.o       code   0x0090d2    program   0x000000
  .code_usb_descriptors.o       code   0x0090d2    program   0x000000
         .code_fxd3232u.o       code   0x0090d2    program   0x000048
                   STRING       code   0x00911a    program   0x000034
          .code_u1write.o       code   0x00914e    program   0x00002e
                    CTYPE       code   0x00917c    program   0x000028
           .code_u1baud.o       code   0x0091a4    program   0x000022
             _startup_scn       code   0x0091c6    program   0x00001c
          .code_pow2x16.o       code   0x0091e2    program   0x000016
           .code___init.o       code   0x0091f8    program   0x000002
.idata_usb_descriptors.o_i    romdata   0x0091fa    program   0x00007e
           .idata_ebb.o_i    romdata   0x009278    program   0x000002
           .idata_UBW.o_i    romdata   0x00927a    program   0x000007
               ISR_access      udata   0x000000       data   0x000032
                MATH_DATA      udata   0x000032       data   0x000014
                 .tmpdata      udata   0x000046       data   0x000008
              low_ISR_tmp      udata   0x00004e       data   0x000004
             high_ISR_tmp      udata   0x000052       data   0x000004
         RC2Servo_globals      udata   0x000060       data   0x00002b
             .udata_UBW.o      udata   0x00008b       data   0x00006f
       .idata_ebb_print.o      idata   0x0000fa       data   0x000000
         .idata_pow2x16.o      idata   0x0000fa       data   0x000000
         .udata_pow2x16.o      udata   0x0000fa       data   0x000000
         .udata_u1write.o      udata   0x0000fa       data   0x000000
          .idata_u1baud.o      idata   0x0000fa       data   0x000000
          .udata_u1baud.o      udata   0x0000fa       data   0x000000
          .idata___init.o      idata   0x0000fa       data   0x000000
          .udata___init.o      udata   0x0000fa       data   0x000000
 .idata_WriteBytesFlash.o      idata   0x0000fa       data   0x000000
 .udata_WriteBytesFlash.o      udata   0x0000fa       data   0x000000
          .idata_u1defs.o      idata   0x0000fa       data   0x000000
         .idata_u1write.o      idata   0x0000fa       data   0x000000
       .idata_ReadFlash.o      idata   0x0000fa       data   0x000000
      .udata_EraseFlash.o      udata   0x0000fa       data   0x000000
       .udata_ReadFlash.o      udata   0x0000fa       data   0x000000
      .idata_EraseFlash.o      idata   0x0000fa       data   0x000000
        .udata_fxd3232u.o      udata   0x0000fa       data   0x000000
        .idata_fxd3232u.o      idata   0x0000fa       data   0x000000
         .udata_fxm3232.o      udata   0x0000fa       data   0x000000
         .idata_fxm3232.o      idata   0x0000fa       data   0x000000
          .udata_u1open.o      udata   0x0000fa       data   0x000000
          .idata_u1open.o      idata   0x0000fa       data   0x000000
           .idata_c018i.o      idata   0x0000fa       data   0x000000
      .idata_usb_device.o      idata   0x0000fa       data   0x000000
.idata_usb_function_cdc.o      idata   0x0000fa       data   0x000000
 .udata_usb_descriptors.o      udata   0x0000fa       data   0x000000
        .idata_RCServo2.o      idata   0x0000fa       data   0x000000
        .udata_RCServo2.o      udata   0x0000fa       data   0x000000
            .idata_main.o      idata   0x0000fa       data   0x000000
                  ISR_buf      udata   0x000100       data   0x000029
             .udata_ebb.o      udata   0x000129       data   0x00004f
             .idata_UBW.o      idata   0x000178       data   0x000007
          .udata_u1defs.o      udata   0x00017f       data   0x000001
              ISR_globals      udata   0x000180       data   0x000070
       .udata_ebb_print.o      udata   0x0001f0       data   0x00000e
            .udata_main.o      udata   0x0001fe       data   0x000002
               com_tx_buf      udata   0x000200       data   0x000080
 .idata_usb_descriptors.o      idata   0x000280       data   0x00007e
             .idata_ebb.o      idata   0x0002fe       data   0x000002
               com_rx_buf      udata   0x000300       data   0x000100
                  USB_BDT      udata   0x000400       data   0x000078
                  sqrtVar      udata   0x000500       data   0x000014
.udata_usb_function_cdc.o      udata   0x000514       data   0x0000a8
      .udata_usb_device.o      udata   0x0005bc       data   0x000034
           .udata_c018i.o      udata   0x0005f0       data   0x00000a
                 FIFO_scn      udata   0x000600       data   0x000800
                   .stack      udata   0x000e00       data   0x0000c0
              SFR_BANKED0      udata   0x000ec6       data   0x00000e
              SFR_BANKED1      udata   0x000ed7       data   0x000008
              SFR_BANKED2      udata   0x000ee7       data   0x000004
              SFR_BANKED3      udata   0x000eec       data   0x000003
              SFR_BANKED4      udata   0x000ef2       data   0x000002
              SFR_BANKED5      udata   0x000ef6       data   0x000002
              SFR_BANKED6      udata   0x000efb       data   0x000005
              SFR_BANKED7      udata   0x000f26       data   0x000014
              SFR_BANKED8      udata   0x000f3c       data   0x000007
              SFR_BANKED9      udata   0x000f48       data   0x000008
             SFR_BANKED10      udata   0x000f52       data   0x00000e
            SFR_UNBANKED0      udata   0x000f60       data   0x0000a0



                              Program Memory Usage 
                               Start         End      
                           ---------   ---------      
                            0x001000    0x001005      
                            0x001008    0x00100d      
                            0x001018    0x00101d      
                            0x00102a    0x0090d0      
                            0x0090d2    0x009280      
            33384 out of 63498 program addresses used, program memory utilization is 52%



                              Symbols - Sorted by Name
                     Name    Address   Location    Storage File                     
                ---------  ---------  ---------  --------- ---------                
          AnalogConfigure   0x0054be    program     extern D:\Projects\EggBot1-GH\EBB_firmware\app.X\source\UBW.c
           BlinkUSBStatus   0x006202    program     extern D:\Projects\EggBot1-GH\EBB_firmware\app.X\source\UBW.c
                CDCInitEP   0x0082fe    program     extern D:\Projects\EggBot1-GH\EBB_firmware\Microchip\USB\CDC Device Driver\usb_function_cdc.c
             CDCTxService   0x008494    program     extern D:\Projects\EggBot1-GH\EBB_firmware\Microchip\USB\CDC Device Driver\usb_function_cdc.c
                   D3232S   0x0077c4    program     static E:\3.46\pic18-lt\cxx-framework\src\traditional\math\fxd3232s.asm
                D3232SNEG   0x0077d2    program     static E:\3.46\pic18-lt\cxx-framework\src\traditional\math\fxd3232s.asm
                 D3232SOK   0x0077ce    program     static E:\3.46\pic18-lt\cxx-framework\src\traditional\math\fxd3232s.asm
                  D3232SX   0x0077f2    program     static E:\3.46\pic18-lt\cxx-framework\src\traditional\math\fxd3232s.asm
                  DA3232S   0x0077ae    program     static E:\3.46\pic18-lt\cxx-framework\src\traditional\math\fxd3232s.asm
                     Done   0x008be6    program     static source\squareroot.s      
                   Done32   0x008c5a    program     static source\squareroot.s      
                 EBB_Init   0x001844    program     extern D:\Projects\EggBot1-GH\EBB_firmware\app.X\source\ebb.c
               EraseFlash   0x008cc4    program     extern E:\3.46\pic18-lt\cxx-framework\src\pmc_common\Flash\EraseFlash.c
                 FLO3232S   0x0075e2    program     extern E:\3.46\pic18-lt\cxx-framework\src\traditional\math\cast32FP.asm
                 FLO3232U   0x0075de    program     extern E:\3.46\pic18-lt\cxx-framework\src\traditional\math\cast32FP.asm
                    FPD32   0x007614    program     extern E:\3.46\pic18-lt\cxx-framework\src\traditional\math\divFP.asm
                    FPM32   0x0076ba    program     extern E:\3.46\pic18-lt\cxx-framework\src\traditional\math\mulFP.asm
                 FXD3232S   0x007794    program     extern E:\3.46\pic18-lt\cxx-framework\src\traditional\math\fxd3232s.asm
                 FXD3232U   0x0090d2    program     extern E:\3.46\pic18-lt\cxx-framework\src\traditional\math\fxd3232u.c
                  FXM3232   0x00900a    program     extern E:\3.46\pic18-lt\cxx-framework\src\traditional\math\fxm3232.c
                  INT3232   0x0077fc    program     extern E:\3.46\pic18-lt\cxx-framework\src\traditional\math\castFP32.asm
         InitializeSystem   0x008a46    program     static D:\Projects\EggBot1-GH\EBB_firmware\app.X\source\main.c
                LongDelay   0x005afc    program     extern D:\Projects\EggBot1-GH\EBB_firmware\app.X\source\UBW.c
                  NextBit   0x008bd6    program     static source\squareroot.s      
                  NxtBt16   0x008c3e    program     static source\squareroot.s      
               Open1USART   0x008f98    program     extern E:\3.46\pic18-lt\cxx-framework\src\pmc_common\USART\u1open.c
                ProcessIO   0x00435e    program     extern D:\Projects\EggBot1-GH\EBB_firmware\app.X\source\UBW.c
            RCServo2_Init   0x007e6a    program     extern D:\Projects\EggBot1-GH\EBB_firmware\app.X\source\RCServo2.c
            RCServo2_Move   0x008004    program     extern D:\Projects\EggBot1-GH\EBB_firmware\app.X\source\RCServo2.c
      RCServo2_S2_command   0x007f5a    program     extern D:\Projects\EggBot1-GH\EBB_firmware\app.X\source\RCServo2.c
RCServo2_get_channel_from_RPn   0x007f1c    program     extern D:\Projects\EggBot1-GH\EBB_firmware\app.X\source\RCServo2.c
                   RPnBit   0x008e4f    program     extern D:\Projects\EggBot1-GH\EBB_firmware\app.X\source\UBW.c
               RPnLATPort   0x008e1d    program     extern D:\Projects\EggBot1-GH\EBB_firmware\app.X\source\UBW.c
              RPnTRISPort   0x008deb    program     extern D:\Projects\EggBot1-GH\EBB_firmware\app.X\source\UBW.c
                ReadFlash   0x008f06    program     extern E:\3.46\pic18-lt\cxx-framework\src\pmc_common\Flash\ReadFlash.c
        Remapped_High_ISR   0x001008    program     extern D:\Projects\EggBot1-GH\EBB_firmware\app.X\source\main.c
         Remapped_Low_ISR   0x001018    program     extern D:\Projects\EggBot1-GH\EBB_firmware\app.X\source\main.c
         SetPinLATFromRPn   0x0062de    program     extern D:\Projects\EggBot1-GH\EBB_firmware\app.X\source\UBW.c
        SetPinTRISFromRPn   0x00633a    program     extern D:\Projects\EggBot1-GH\EBB_firmware\app.X\source\UBW.c
                     Sq16   0x008c6a    program     static source\squareroot.s      
                     Sqrt   0x008b84    program     extern source\squareroot.s      
                   Sqrt16   0x008bae    program     static source\squareroot.s      
                   Sqrt32   0x008bf4    program     static source\squareroot.s      
                  Squar16   0x008c02    program     static source\squareroot.s      
                  Square8   0x008bb6    program     static source\squareroot.s      
                  TAGTB32   0x00786a    program     extern E:\3.46\pic18-lt\cxx-framework\src\traditional\math\gtFP.asm
                  TALTB32   0x00787c    program     extern E:\3.46\pic18-lt\cxx-framework\src\traditional\math\ltFP.asm
       USBCBCheckOtherReq   0x008aa2    program     extern D:\Projects\EggBot1-GH\EBB_firmware\app.X\source\main.c
        USBCBErrorHandler   0x008aa0    program     extern D:\Projects\EggBot1-GH\EBB_firmware\app.X\source\main.c
              USBCBInitEP   0x008aa8    program     extern D:\Projects\EggBot1-GH\EBB_firmware\app.X\source\main.c
          USBCBSendResume   0x008aac    program     extern D:\Projects\EggBot1-GH\EBB_firmware\app.X\source\main.c
    USBCBStdSetDscHandler   0x008aa6    program     extern D:\Projects\EggBot1-GH\EBB_firmware\app.X\source\main.c
             USBCBSuspend   0x008a9a    program     extern D:\Projects\EggBot1-GH\EBB_firmware\app.X\source\main.c
     USBCBWakeFromSuspend   0x008a9c    program     extern D:\Projects\EggBot1-GH\EBB_firmware\app.X\source\main.c
        USBCB_SOF_Handler   0x008a9e    program     extern D:\Projects\EggBot1-GH\EBB_firmware\app.X\source\main.c
       USBCDCEventHandler   0x008340    program     extern D:\Projects\EggBot1-GH\EBB_firmware\Microchip\USB\CDC Device Driver\usb_function_cdc.c
              USBCancelIO   0x006bcc    program     extern D:\Projects\EggBot1-GH\EBB_firmware\Microchip\USB\usb_device.c
       USBCheckCDCRequest   0x008262    program     extern D:\Projects\EggBot1-GH\EBB_firmware\Microchip\USB\CDC Device Driver\usb_function_cdc.c
       USBCheckStdRequest   0x0071cc    program     static D:\Projects\EggBot1-GH\EBB_firmware\Microchip\USB\usb_device.c
     USBConfigureEndpoint   0x006c8c    program     static D:\Projects\EggBot1-GH\EBB_firmware\Microchip\USB\usb_device.c
  USBCtrlEPAllowDataStage   0x006c4e    program     extern D:\Projects\EggBot1-GH\EBB_firmware\Microchip\USB\usb_device.c
USBCtrlEPAllowStatusStage   0x006c02    program     extern D:\Projects\EggBot1-GH\EBB_firmware\Microchip\USB\usb_device.c
         USBCtrlEPService   0x007070    program     static D:\Projects\EggBot1-GH\EBB_firmware\Microchip\USB\usb_device.c
 USBCtrlEPServiceComplete   0x006ce8    program     static D:\Projects\EggBot1-GH\EBB_firmware\Microchip\USB\usb_device.c
      USBCtrlTrfInHandler   0x007152    program     static D:\Projects\EggBot1-GH\EBB_firmware\Microchip\USB\usb_device.c
     USBCtrlTrfOutHandler   0x007134    program     static D:\Projects\EggBot1-GH\EBB_firmware\Microchip\USB\usb_device.c
      USBCtrlTrfRxService   0x006dc2    program     static D:\Projects\EggBot1-GH\EBB_firmware\Microchip\USB\usb_device.c
   USBCtrlTrfSetupHandler   0x0070fe    program     static D:\Projects\EggBot1-GH\EBB_firmware\Microchip\USB\usb_device.c
      USBCtrlTrfTxService   0x006d42    program     static D:\Projects\EggBot1-GH\EBB_firmware\Microchip\USB\usb_device.c
            USBDeviceInit   0x0068a0    program     extern D:\Projects\EggBot1-GH\EBB_firmware\Microchip\USB\usb_device.c
           USBDeviceTasks   0x00696c    program     extern D:\Projects\EggBot1-GH\EBB_firmware\Microchip\USB\usb_device.c
        USBEnableEndpoint   0x006ac6    program     extern D:\Projects\EggBot1-GH\EBB_firmware\Microchip\USB\usb_device.c
         USBStallEndpoint   0x006b9a    program     extern D:\Projects\EggBot1-GH\EBB_firmware\Microchip\USB\usb_device.c
          USBStallHandler   0x00701e    program     static D:\Projects\EggBot1-GH\EBB_firmware\Microchip\USB\usb_device.c
  USBStdFeatureReqHandler   0x007274    program     static D:\Projects\EggBot1-GH\EBB_firmware\Microchip\USB\usb_device.c
      USBStdGetDscHandler   0x006f02    program     static D:\Projects\EggBot1-GH\EBB_firmware\Microchip\USB\usb_device.c
   USBStdGetStatusHandler   0x006fa8    program     static D:\Projects\EggBot1-GH\EBB_firmware\Microchip\USB\usb_device.c
      USBStdSetCfgHandler   0x006e8a    program     static D:\Projects\EggBot1-GH\EBB_firmware\Microchip\USB\usb_device.c
               USBSuspend   0x007040    program     static D:\Projects\EggBot1-GH\EBB_firmware\Microchip\USB\usb_device.c
     USBTransferOnePacket   0x006b0e    program     extern D:\Projects\EggBot1-GH\EBB_firmware\Microchip\USB\usb_device.c
       USBWakeFromSuspend   0x007056    program     static D:\Projects\EggBot1-GH\EBB_firmware\Microchip\USB\usb_device.c
               USB_CD_Ptr   0x0090cf    program     extern D:\Projects\EggBot1-GH\EBB_firmware\app.X\source\usb_descriptors.c
USER_USB_CALLBACK_EVENT_HANDLER   0x008af0    program     extern D:\Projects\EggBot1-GH\EBB_firmware\app.X\source\main.c
                 UserInit   0x0041e8    program     extern D:\Projects\EggBot1-GH\EBB_firmware\app.X\source\UBW.c
              Write1USART   0x00914e    program     extern E:\3.46\pic18-lt\cxx-framework\src\pmc_common\USART\u1write.c
          WriteBytesFlash   0x008858    program     extern E:\3.46\pic18-lt\cxx-framework\src\pmc_common\Flash\WriteBytesFlash.c
              _2jContinue   0x00913a    program     static E:\3.46\pic18-lt\cxx-framework\src\traditional\stdclib\memset.asm
                   _3jEnd   0x009144    program     static E:\3.46\pic18-lt\cxx-framework\src\traditional\stdclib\memset.asm
              __FpCompare   0x00788e    program     extern E:\3.46\pic18-lt\cxx-framework\src\traditional\math\compFP.asm
                 __FpExit   0x007944    program     extern E:\3.46\pic18-lt\cxx-framework\src\traditional\math\packFP.asm
                 __FpPack   0x007970    program     extern E:\3.46\pic18-lt\cxx-framework\src\traditional\math\packFP.asm
            __FpReturnNaN   0x007938    program     extern E:\3.46\pic18-lt\cxx-framework\src\traditional\math\packFP.asm
         __FpReturnNegInf   0x00794a    program     extern E:\3.46\pic18-lt\cxx-framework\src\traditional\math\packFP.asm
        __FpReturnNegZero   0x007962    program     extern E:\3.46\pic18-lt\cxx-framework\src\traditional\math\packFP.asm
         __FpReturnPosInf   0x007950    program     extern E:\3.46\pic18-lt\cxx-framework\src\traditional\math\packFP.asm
        __FpReturnPosZero   0x00796a    program     extern E:\3.46\pic18-lt\cxx-framework\src\traditional\math\packFP.asm
        __FpReturnSignInf   0x007946    program     extern E:\3.46\pic18-lt\cxx-framework\src\traditional\math\packFP.asm
       __FpReturnSignZero   0x00795e    program     extern E:\3.46\pic18-lt\cxx-framework\src\traditional\math\packFP.asm
              __FpReturnW   0x0079c8    program     extern E:\3.46\pic18-lt\cxx-framework\src\traditional\math\packFP.asm
              __FpUnPackA   0x0079e8    program     extern E:\3.46\pic18-lt\cxx-framework\src\traditional\math\UnpackFP.asm
              __FpUnPackB   0x007a18    program     extern E:\3.46\pic18-lt\cxx-framework\src\traditional\math\UnpackFP.asm
       ___case_0_lbl00245   0x005060    program     static                          
       ___case_1_lbl00246   0x005060    program     static                          
       ___case_2_lbl00244   0x00504c    program     static                          
       ___case_3_lbl00248   0x005066    program     static                          
      ___default_lbl00247   0x005060    program     static                          
         ___else_lbl00221   0x004d8a    program     static                          
         ___else_lbl00224   0x004dd2    program     static                          
         ___else_lbl00226   0x004e1e    program     static                          
         ___else_lbl00228   0x004e02    program     static                          
         ___else_lbl00233   0x004eb8    program     static                          
         ___else_lbl00235   0x004e9c    program     static                          
         ___else_lbl00237   0x004ee8    program     static                          
         ___else_lbl00240   0x004f88    program     static                          
         ___else_lbl00242   0x004fc4    program     static                          
         ___else_lbl00250   0x005036    program     static                          
         ___else_lbl00252   0x0050c2    program     static                          
         ___else_lbl00254   0x0050a2    program     static                          
         ___else_lbl00256   0x00512c    program     static                          
         ___else_lbl00258   0x0050f2    program     static                          
         ___else_lbl00260   0x005196    program     static                          
         ___else_lbl00262   0x00515c    program     static                          
         ___else_lbl00264   0x0051fc    program     static                          
         ___else_lbl00266   0x0051c4    program     static                          
         ___else_lbl00270   0x00528a    program     static                          
         ___else_lbl00272   0x005270    program     static                          
         ___else_lbl00274   0x0052d2    program     static                          
         ___else_lbl00276   0x0052b8    program     static                          
         ___else_lbl00278   0x005320    program     static                          
         ___else_lbl00280   0x005304    program     static                          
         ___else_lbl00282   0x005326    program     static                          
         ___else_lbl00284   0x0052d8    program     static                          
         ___else_lbl00286   0x005290    program     static                          
         ___else_lbl00288   0x00524a    program     static                          
         ___else_lbl00290   0x005202    program     static                          
         ___else_lbl00292   0x00519c    program     static                          
         ___else_lbl00294   0x005132    program     static                          
         ___else_lbl00296   0x0050c8    program     static                          
         ___else_lbl00298   0x00507a    program     static                          
         ___else_lbl00300   0x004ff8    program     static                          
         ___else_lbl00302   0x004fca    program     static                          
         ___else_lbl00304   0x004f92    program     static                          
         ___else_lbl00306   0x004f56    program     static                          
         ___else_lbl00308   0x004f26    program     static                          
         ___else_lbl00310   0x004ef0    program     static                          
         ___else_lbl00312   0x004ebe    program     static                          
         ___else_lbl00314   0x004e72    program     static                          
         ___else_lbl00316   0x004e24    program     static                          
         ___else_lbl00318   0x004dd8    program     static                          
         ___else_lbl00320   0x004d90    program     static                          
          ___for_lbl00189   0x0018ac    program     static                          
          ___for_lbl00190   0x0018b0    program     static                          
          ___for_lbl00191   0x001850    program     static                          
          ___for_lbl00192   0x00199c    program     static                          
          ___for_lbl00193   0x0019a0    program     static                          
          ___for_lbl00194   0x001988    program     static                          
          ___for_lbl00442   0x005b1e    program     static                          
          ___for_lbl00443   0x005b22    program     static                          
          ___for_lbl00446   0x005b08    program     static                          
           ___if_lbl00005   0x0089a0    program     static                          
           ___if_lbl00006   0x0089c2    program     static                          
           ___if_lbl00007   0x0089da    program     static                          
           ___if_lbl00218   0x004d48    program     static                          
           ___if_lbl00220   0x004d8e    program     static                          
           ___if_lbl00223   0x004dd6    program     static                          
           ___if_lbl00225   0x004e22    program     static                          
           ___if_lbl00227   0x004e22    program     static                          
           ___if_lbl00229   0x004e60    program     static                          
           ___if_lbl00232   0x004ebc    program     static                          
           ___if_lbl00234   0x004ebc    program     static                          
           ___if_lbl00236   0x004eee    program     static                          
           ___if_lbl00238   0x004f24    program     static                          
           ___if_lbl00239   0x004f90    program     static                          
           ___if_lbl00241   0x004fc8    program     static                          
           ___if_lbl00249   0x005074    program     static                          
           ___if_lbl00251   0x0050c6    program     static                          
           ___if_lbl00253   0x0050c6    program     static                          
           ___if_lbl00255   0x005130    program     static                          
           ___if_lbl00257   0x005130    program     static                          
           ___if_lbl00259   0x00519a    program     static                          
           ___if_lbl00261   0x00519a    program     static                          
           ___if_lbl00263   0x005200    program     static                          
           ___if_lbl00265   0x005200    program     static                          
           ___if_lbl00269   0x00528e    program     static                          
           ___if_lbl00271   0x00528e    program     static                          
           ___if_lbl00273   0x0052d6    program     static                          
           ___if_lbl00275   0x0052d6    program     static                          
           ___if_lbl00277   0x005324    program     static                          
           ___if_lbl00279   0x005324    program     static                          
           ___if_lbl00281   0x00532a    program     static                          
           ___if_lbl00283   0x00532a    program     static                          
           ___if_lbl00285   0x00532a    program     static                          
           ___if_lbl00287   0x00532a    program     static                          
           ___if_lbl00289   0x00532a    program     static                          
           ___if_lbl00291   0x00532a    program     static                          
           ___if_lbl00293   0x00532a    program     static                          
           ___if_lbl00295   0x00532a    program     static                          
           ___if_lbl00297   0x00532a    program     static                          
           ___if_lbl00299   0x00532a    program     static                          
           ___if_lbl00301   0x00532a    program     static                          
           ___if_lbl00303   0x00532a    program     static                          
           ___if_lbl00305   0x00532a    program     static                          
           ___if_lbl00307   0x00532a    program     static                          
           ___if_lbl00309   0x00532a    program     static                          
           ___if_lbl00311   0x00532a    program     static                          
           ___if_lbl00313   0x00532a    program     static                          
           ___if_lbl00315   0x00532a    program     static                          
           ___if_lbl00317   0x00532a    program     static                          
           ___if_lbl00319   0x00532a    program     static                          
       ___return_lbl00000   0x009118    program     static                          
       ___return_lbl00000   0x009078    program     static                          
       ___return_lbl00000   0x008f80    program     static                          
       ___return_lbl00000   0x001004    program     static                          
       ___return_lbl00000   0x008a1e    program     static                          
       ___return_lbl00000   0x0091f6    program     static                          
       ___return_lbl00000   0x0091e0    program     static                          
       ___return_lbl00001   0x008f04    program     static                          
       ___return_lbl00001   0x00100c    program     static                          
       ___return_lbl00002   0x00101c    program     static                          
       ___return_lbl00050   0x00416e    program     static                          
       ___return_lbl00188   0x0019dc    program     static                          
       ___return_lbl00217   0x005330    program     static                          
       ___return_lbl00441   0x005b22    program     static                          
       ___return_lbl00447   0x005b3a    program     static                          
       ___return_lbl00448   0x005b48    program     static                          
   ___switchexit_lbl00243   0x005074    program     static                          
        ___while_lbl00001   0x008f4e    program     static                          
        ___while_lbl00001   0x008942    program     static                          
        ___while_lbl00002   0x008f80    program     static                          
        ___while_lbl00002   0x008a1e    program     static                          
        ___while_lbl00003   0x008966    program     static                          
        ___while_lbl00004   0x0089a2    program     static                          
        ___while_lbl00051   0x004144    program     static                          
        ___while_lbl00052   0x00416e    program     static                          
        ___while_lbl00230   0x004e60    program     static                          
        ___while_lbl00231   0x004e6a    program     static                          
        ___while_lbl00267   0x00521e    program     static                          
        ___while_lbl00268   0x005248    program     static                          
        ___while_lbl00444   0x005b10    program     static                          
        ___while_lbl00445   0x005b1e    program     static                          
                   __init   0x0091f8    program     extern E:\3.46\pic18-lt\cxx-framework\src\traditional\stdclib\__init.c
                   __pa_0   0x00877a    program     static D:\Projects\EggBot1-GH\EBB_firmware\app.X\source\ebb_print.c
                   __pa_0   0x0081da    program     static D:\Projects\EggBot1-GH\EBB_firmware\app.X\source\RCServo2.c
                   __pa_0   0x003170    program     static D:\Projects\EggBot1-GH\EBB_firmware\app.X\source\ebb.c
                   __pa_0   0x008dae    program     static E:\3.46\pic18-lt\cxx-framework\src\pmc_common\Flash\EraseFlash.c
                   __pa_0   0x00739e    program     static D:\Projects\EggBot1-GH\EBB_firmware\Microchip\USB\usb_device.c
                   __pa_0   0x00856e    program     static D:\Projects\EggBot1-GH\EBB_firmware\Microchip\USB\CDC Device Driver\usb_function_cdc.c
                   __pa_0   0x006396    program     static D:\Projects\EggBot1-GH\EBB_firmware\app.X\source\UBW.c
                   __pa_1   0x008588    program     static D:\Projects\EggBot1-GH\EBB_firmware\Microchip\USB\CDC Device Driver\usb_function_cdc.c
                   __pa_1   0x008794    program     static D:\Projects\EggBot1-GH\EBB_firmware\app.X\source\ebb_print.c
                   __pa_1   0x00317c    program     static D:\Projects\EggBot1-GH\EBB_firmware\app.X\source\ebb.c
                   __pa_1   0x00639c    program     static D:\Projects\EggBot1-GH\EBB_firmware\app.X\source\UBW.c
                   __pa_1   0x0081e4    program     static D:\Projects\EggBot1-GH\EBB_firmware\app.X\source\RCServo2.c
                   __pa_1   0x0073a6    program     static D:\Projects\EggBot1-GH\EBB_firmware\Microchip\USB\usb_device.c
                  __pa_10   0x007404    program     static D:\Projects\EggBot1-GH\EBB_firmware\Microchip\USB\usb_device.c
                  __pa_10   0x0032fa    program     static D:\Projects\EggBot1-GH\EBB_firmware\app.X\source\ebb.c
                  __pa_10   0x0063ea    program     static D:\Projects\EggBot1-GH\EBB_firmware\app.X\source\UBW.c
                  __pa_10   0x008244    program     static D:\Projects\EggBot1-GH\EBB_firmware\app.X\source\RCServo2.c
                  __pa_10   0x008838    program     static D:\Projects\EggBot1-GH\EBB_firmware\app.X\source\ebb_print.c
                  __pa_10   0x00860e    program     static D:\Projects\EggBot1-GH\EBB_firmware\Microchip\USB\CDC Device Driver\usb_function_cdc.c
                 __pa_100   0x00682e    program     static D:\Projects\EggBot1-GH\EBB_firmware\app.X\source\UBW.c
                 __pa_100   0x0038c8    program     static D:\Projects\EggBot1-GH\EBB_firmware\app.X\source\ebb.c
                 __pa_101   0x006838    program     static D:\Projects\EggBot1-GH\EBB_firmware\app.X\source\UBW.c
                 __pa_101   0x0038d2    program     static D:\Projects\EggBot1-GH\EBB_firmware\app.X\source\ebb.c
                 __pa_102   0x003920    program     static D:\Projects\EggBot1-GH\EBB_firmware\app.X\source\ebb.c
                 __pa_102   0x006840    program     static D:\Projects\EggBot1-GH\EBB_firmware\app.X\source\UBW.c
                 __pa_103   0x00392a    program     static D:\Projects\EggBot1-GH\EBB_firmware\app.X\source\ebb.c
                 __pa_103   0x006848    program     static D:\Projects\EggBot1-GH\EBB_firmware\app.X\source\UBW.c
                 __pa_104   0x006850    program     static D:\Projects\EggBot1-GH\EBB_firmware\app.X\source\UBW.c
                 __pa_104   0x003938    program     static D:\Projects\EggBot1-GH\EBB_firmware\app.X\source\ebb.c
                 __pa_105   0x00394e    program     static D:\Projects\EggBot1-GH\EBB_firmware\app.X\source\ebb.c
                 __pa_105   0x006858    program     static D:\Projects\EggBot1-GH\EBB_firmware\app.X\source\UBW.c
                 __pa_106   0x00395a    program     static D:\Projects\EggBot1-GH\EBB_firmware\app.X\source\ebb.c
                 __pa_106   0x006860    program     static D:\Projects\EggBot1-GH\EBB_firmware\app.X\source\UBW.c
                 __pa_107   0x003962    program     static D:\Projects\EggBot1-GH\EBB_firmware\app.X\source\ebb.c
                 __pa_107   0x006868    program     static D:\Projects\EggBot1-GH\EBB_firmware\app.X\source\UBW.c
                 __pa_108   0x00396e    program     static D:\Projects\EggBot1-GH\EBB_firmware\app.X\source\ebb.c
                 __pa_108   0x00686e    program     static D:\Projects\EggBot1-GH\EBB_firmware\app.X\source\UBW.c
                 __pa_109   0x003994    program     static D:\Projects\EggBot1-GH\EBB_firmware\app.X\source\ebb.c
                 __pa_109   0x00687c    program     static D:\Projects\EggBot1-GH\EBB_firmware\app.X\source\UBW.c
                  __pa_11   0x003312    program     static D:\Projects\EggBot1-GH\EBB_firmware\app.X\source\ebb.c
                  __pa_11   0x007414    program     static D:\Projects\EggBot1-GH\EBB_firmware\Microchip\USB\usb_device.c
                  __pa_11   0x008254    program     static D:\Projects\EggBot1-GH\EBB_firmware\app.X\source\RCServo2.c
                  __pa_11   0x00861c    program     static D:\Projects\EggBot1-GH\EBB_firmware\Microchip\USB\CDC Device Driver\usb_function_cdc.c
                  __pa_11   0x0063f4    program     static D:\Projects\EggBot1-GH\EBB_firmware\app.X\source\UBW.c
                  __pa_11   0x008840    program     static D:\Projects\EggBot1-GH\EBB_firmware\app.X\source\ebb_print.c
                 __pa_110   0x003998    program     static D:\Projects\EggBot1-GH\EBB_firmware\app.X\source\ebb.c
                 __pa_110   0x006884    program     static D:\Projects\EggBot1-GH\EBB_firmware\app.X\source\UBW.c
                 __pa_111   0x0039ac    program     static D:\Projects\EggBot1-GH\EBB_firmware\app.X\source\ebb.c
                 __pa_111   0x00688e    program     static D:\Projects\EggBot1-GH\EBB_firmware\app.X\source\UBW.c
                 __pa_112   0x006898    program     static D:\Projects\EggBot1-GH\EBB_firmware\app.X\source\UBW.c
                 __pa_112   0x0039ba    program     static D:\Projects\EggBot1-GH\EBB_firmware\app.X\source\ebb.c
                 __pa_113   0x0039e0    program     static D:\Projects\EggBot1-GH\EBB_firmware\app.X\source\ebb.c
                 __pa_114   0x003a00    program     static D:\Projects\EggBot1-GH\EBB_firmware\app.X\source\ebb.c
                 __pa_115   0x003a16    program     static D:\Projects\EggBot1-GH\EBB_firmware\app.X\source\ebb.c
                 __pa_116   0x003a30    program     static D:\Projects\EggBot1-GH\EBB_firmware\app.X\source\ebb.c
                 __pa_117   0x003a3e    program     static D:\Projects\EggBot1-GH\EBB_firmware\app.X\source\ebb.c
                 __pa_118   0x003a48    program     static D:\Projects\EggBot1-GH\EBB_firmware\app.X\source\ebb.c
                 __pa_119   0x003a5a    program     static D:\Projects\EggBot1-GH\EBB_firmware\app.X\source\ebb.c
                  __pa_12   0x00884c    program     static D:\Projects\EggBot1-GH\EBB_firmware\app.X\source\ebb_print.c
                  __pa_12   0x0063fe    program     static D:\Projects\EggBot1-GH\EBB_firmware\app.X\source\UBW.c
                  __pa_12   0x00741e    program     static D:\Projects\EggBot1-GH\EBB_firmware\Microchip\USB\usb_device.c
                  __pa_12   0x003326    program     static D:\Projects\EggBot1-GH\EBB_firmware\app.X\source\ebb.c
                 __pa_120   0x003a6c    program     static D:\Projects\EggBot1-GH\EBB_firmware\app.X\source\ebb.c
                 __pa_121   0x003a76    program     static D:\Projects\EggBot1-GH\EBB_firmware\app.X\source\ebb.c
                 __pa_122   0x003a7e    program     static D:\Projects\EggBot1-GH\EBB_firmware\app.X\source\ebb.c
                 __pa_123   0x003a86    program     static D:\Projects\EggBot1-GH\EBB_firmware\app.X\source\ebb.c
                 __pa_124   0x003a90    program     static D:\Projects\EggBot1-GH\EBB_firmware\app.X\source\ebb.c
                 __pa_125   0x003aa6    program     static D:\Projects\EggBot1-GH\EBB_firmware\app.X\source\ebb.c
                 __pa_126   0x003aaa    program     static D:\Projects\EggBot1-GH\EBB_firmware\app.X\source\ebb.c
                 __pa_127   0x003abc    program     static D:\Projects\EggBot1-GH\EBB_firmware\app.X\source\ebb.c
                 __pa_128   0x003ace    program     static D:\Projects\EggBot1-GH\EBB_firmware\app.X\source\ebb.c
                 __pa_129   0x003ae0    program     static D:\Projects\EggBot1-GH\EBB_firmware\app.X\source\ebb.c
                  __pa_13   0x00640c    program     static D:\Projects\EggBot1-GH\EBB_firmware\app.X\source\UBW.c
                  __pa_13   0x007432    program     static D:\Projects\EggBot1-GH\EBB_firmware\Microchip\USB\usb_device.c
                  __pa_13   0x00332c    program     static D:\Projects\EggBot1-GH\EBB_firmware\app.X\source\ebb.c
                 __pa_130   0x003ae8    program     static D:\Projects\EggBot1-GH\EBB_firmware\app.X\source\ebb.c
                 __pa_131   0x003aec    program     static D:\Projects\EggBot1-GH\EBB_firmware\app.X\source\ebb.c
                 __pa_132   0x003af4    program     static D:\Projects\EggBot1-GH\EBB_firmware\app.X\source\ebb.c
                 __pa_133   0x003afe    program     static D:\Projects\EggBot1-GH\EBB_firmware\app.X\source\ebb.c
                 __pa_134   0x003b0e    program     static D:\Projects\EggBot1-GH\EBB_firmware\app.X\source\ebb.c
                 __pa_135   0x003b1e    program     static D:\Projects\EggBot1-GH\EBB_firmware\app.X\source\ebb.c
                 __pa_136   0x003b2c    program     static D:\Projects\EggBot1-GH\EBB_firmware\app.X\source\ebb.c
                 __pa_137   0x003b34    program     static D:\Projects\EggBot1-GH\EBB_firmware\app.X\source\ebb.c
                 __pa_138   0x003b3c    program     static D:\Projects\EggBot1-GH\EBB_firmware\app.X\source\ebb.c
                 __pa_139   0x003b48    program     static D:\Projects\EggBot1-GH\EBB_firmware\app.X\source\ebb.c
                  __pa_14   0x007446    program     static D:\Projects\EggBot1-GH\EBB_firmware\Microchip\USB\usb_device.c
                  __pa_14   0x003336    program     static D:\Projects\EggBot1-GH\EBB_firmware\app.X\source\ebb.c
                  __pa_14   0x006424    program     static D:\Projects\EggBot1-GH\EBB_firmware\app.X\source\UBW.c
                 __pa_140   0x003b54    program     static D:\Projects\EggBot1-GH\EBB_firmware\app.X\source\ebb.c
                 __pa_141   0x003b60    program     static D:\Projects\EggBot1-GH\EBB_firmware\app.X\source\ebb.c
                 __pa_142   0x003b6e    program     static D:\Projects\EggBot1-GH\EBB_firmware\app.X\source\ebb.c
                 __pa_143   0x003b7c    program     static D:\Projects\EggBot1-GH\EBB_firmware\app.X\source\ebb.c
                 __pa_144   0x003b88    program     static D:\Projects\EggBot1-GH\EBB_firmware\app.X\source\ebb.c
                 __pa_145   0x003b8e    program     static D:\Projects\EggBot1-GH\EBB_firmware\app.X\source\ebb.c
                 __pa_146   0x003b96    program     static D:\Projects\EggBot1-GH\EBB_firmware\app.X\source\ebb.c
                 __pa_147   0x003b9e    program     static D:\Projects\EggBot1-GH\EBB_firmware\app.X\source\ebb.c
                 __pa_148   0x003ba6    program     static D:\Projects\EggBot1-GH\EBB_firmware\app.X\source\ebb.c
                 __pa_149   0x003bae    program     static D:\Projects\EggBot1-GH\EBB_firmware\app.X\source\ebb.c
                  __pa_15   0x007452    program     static D:\Projects\EggBot1-GH\EBB_firmware\Microchip\USB\usb_device.c
                  __pa_15   0x00333c    program     static D:\Projects\EggBot1-GH\EBB_firmware\app.X\source\ebb.c
                  __pa_15   0x00642c    program     static D:\Projects\EggBot1-GH\EBB_firmware\app.X\source\UBW.c
                 __pa_150   0x003bb2    program     static D:\Projects\EggBot1-GH\EBB_firmware\app.X\source\ebb.c
                 __pa_151   0x003bb8    program     static D:\Projects\EggBot1-GH\EBB_firmware\app.X\source\ebb.c
                 __pa_152   0x003bbe    program     static D:\Projects\EggBot1-GH\EBB_firmware\app.X\source\ebb.c
                 __pa_153   0x003be2    program     static D:\Projects\EggBot1-GH\EBB_firmware\app.X\source\ebb.c
                 __pa_154   0x003bf6    program     static D:\Projects\EggBot1-GH\EBB_firmware\app.X\source\ebb.c
                 __pa_155   0x003c10    program     static D:\Projects\EggBot1-GH\EBB_firmware\app.X\source\ebb.c
                 __pa_156   0x003c1e    program     static D:\Projects\EggBot1-GH\EBB_firmware\app.X\source\ebb.c
                 __pa_157   0x003c3c    program     static D:\Projects\EggBot1-GH\EBB_firmware\app.X\source\ebb.c
                 __pa_158   0x003c56    program     static D:\Projects\EggBot1-GH\EBB_firmware\app.X\source\ebb.c
                 __pa_159   0x003c62    program     static D:\Projects\EggBot1-GH\EBB_firmware\app.X\source\ebb.c
                  __pa_16   0x00746c    program     static D:\Projects\EggBot1-GH\EBB_firmware\Microchip\USB\usb_device.c
                  __pa_16   0x003376    program     static D:\Projects\EggBot1-GH\EBB_firmware\app.X\source\ebb.c
                  __pa_16   0x006434    program     static D:\Projects\EggBot1-GH\EBB_firmware\app.X\source\UBW.c
                 __pa_160   0x003c7a    program     static D:\Projects\EggBot1-GH\EBB_firmware\app.X\source\ebb.c
                 __pa_161   0x003c86    program     static D:\Projects\EggBot1-GH\EBB_firmware\app.X\source\ebb.c
                 __pa_162   0x003c92    program     static D:\Projects\EggBot1-GH\EBB_firmware\app.X\source\ebb.c
                 __pa_163   0x003ca0    program     static D:\Projects\EggBot1-GH\EBB_firmware\app.X\source\ebb.c
                 __pa_164   0x003caa    program     static D:\Projects\EggBot1-GH\EBB_firmware\app.X\source\ebb.c
                 __pa_165   0x003cb2    program     static D:\Projects\EggBot1-GH\EBB_firmware\app.X\source\ebb.c
                 __pa_166   0x003cc4    program     static D:\Projects\EggBot1-GH\EBB_firmware\app.X\source\ebb.c
                 __pa_167   0x003cd2    program     static D:\Projects\EggBot1-GH\EBB_firmware\app.X\source\ebb.c
                 __pa_168   0x003ce4    program     static D:\Projects\EggBot1-GH\EBB_firmware\app.X\source\ebb.c
                 __pa_169   0x003cee    program     static D:\Projects\EggBot1-GH\EBB_firmware\app.X\source\ebb.c
                  __pa_17   0x007478    program     static D:\Projects\EggBot1-GH\EBB_firmware\Microchip\USB\usb_device.c
                  __pa_17   0x006440    program     static D:\Projects\EggBot1-GH\EBB_firmware\app.X\source\UBW.c
                  __pa_17   0x00337e    program     static D:\Projects\EggBot1-GH\EBB_firmware\app.X\source\ebb.c
                 __pa_170   0x003cf8    program     static D:\Projects\EggBot1-GH\EBB_firmware\app.X\source\ebb.c
                 __pa_171   0x003d00    program     static D:\Projects\EggBot1-GH\EBB_firmware\app.X\source\ebb.c
                 __pa_172   0x003d0e    program     static D:\Projects\EggBot1-GH\EBB_firmware\app.X\source\ebb.c
                 __pa_173   0x003d1c    program     static D:\Projects\EggBot1-GH\EBB_firmware\app.X\source\ebb.c
                 __pa_174   0x003d26    program     static D:\Projects\EggBot1-GH\EBB_firmware\app.X\source\ebb.c
                 __pa_175   0x003d32    program     static D:\Projects\EggBot1-GH\EBB_firmware\app.X\source\ebb.c
                 __pa_176   0x003d3c    program     static D:\Projects\EggBot1-GH\EBB_firmware\app.X\source\ebb.c
                 __pa_177   0x003d44    program     static D:\Projects\EggBot1-GH\EBB_firmware\app.X\source\ebb.c
                 __pa_178   0x003d4a    program     static D:\Projects\EggBot1-GH\EBB_firmware\app.X\source\ebb.c
                 __pa_179   0x003d52    program     static D:\Projects\EggBot1-GH\EBB_firmware\app.X\source\ebb.c
                  __pa_18   0x00644a    program     static D:\Projects\EggBot1-GH\EBB_firmware\app.X\source\UBW.c
                  __pa_18   0x007484    program     static D:\Projects\EggBot1-GH\EBB_firmware\Microchip\USB\usb_device.c
                  __pa_18   0x003388    program     static D:\Projects\EggBot1-GH\EBB_firmware\app.X\source\ebb.c
                 __pa_180   0x003d5a    program     static D:\Projects\EggBot1-GH\EBB_firmware\app.X\source\ebb.c
                 __pa_181   0x003d68    program     static D:\Projects\EggBot1-GH\EBB_firmware\app.X\source\ebb.c
                 __pa_182   0x003d78    program     static D:\Projects\EggBot1-GH\EBB_firmware\app.X\source\ebb.c
                 __pa_183   0x003d84    program     static D:\Projects\EggBot1-GH\EBB_firmware\app.X\source\ebb.c
                  __pa_19   0x006452    program     static D:\Projects\EggBot1-GH\EBB_firmware\app.X\source\UBW.c
                  __pa_19   0x0033d2    program     static D:\Projects\EggBot1-GH\EBB_firmware\app.X\source\ebb.c
                  __pa_19   0x00748c    program     static D:\Projects\EggBot1-GH\EBB_firmware\Microchip\USB\usb_device.c
                   __pa_2   0x008598    program     static D:\Projects\EggBot1-GH\EBB_firmware\Microchip\USB\CDC Device Driver\usb_function_cdc.c
                   __pa_2   0x0081ee    program     static D:\Projects\EggBot1-GH\EBB_firmware\app.X\source\RCServo2.c
                   __pa_2   0x0073b0    program     static D:\Projects\EggBot1-GH\EBB_firmware\Microchip\USB\usb_device.c
                   __pa_2   0x0063a2    program     static D:\Projects\EggBot1-GH\EBB_firmware\app.X\source\UBW.c
                   __pa_2   0x003192    program     static D:\Projects\EggBot1-GH\EBB_firmware\app.X\source\ebb.c
                   __pa_2   0x0087ae    program     static D:\Projects\EggBot1-GH\EBB_firmware\app.X\source\ebb_print.c
                  __pa_20   0x007494    program     static D:\Projects\EggBot1-GH\EBB_firmware\Microchip\USB\usb_device.c
                  __pa_20   0x0033e4    program     static D:\Projects\EggBot1-GH\EBB_firmware\app.X\source\ebb.c
                  __pa_20   0x00645a    program     static D:\Projects\EggBot1-GH\EBB_firmware\app.X\source\UBW.c
                  __pa_21   0x0074a0    program     static D:\Projects\EggBot1-GH\EBB_firmware\Microchip\USB\usb_device.c
                  __pa_21   0x00646e    program     static D:\Projects\EggBot1-GH\EBB_firmware\app.X\source\UBW.c
                  __pa_21   0x003406    program     static D:\Projects\EggBot1-GH\EBB_firmware\app.X\source\ebb.c
                  __pa_22   0x00647a    program     static D:\Projects\EggBot1-GH\EBB_firmware\app.X\source\UBW.c
                  __pa_22   0x003444    program     static D:\Projects\EggBot1-GH\EBB_firmware\app.X\source\ebb.c
                  __pa_22   0x0074b0    program     static D:\Projects\EggBot1-GH\EBB_firmware\Microchip\USB\usb_device.c
                  __pa_23   0x0074be    program     static D:\Projects\EggBot1-GH\EBB_firmware\Microchip\USB\usb_device.c
                  __pa_23   0x003458    program     static D:\Projects\EggBot1-GH\EBB_firmware\app.X\source\ebb.c
                  __pa_23   0x006484    program     static D:\Projects\EggBot1-GH\EBB_firmware\app.X\source\UBW.c
                  __pa_24   0x0074cc    program     static D:\Projects\EggBot1-GH\EBB_firmware\Microchip\USB\usb_device.c
                  __pa_24   0x006492    program     static D:\Projects\EggBot1-GH\EBB_firmware\app.X\source\UBW.c
                  __pa_24   0x00346e    program     static D:\Projects\EggBot1-GH\EBB_firmware\app.X\source\ebb.c
                  __pa_25   0x0074da    program     static D:\Projects\EggBot1-GH\EBB_firmware\Microchip\USB\usb_device.c
                  __pa_25   0x003476    program     static D:\Projects\EggBot1-GH\EBB_firmware\app.X\source\ebb.c
                  __pa_25   0x0064a4    program     static D:\Projects\EggBot1-GH\EBB_firmware\app.X\source\UBW.c
                  __pa_26   0x00347e    program     static D:\Projects\EggBot1-GH\EBB_firmware\app.X\source\ebb.c
                  __pa_26   0x0074e8    program     static D:\Projects\EggBot1-GH\EBB_firmware\Microchip\USB\usb_device.c
                  __pa_26   0x0064ac    program     static D:\Projects\EggBot1-GH\EBB_firmware\app.X\source\UBW.c
                  __pa_27   0x0074f2    program     static D:\Projects\EggBot1-GH\EBB_firmware\Microchip\USB\usb_device.c
                  __pa_27   0x0064b8    program     static D:\Projects\EggBot1-GH\EBB_firmware\app.X\source\UBW.c
                  __pa_27   0x00348c    program     static D:\Projects\EggBot1-GH\EBB_firmware\app.X\source\ebb.c
                  __pa_28   0x00750a    program     static D:\Projects\EggBot1-GH\EBB_firmware\Microchip\USB\usb_device.c
                  __pa_28   0x0064da    program     static D:\Projects\EggBot1-GH\EBB_firmware\app.X\source\UBW.c
                  __pa_28   0x003498    program     static D:\Projects\EggBot1-GH\EBB_firmware\app.X\source\ebb.c
                  __pa_29   0x007516    program     static D:\Projects\EggBot1-GH\EBB_firmware\Microchip\USB\usb_device.c
                  __pa_29   0x0064e8    program     static D:\Projects\EggBot1-GH\EBB_firmware\app.X\source\UBW.c
                  __pa_29   0x0034bc    program     static D:\Projects\EggBot1-GH\EBB_firmware\app.X\source\ebb.c
                   __pa_3   0x0073b8    program     static D:\Projects\EggBot1-GH\EBB_firmware\Microchip\USB\usb_device.c
                   __pa_3   0x0085aa    program     static D:\Projects\EggBot1-GH\EBB_firmware\Microchip\USB\CDC Device Driver\usb_function_cdc.c
                   __pa_3   0x0063aa    program     static D:\Projects\EggBot1-GH\EBB_firmware\app.X\source\UBW.c
                   __pa_3   0x0087cc    program     static D:\Projects\EggBot1-GH\EBB_firmware\app.X\source\ebb_print.c
                   __pa_3   0x00319a    program     static D:\Projects\EggBot1-GH\EBB_firmware\app.X\source\ebb.c
                   __pa_3   0x0081fe    program     static D:\Projects\EggBot1-GH\EBB_firmware\app.X\source\RCServo2.c
                  __pa_30   0x0034e0    program     static D:\Projects\EggBot1-GH\EBB_firmware\app.X\source\ebb.c
                  __pa_30   0x00751e    program     static D:\Projects\EggBot1-GH\EBB_firmware\Microchip\USB\usb_device.c
                  __pa_30   0x0064f6    program     static D:\Projects\EggBot1-GH\EBB_firmware\app.X\source\UBW.c
                  __pa_31   0x007532    program     static D:\Projects\EggBot1-GH\EBB_firmware\Microchip\USB\usb_device.c
                  __pa_31   0x006518    program     static D:\Projects\EggBot1-GH\EBB_firmware\app.X\source\UBW.c
                  __pa_31   0x0034f4    program     static D:\Projects\EggBot1-GH\EBB_firmware\app.X\source\ebb.c
                  __pa_32   0x006522    program     static D:\Projects\EggBot1-GH\EBB_firmware\app.X\source\UBW.c
                  __pa_32   0x003506    program     static D:\Projects\EggBot1-GH\EBB_firmware\app.X\source\ebb.c
                  __pa_32   0x007544    program     static D:\Projects\EggBot1-GH\EBB_firmware\Microchip\USB\usb_device.c
                  __pa_33   0x006528    program     static D:\Projects\EggBot1-GH\EBB_firmware\app.X\source\UBW.c
                  __pa_33   0x003518    program     static D:\Projects\EggBot1-GH\EBB_firmware\app.X\source\ebb.c
                  __pa_33   0x007552    program     static D:\Projects\EggBot1-GH\EBB_firmware\Microchip\USB\usb_device.c
                  __pa_34   0x00352a    program     static D:\Projects\EggBot1-GH\EBB_firmware\app.X\source\ebb.c
                  __pa_34   0x006536    program     static D:\Projects\EggBot1-GH\EBB_firmware\app.X\source\UBW.c
                  __pa_34   0x00755c    program     static D:\Projects\EggBot1-GH\EBB_firmware\Microchip\USB\usb_device.c
                  __pa_35   0x007566    program     static D:\Projects\EggBot1-GH\EBB_firmware\Microchip\USB\usb_device.c
                  __pa_35   0x003536    program     static D:\Projects\EggBot1-GH\EBB_firmware\app.X\source\ebb.c
                  __pa_35   0x00653c    program     static D:\Projects\EggBot1-GH\EBB_firmware\app.X\source\UBW.c
                  __pa_36   0x00756c    program     static D:\Projects\EggBot1-GH\EBB_firmware\Microchip\USB\usb_device.c
                  __pa_36   0x006558    program     static D:\Projects\EggBot1-GH\EBB_firmware\app.X\source\UBW.c
                  __pa_36   0x00354c    program     static D:\Projects\EggBot1-GH\EBB_firmware\app.X\source\ebb.c
                  __pa_37   0x003554    program     static D:\Projects\EggBot1-GH\EBB_firmware\app.X\source\ebb.c
                  __pa_37   0x007574    program     static D:\Projects\EggBot1-GH\EBB_firmware\Microchip\USB\usb_device.c
                  __pa_37   0x006562    program     static D:\Projects\EggBot1-GH\EBB_firmware\app.X\source\UBW.c
                  __pa_38   0x00757a    program     static D:\Projects\EggBot1-GH\EBB_firmware\Microchip\USB\usb_device.c
                  __pa_38   0x003564    program     static D:\Projects\EggBot1-GH\EBB_firmware\app.X\source\ebb.c
                  __pa_38   0x00656c    program     static D:\Projects\EggBot1-GH\EBB_firmware\app.X\source\UBW.c
                  __pa_39   0x007588    program     static D:\Projects\EggBot1-GH\EBB_firmware\Microchip\USB\usb_device.c
                  __pa_39   0x003568    program     static D:\Projects\EggBot1-GH\EBB_firmware\app.X\source\ebb.c
                  __pa_39   0x006576    program     static D:\Projects\EggBot1-GH\EBB_firmware\app.X\source\UBW.c
                   __pa_4   0x0085c4    program     static D:\Projects\EggBot1-GH\EBB_firmware\Microchip\USB\CDC Device Driver\usb_function_cdc.c
                   __pa_4   0x00820a    program     static D:\Projects\EggBot1-GH\EBB_firmware\app.X\source\RCServo2.c
                   __pa_4   0x0073c2    program     static D:\Projects\EggBot1-GH\EBB_firmware\Microchip\USB\usb_device.c
                   __pa_4   0x0063b0    program     static D:\Projects\EggBot1-GH\EBB_firmware\app.X\source\UBW.c
                   __pa_4   0x003264    program     static D:\Projects\EggBot1-GH\EBB_firmware\app.X\source\ebb.c
                   __pa_4   0x0087e4    program     static D:\Projects\EggBot1-GH\EBB_firmware\app.X\source\ebb_print.c
                  __pa_40   0x003574    program     static D:\Projects\EggBot1-GH\EBB_firmware\app.X\source\ebb.c
                  __pa_40   0x006580    program     static D:\Projects\EggBot1-GH\EBB_firmware\app.X\source\UBW.c
                  __pa_40   0x007596    program     static D:\Projects\EggBot1-GH\EBB_firmware\Microchip\USB\usb_device.c
                  __pa_41   0x0075a4    program     static D:\Projects\EggBot1-GH\EBB_firmware\Microchip\USB\usb_device.c
                  __pa_41   0x00658a    program     static D:\Projects\EggBot1-GH\EBB_firmware\app.X\source\UBW.c
                  __pa_41   0x003596    program     static D:\Projects\EggBot1-GH\EBB_firmware\app.X\source\ebb.c
                  __pa_42   0x0035ae    program     static D:\Projects\EggBot1-GH\EBB_firmware\app.X\source\ebb.c
                  __pa_42   0x0065a2    program     static D:\Projects\EggBot1-GH\EBB_firmware\app.X\source\UBW.c
                  __pa_42   0x0075ae    program     static D:\Projects\EggBot1-GH\EBB_firmware\Microchip\USB\usb_device.c
                  __pa_43   0x0075b8    program     static D:\Projects\EggBot1-GH\EBB_firmware\Microchip\USB\usb_device.c
                  __pa_43   0x0065aa    program     static D:\Projects\EggBot1-GH\EBB_firmware\app.X\source\UBW.c
                  __pa_43   0x0035ca    program     static D:\Projects\EggBot1-GH\EBB_firmware\app.X\source\ebb.c
                  __pa_44   0x0075c0    program     static D:\Projects\EggBot1-GH\EBB_firmware\Microchip\USB\usb_device.c
                  __pa_44   0x0065b0    program     static D:\Projects\EggBot1-GH\EBB_firmware\app.X\source\UBW.c
                  __pa_44   0x0035d0    program     static D:\Projects\EggBot1-GH\EBB_firmware\app.X\source\ebb.c
                  __pa_45   0x0075cc    program     static D:\Projects\EggBot1-GH\EBB_firmware\Microchip\USB\usb_device.c
                  __pa_45   0x0065ba    program     static D:\Projects\EggBot1-GH\EBB_firmware\app.X\source\UBW.c
                  __pa_45   0x0035e6    program     static D:\Projects\EggBot1-GH\EBB_firmware\app.X\source\ebb.c
                  __pa_46   0x0075d6    program     static D:\Projects\EggBot1-GH\EBB_firmware\Microchip\USB\usb_device.c
                  __pa_46   0x0065c6    program     static D:\Projects\EggBot1-GH\EBB_firmware\app.X\source\UBW.c
                  __pa_46   0x0035fa    program     static D:\Projects\EggBot1-GH\EBB_firmware\app.X\source\ebb.c
                  __pa_47   0x00360c    program     static D:\Projects\EggBot1-GH\EBB_firmware\app.X\source\ebb.c
                  __pa_47   0x0065d2    program     static D:\Projects\EggBot1-GH\EBB_firmware\app.X\source\UBW.c
                  __pa_48   0x0065dc    program     static D:\Projects\EggBot1-GH\EBB_firmware\app.X\source\UBW.c
                  __pa_48   0x00361e    program     static D:\Projects\EggBot1-GH\EBB_firmware\app.X\source\ebb.c
                  __pa_49   0x0065ea    program     static D:\Projects\EggBot1-GH\EBB_firmware\app.X\source\UBW.c
                  __pa_49   0x003630    program     static D:\Projects\EggBot1-GH\EBB_firmware\app.X\source\ebb.c
                   __pa_5   0x0085ce    program     static D:\Projects\EggBot1-GH\EBB_firmware\Microchip\USB\CDC Device Driver\usb_function_cdc.c
                   __pa_5   0x0073cc    program     static D:\Projects\EggBot1-GH\EBB_firmware\Microchip\USB\usb_device.c
                   __pa_5   0x0063b8    program     static D:\Projects\EggBot1-GH\EBB_firmware\app.X\source\UBW.c
                   __pa_5   0x008214    program     static D:\Projects\EggBot1-GH\EBB_firmware\app.X\source\RCServo2.c
                   __pa_5   0x0087ee    program     static D:\Projects\EggBot1-GH\EBB_firmware\app.X\source\ebb_print.c
                   __pa_5   0x0032ac    program     static D:\Projects\EggBot1-GH\EBB_firmware\app.X\source\ebb.c
                  __pa_50   0x0065f8    program     static D:\Projects\EggBot1-GH\EBB_firmware\app.X\source\UBW.c
                  __pa_50   0x003642    program     static D:\Projects\EggBot1-GH\EBB_firmware\app.X\source\ebb.c
                  __pa_51   0x003654    program     static D:\Projects\EggBot1-GH\EBB_firmware\app.X\source\ebb.c
                  __pa_51   0x006606    program     static D:\Projects\EggBot1-GH\EBB_firmware\app.X\source\UBW.c
                  __pa_52   0x003660    program     static D:\Projects\EggBot1-GH\EBB_firmware\app.X\source\ebb.c
                  __pa_52   0x006614    program     static D:\Projects\EggBot1-GH\EBB_firmware\app.X\source\UBW.c
                  __pa_53   0x006622    program     static D:\Projects\EggBot1-GH\EBB_firmware\app.X\source\UBW.c
                  __pa_53   0x003666    program     static D:\Projects\EggBot1-GH\EBB_firmware\app.X\source\ebb.c
                  __pa_54   0x00367e    program     static D:\Projects\EggBot1-GH\EBB_firmware\app.X\source\ebb.c
                  __pa_54   0x006630    program     static D:\Projects\EggBot1-GH\EBB_firmware\app.X\source\UBW.c
                  __pa_55   0x00663a    program     static D:\Projects\EggBot1-GH\EBB_firmware\app.X\source\UBW.c
                  __pa_55   0x00368e    program     static D:\Projects\EggBot1-GH\EBB_firmware\app.X\source\ebb.c
                  __pa_56   0x00369e    program     static D:\Projects\EggBot1-GH\EBB_firmware\app.X\source\ebb.c
                  __pa_56   0x006644    program     static D:\Projects\EggBot1-GH\EBB_firmware\app.X\source\UBW.c
                  __pa_57   0x0036a8    program     static D:\Projects\EggBot1-GH\EBB_firmware\app.X\source\ebb.c
                  __pa_57   0x00664e    program     static D:\Projects\EggBot1-GH\EBB_firmware\app.X\source\UBW.c
                  __pa_58   0x0036ae    program     static D:\Projects\EggBot1-GH\EBB_firmware\app.X\source\ebb.c
                  __pa_58   0x006656    program     static D:\Projects\EggBot1-GH\EBB_firmware\app.X\source\UBW.c
                  __pa_59   0x0036b8    program     static D:\Projects\EggBot1-GH\EBB_firmware\app.X\source\ebb.c
                  __pa_59   0x00665e    program     static D:\Projects\EggBot1-GH\EBB_firmware\app.X\source\UBW.c
                   __pa_6   0x0087fa    program     static D:\Projects\EggBot1-GH\EBB_firmware\app.X\source\ebb_print.c
                   __pa_6   0x0063c0    program     static D:\Projects\EggBot1-GH\EBB_firmware\app.X\source\UBW.c
                   __pa_6   0x008220    program     static D:\Projects\EggBot1-GH\EBB_firmware\app.X\source\RCServo2.c
                   __pa_6   0x0085d6    program     static D:\Projects\EggBot1-GH\EBB_firmware\Microchip\USB\CDC Device Driver\usb_function_cdc.c
                   __pa_6   0x0073d6    program     static D:\Projects\EggBot1-GH\EBB_firmware\Microchip\USB\usb_device.c
                   __pa_6   0x0032b2    program     static D:\Projects\EggBot1-GH\EBB_firmware\app.X\source\ebb.c
                  __pa_60   0x0036c2    program     static D:\Projects\EggBot1-GH\EBB_firmware\app.X\source\ebb.c
                  __pa_60   0x00666c    program     static D:\Projects\EggBot1-GH\EBB_firmware\app.X\source\UBW.c
                  __pa_61   0x0036ce    program     static D:\Projects\EggBot1-GH\EBB_firmware\app.X\source\ebb.c
                  __pa_61   0x006676    program     static D:\Projects\EggBot1-GH\EBB_firmware\app.X\source\UBW.c
                  __pa_62   0x00667c    program     static D:\Projects\EggBot1-GH\EBB_firmware\app.X\source\UBW.c
                  __pa_62   0x0036da    program     static D:\Projects\EggBot1-GH\EBB_firmware\app.X\source\ebb.c
                  __pa_63   0x006682    program     static D:\Projects\EggBot1-GH\EBB_firmware\app.X\source\UBW.c
                  __pa_63   0x0036f0    program     static D:\Projects\EggBot1-GH\EBB_firmware\app.X\source\ebb.c
                  __pa_64   0x00669c    program     static D:\Projects\EggBot1-GH\EBB_firmware\app.X\source\UBW.c
                  __pa_64   0x0036f8    program     static D:\Projects\EggBot1-GH\EBB_firmware\app.X\source\ebb.c
                  __pa_65   0x003706    program     static D:\Projects\EggBot1-GH\EBB_firmware\app.X\source\ebb.c
                  __pa_65   0x0066a6    program     static D:\Projects\EggBot1-GH\EBB_firmware\app.X\source\UBW.c
                  __pa_66   0x003710    program     static D:\Projects\EggBot1-GH\EBB_firmware\app.X\source\ebb.c
                  __pa_66   0x0066ae    program     static D:\Projects\EggBot1-GH\EBB_firmware\app.X\source\UBW.c
                  __pa_67   0x00371a    program     static D:\Projects\EggBot1-GH\EBB_firmware\app.X\source\ebb.c
                  __pa_67   0x0066b4    program     static D:\Projects\EggBot1-GH\EBB_firmware\app.X\source\UBW.c
                  __pa_68   0x00372e    program     static D:\Projects\EggBot1-GH\EBB_firmware\app.X\source\ebb.c
                  __pa_68   0x0066be    program     static D:\Projects\EggBot1-GH\EBB_firmware\app.X\source\UBW.c
                  __pa_69   0x0066ca    program     static D:\Projects\EggBot1-GH\EBB_firmware\app.X\source\UBW.c
                  __pa_69   0x003740    program     static D:\Projects\EggBot1-GH\EBB_firmware\app.X\source\ebb.c
                   __pa_7   0x00822a    program     static D:\Projects\EggBot1-GH\EBB_firmware\app.X\source\RCServo2.c
                   __pa_7   0x00880a    program     static D:\Projects\EggBot1-GH\EBB_firmware\app.X\source\ebb_print.c
                   __pa_7   0x0063ce    program     static D:\Projects\EggBot1-GH\EBB_firmware\app.X\source\UBW.c
                   __pa_7   0x0085e4    program     static D:\Projects\EggBot1-GH\EBB_firmware\Microchip\USB\CDC Device Driver\usb_function_cdc.c
                   __pa_7   0x0073de    program     static D:\Projects\EggBot1-GH\EBB_firmware\Microchip\USB\usb_device.c
                   __pa_7   0x0032d8    program     static D:\Projects\EggBot1-GH\EBB_firmware\app.X\source\ebb.c
                  __pa_70   0x0066d4    program     static D:\Projects\EggBot1-GH\EBB_firmware\app.X\source\UBW.c
                  __pa_70   0x003752    program     static D:\Projects\EggBot1-GH\EBB_firmware\app.X\source\ebb.c
                  __pa_71   0x0066ea    program     static D:\Projects\EggBot1-GH\EBB_firmware\app.X\source\UBW.c
                  __pa_71   0x003764    program     static D:\Projects\EggBot1-GH\EBB_firmware\app.X\source\ebb.c
                  __pa_72   0x0066f8    program     static D:\Projects\EggBot1-GH\EBB_firmware\app.X\source\UBW.c
                  __pa_72   0x003776    program     static D:\Projects\EggBot1-GH\EBB_firmware\app.X\source\ebb.c
                  __pa_73   0x00670a    program     static D:\Projects\EggBot1-GH\EBB_firmware\app.X\source\UBW.c
                  __pa_73   0x003788    program     static D:\Projects\EggBot1-GH\EBB_firmware\app.X\source\ebb.c
                  __pa_74   0x006710    program     static D:\Projects\EggBot1-GH\EBB_firmware\app.X\source\UBW.c
                  __pa_74   0x00379a    program     static D:\Projects\EggBot1-GH\EBB_firmware\app.X\source\ebb.c
                  __pa_75   0x006720    program     static D:\Projects\EggBot1-GH\EBB_firmware\app.X\source\UBW.c
                  __pa_75   0x0037ac    program     static D:\Projects\EggBot1-GH\EBB_firmware\app.X\source\ebb.c
                  __pa_76   0x0037b8    program     static D:\Projects\EggBot1-GH\EBB_firmware\app.X\source\ebb.c
                  __pa_76   0x006730    program     static D:\Projects\EggBot1-GH\EBB_firmware\app.X\source\UBW.c
                  __pa_77   0x00673a    program     static D:\Projects\EggBot1-GH\EBB_firmware\app.X\source\UBW.c
                  __pa_77   0x0037c4    program     static D:\Projects\EggBot1-GH\EBB_firmware\app.X\source\ebb.c
                  __pa_78   0x006744    program     static D:\Projects\EggBot1-GH\EBB_firmware\app.X\source\UBW.c
                  __pa_78   0x0037ca    program     static D:\Projects\EggBot1-GH\EBB_firmware\app.X\source\ebb.c
                  __pa_79   0x0037d0    program     static D:\Projects\EggBot1-GH\EBB_firmware\app.X\source\ebb.c
                  __pa_79   0x00674c    program     static D:\Projects\EggBot1-GH\EBB_firmware\app.X\source\UBW.c
                   __pa_8   0x008818    program     static D:\Projects\EggBot1-GH\EBB_firmware\app.X\source\ebb_print.c
                   __pa_8   0x0063d8    program     static D:\Projects\EggBot1-GH\EBB_firmware\app.X\source\UBW.c
                   __pa_8   0x0032e4    program     static D:\Projects\EggBot1-GH\EBB_firmware\app.X\source\ebb.c
                   __pa_8   0x0085f2    program     static D:\Projects\EggBot1-GH\EBB_firmware\Microchip\USB\CDC Device Driver\usb_function_cdc.c
                   __pa_8   0x008232    program     static D:\Projects\EggBot1-GH\EBB_firmware\app.X\source\RCServo2.c
                   __pa_8   0x0073ee    program     static D:\Projects\EggBot1-GH\EBB_firmware\Microchip\USB\usb_device.c
                  __pa_80   0x006752    program     static D:\Projects\EggBot1-GH\EBB_firmware\app.X\source\UBW.c
                  __pa_80   0x0037d6    program     static D:\Projects\EggBot1-GH\EBB_firmware\app.X\source\ebb.c
                  __pa_81   0x0037e2    program     static D:\Projects\EggBot1-GH\EBB_firmware\app.X\source\ebb.c
                  __pa_81   0x00675e    program     static D:\Projects\EggBot1-GH\EBB_firmware\app.X\source\UBW.c
                  __pa_82   0x00676c    program     static D:\Projects\EggBot1-GH\EBB_firmware\app.X\source\UBW.c
                  __pa_82   0x0037ec    program     static D:\Projects\EggBot1-GH\EBB_firmware\app.X\source\ebb.c
                  __pa_83   0x00677a    program     static D:\Projects\EggBot1-GH\EBB_firmware\app.X\source\UBW.c
                  __pa_83   0x0037f6    program     static D:\Projects\EggBot1-GH\EBB_firmware\app.X\source\ebb.c
                  __pa_84   0x006786    program     static D:\Projects\EggBot1-GH\EBB_firmware\app.X\source\UBW.c
                  __pa_84   0x003800    program     static D:\Projects\EggBot1-GH\EBB_firmware\app.X\source\ebb.c
                  __pa_85   0x00380a    program     static D:\Projects\EggBot1-GH\EBB_firmware\app.X\source\ebb.c
                  __pa_85   0x006794    program     static D:\Projects\EggBot1-GH\EBB_firmware\app.X\source\UBW.c
                  __pa_86   0x00381a    program     static D:\Projects\EggBot1-GH\EBB_firmware\app.X\source\ebb.c
                  __pa_86   0x0067a0    program     static D:\Projects\EggBot1-GH\EBB_firmware\app.X\source\UBW.c
                  __pa_87   0x00382a    program     static D:\Projects\EggBot1-GH\EBB_firmware\app.X\source\ebb.c
                  __pa_87   0x0067aa    program     static D:\Projects\EggBot1-GH\EBB_firmware\app.X\source\UBW.c
                  __pa_88   0x00383a    program     static D:\Projects\EggBot1-GH\EBB_firmware\app.X\source\ebb.c
                  __pa_88   0x0067b8    program     static D:\Projects\EggBot1-GH\EBB_firmware\app.X\source\UBW.c
                  __pa_89   0x003840    program     static D:\Projects\EggBot1-GH\EBB_firmware\app.X\source\ebb.c
                  __pa_89   0x0067c4    program     static D:\Projects\EggBot1-GH\EBB_firmware\app.X\source\UBW.c
                   __pa_9   0x0085fc    program     static D:\Projects\EggBot1-GH\EBB_firmware\Microchip\USB\CDC Device Driver\usb_function_cdc.c
                   __pa_9   0x0073f8    program     static D:\Projects\EggBot1-GH\EBB_firmware\Microchip\USB\usb_device.c
                   __pa_9   0x008822    program     static D:\Projects\EggBot1-GH\EBB_firmware\app.X\source\ebb_print.c
                   __pa_9   0x0032ee    program     static D:\Projects\EggBot1-GH\EBB_firmware\app.X\source\ebb.c
                   __pa_9   0x00823a    program     static D:\Projects\EggBot1-GH\EBB_firmware\app.X\source\RCServo2.c
                   __pa_9   0x0063e0    program     static D:\Projects\EggBot1-GH\EBB_firmware\app.X\source\UBW.c
                  __pa_90   0x0067d0    program     static D:\Projects\EggBot1-GH\EBB_firmware\app.X\source\UBW.c
                  __pa_90   0x003850    program     static D:\Projects\EggBot1-GH\EBB_firmware\app.X\source\ebb.c
                  __pa_91   0x0067da    program     static D:\Projects\EggBot1-GH\EBB_firmware\app.X\source\UBW.c
                  __pa_91   0x00385e    program     static D:\Projects\EggBot1-GH\EBB_firmware\app.X\source\ebb.c
                  __pa_92   0x0067e4    program     static D:\Projects\EggBot1-GH\EBB_firmware\app.X\source\UBW.c
                  __pa_92   0x00386c    program     static D:\Projects\EggBot1-GH\EBB_firmware\app.X\source\ebb.c
                  __pa_93   0x0067ee    program     static D:\Projects\EggBot1-GH\EBB_firmware\app.X\source\UBW.c
                  __pa_93   0x00387a    program     static D:\Projects\EggBot1-GH\EBB_firmware\app.X\source\ebb.c
                  __pa_94   0x003888    program     static D:\Projects\EggBot1-GH\EBB_firmware\app.X\source\ebb.c
                  __pa_94   0x0067f6    program     static D:\Projects\EggBot1-GH\EBB_firmware\app.X\source\UBW.c
                  __pa_95   0x003896    program     static D:\Projects\EggBot1-GH\EBB_firmware\app.X\source\ebb.c
                  __pa_95   0x0067fe    program     static D:\Projects\EggBot1-GH\EBB_firmware\app.X\source\UBW.c
                  __pa_96   0x006806    program     static D:\Projects\EggBot1-GH\EBB_firmware\app.X\source\UBW.c
                  __pa_96   0x0038a0    program     static D:\Projects\EggBot1-GH\EBB_firmware\app.X\source\ebb.c
                  __pa_97   0x006814    program     static D:\Projects\EggBot1-GH\EBB_firmware\app.X\source\UBW.c
                  __pa_97   0x0038aa    program     static D:\Projects\EggBot1-GH\EBB_firmware\app.X\source\ebb.c
                  __pa_98   0x006820    program     static D:\Projects\EggBot1-GH\EBB_firmware\app.X\source\UBW.c
                  __pa_98   0x0038b4    program     static D:\Projects\EggBot1-GH\EBB_firmware\app.X\source\ebb.c
                  __pa_99   0x0038be    program     static D:\Projects\EggBot1-GH\EBB_firmware\app.X\source\ebb.c
                  __pa_99   0x006826    program     static D:\Projects\EggBot1-GH\EBB_firmware\app.X\source\UBW.c
               __string_0   0x007cbc    program     static D:\Projects\EggBot1-GH\EBB_firmware\app.X\source\ebb.c
               __string_1   0x007e67    program     static D:\Projects\EggBot1-GH\EBB_firmware\app.X\source\UBW.c
               __string_1   0x007cb7    program     static D:\Projects\EggBot1-GH\EBB_firmware\app.X\source\ebb.c
              __string_10   0x007c81    program     static D:\Projects\EggBot1-GH\EBB_firmware\app.X\source\ebb.c
              __string_10   0x007d78    program     static D:\Projects\EggBot1-GH\EBB_firmware\app.X\source\UBW.c
              __string_11   0x007c76    program     static D:\Projects\EggBot1-GH\EBB_firmware\app.X\source\ebb.c
              __string_11   0x007d4f    program     static D:\Projects\EggBot1-GH\EBB_firmware\app.X\source\UBW.c
              __string_12   0x007c6b    program     static D:\Projects\EggBot1-GH\EBB_firmware\app.X\source\ebb.c
              __string_12   0x007d35    program     static D:\Projects\EggBot1-GH\EBB_firmware\app.X\source\UBW.c
              __string_13   0x007d33    program     static D:\Projects\EggBot1-GH\EBB_firmware\app.X\source\UBW.c
              __string_13   0x007c5f    program     static D:\Projects\EggBot1-GH\EBB_firmware\app.X\source\ebb.c
              __string_14   0x007d30    program     static D:\Projects\EggBot1-GH\EBB_firmware\app.X\source\UBW.c
              __string_14   0x007c3d    program     static D:\Projects\EggBot1-GH\EBB_firmware\app.X\source\ebb.c
              __string_15   0x007d2d    program     static D:\Projects\EggBot1-GH\EBB_firmware\app.X\source\UBW.c
              __string_15   0x007c37    program     static D:\Projects\EggBot1-GH\EBB_firmware\app.X\source\ebb.c
              __string_16   0x007d2a    program     static D:\Projects\EggBot1-GH\EBB_firmware\app.X\source\UBW.c
              __string_16   0x007c17    program     static D:\Projects\EggBot1-GH\EBB_firmware\app.X\source\ebb.c
              __string_17   0x007d22    program     static D:\Projects\EggBot1-GH\EBB_firmware\app.X\source\UBW.c
              __string_17   0x007be6    program     static D:\Projects\EggBot1-GH\EBB_firmware\app.X\source\ebb.c
              __string_18   0x007d1a    program     static D:\Projects\EggBot1-GH\EBB_firmware\app.X\source\UBW.c
              __string_18   0x007bba    program     static D:\Projects\EggBot1-GH\EBB_firmware\app.X\source\ebb.c
              __string_19   0x007b8c    program     static D:\Projects\EggBot1-GH\EBB_firmware\app.X\source\ebb.c
              __string_19   0x007d12    program     static D:\Projects\EggBot1-GH\EBB_firmware\app.X\source\UBW.c
               __string_2   0x007cb2    program     static D:\Projects\EggBot1-GH\EBB_firmware\app.X\source\ebb.c
               __string_2   0x007e63    program     static D:\Projects\EggBot1-GH\EBB_firmware\app.X\source\UBW.c
              __string_20   0x007b68    program     static D:\Projects\EggBot1-GH\EBB_firmware\app.X\source\ebb.c
              __string_20   0x007d0a    program     static D:\Projects\EggBot1-GH\EBB_firmware\app.X\source\UBW.c
              __string_21   0x007b3c    program     static D:\Projects\EggBot1-GH\EBB_firmware\app.X\source\ebb.c
              __string_21   0x007d02    program     static D:\Projects\EggBot1-GH\EBB_firmware\app.X\source\UBW.c
              __string_22   0x007b0e    program     static D:\Projects\EggBot1-GH\EBB_firmware\app.X\source\ebb.c
              __string_22   0x007cfa    program     static D:\Projects\EggBot1-GH\EBB_firmware\app.X\source\UBW.c
              __string_23   0x007aea    program     static D:\Projects\EggBot1-GH\EBB_firmware\app.X\source\ebb.c
              __string_23   0x007cf2    program     static D:\Projects\EggBot1-GH\EBB_firmware\app.X\source\UBW.c
              __string_24   0x007ae0    program     static D:\Projects\EggBot1-GH\EBB_firmware\app.X\source\ebb.c
              __string_24   0x007cea    program     static D:\Projects\EggBot1-GH\EBB_firmware\app.X\source\UBW.c
              __string_25   0x007cc8    program     static D:\Projects\EggBot1-GH\EBB_firmware\app.X\source\UBW.c
              __string_25   0x007ada    program     static D:\Projects\EggBot1-GH\EBB_firmware\app.X\source\ebb.c
              __string_26   0x007cc0    program     static D:\Projects\EggBot1-GH\EBB_firmware\app.X\source\UBW.c
              __string_26   0x007ad4    program     static D:\Projects\EggBot1-GH\EBB_firmware\app.X\source\ebb.c
              __string_27   0x007ab0    program     static D:\Projects\EggBot1-GH\EBB_firmware\app.X\source\ebb.c
              __string_28   0x007a8c    program     static D:\Projects\EggBot1-GH\EBB_firmware\app.X\source\ebb.c
              __string_29   0x007a68    program     static D:\Projects\EggBot1-GH\EBB_firmware\app.X\source\ebb.c
               __string_3   0x007e46    program     static D:\Projects\EggBot1-GH\EBB_firmware\app.X\source\UBW.c
               __string_3   0x007cad    program     static D:\Projects\EggBot1-GH\EBB_firmware\app.X\source\ebb.c
              __string_30   0x007a44    program     static D:\Projects\EggBot1-GH\EBB_firmware\app.X\source\ebb.c
               __string_4   0x007e2c    program     static D:\Projects\EggBot1-GH\EBB_firmware\app.X\source\UBW.c
               __string_4   0x007ca8    program     static D:\Projects\EggBot1-GH\EBB_firmware\app.X\source\ebb.c
               __string_5   0x007ca3    program     static D:\Projects\EggBot1-GH\EBB_firmware\app.X\source\ebb.c
               __string_5   0x007e12    program     static D:\Projects\EggBot1-GH\EBB_firmware\app.X\source\UBW.c
               __string_6   0x007c9e    program     static D:\Projects\EggBot1-GH\EBB_firmware\app.X\source\ebb.c
               __string_6   0x007df5    program     static D:\Projects\EggBot1-GH\EBB_firmware\app.X\source\UBW.c
               __string_7   0x007dd5    program     static D:\Projects\EggBot1-GH\EBB_firmware\app.X\source\UBW.c
               __string_7   0x007c99    program     static D:\Projects\EggBot1-GH\EBB_firmware\app.X\source\ebb.c
               __string_8   0x007dbd    program     static D:\Projects\EggBot1-GH\EBB_firmware\app.X\source\UBW.c
               __string_8   0x007c93    program     static D:\Projects\EggBot1-GH\EBB_firmware\app.X\source\ebb.c
               __string_9   0x007d9e    program     static D:\Projects\EggBot1-GH\EBB_firmware\app.X\source\UBW.c
               __string_9   0x007c8a    program     static D:\Projects\EggBot1-GH\EBB_firmware\app.X\source\ebb.c
             __tmplbl_148   0x0063d8    program     static                          
             __tmplbl_149   0x0063d8    program     static                          
             __tmplbl_161   0x0063d8    program     static                          
             __tmplbl_162   0x0063d8    program     static                          
             __tmplbl_163   0x0063d8    program     static                          
             __tmplbl_186   0x003326    program     static                          
             __tmplbl_187   0x003564    program     static                          
             __tmplbl_188   0x003564    program     static                          
             __tmplbl_189   0x003564    program     static                          
             __tmplbl_190   0x003564    program     static                          
             __tmplbl_197   0x003326    program     static                          
             __tmplbl_201   0x003326    program     static                          
             __tmplbl_202   0x003564    program     static                          
             __tmplbl_205   0x0063d8    program     static                          
             __tmplbl_206   0x0063d8    program     static                          
             __tmplbl_208   0x0063d8    program     static                          
             __tmplbl_209   0x003326    program     static                          
             __tmplbl_210   0x0063d8    program     static                          
             __tmplbl_211   0x0063d8    program     static                          
             __tmplbl_212   0x003326    program     static                          
             __tmplbl_212   0x0063d8    program     static                          
             __tmplbl_213   0x0063d8    program     static                          
             __tmplbl_214   0x0063d8    program     static                          
             __tmplbl_218   0x0063d8    program     static                          
             __tmplbl_219   0x0063d8    program     static                          
             __tmplbl_219   0x003326    program     static                          
             __tmplbl_220   0x0063d8    program     static                          
             __tmplbl_221   0x003326    program     static                          
             __tmplbl_224   0x0063d8    program     static                          
             __tmplbl_225   0x0063d8    program     static                          
             __tmplbl_229   0x0063d8    program     static                          
             __tmplbl_231   0x0063d8    program     static                          
              __tmplbl_24   0x0073d6    program     static                          
             __tmplbl_240   0x003b9e    program     static                          
             __tmplbl_244   0x003caa    program     static                          
             __tmplbl_245   0x003caa    program     static                          
             __tmplbl_246   0x003caa    program     static                          
             __tmplbl_247   0x003b9e    program     static                          
             __tmplbl_248   0x003ba6    program     static                          
             __tmplbl_249   0x003ba6    program     static                          
             __tmplbl_250   0x003bae    program     static                          
              __tmplbl_35   0x0073d6    program     static                          
              __tmplbl_38   0x0073d6    program     static                          
              __tmplbl_39   0x0073d6    program     static                          
              __tmplbl_40   0x0073d6    program     static                          
              __tmplbl_80   0x004d82    program     static                          
              __tmplbl_81   0x004d6c    program     static                          
              __tmplbl_82   0x004dca    program     static                          
              __tmplbl_83   0x004db4    program     static                          
            __zero_memory   0x008ca4    program     extern E:\3.46\pic18-lt\cxx-framework\src\traditional\proc\p18f46j50.asm
                _do_cinit   0x008e68    program     extern C:\MCC18\src\traditional\startup\c018i.c
                   _false   0x009114    program     static                          
                   _reset   0x001000    program     extern D:\Projects\EggBot1-GH\EBB_firmware\app.X\source\main.c
                 _startup   0x0091c6    program     extern C:\MCC18\src\traditional\startup\c018i.c
               baud1USART   0x0091a4    program     extern E:\3.46\pic18-lt\cxx-framework\src\pmc_common\USART\u1baud.c
   check_and_send_TX_data   0x0045f4    program     extern D:\Projects\EggBot1-GH\EBB_firmware\app.X\source\UBW.c
         check_high_water   0x004182    program     extern D:\Projects\EggBot1-GH\EBB_firmware\app.X\source\UBW.c
       clear_StepCounters   0x00315e    program     static D:\Projects\EggBot1-GH\EBB_firmware\app.X\source\ebb.c
  clear_parmaeter_globals   0x0017ec    program     static D:\Projects\EggBot1-GH\EBB_firmware\app.X\source\ebb.c
                compare_l   0x008cba    program     static E:\3.46\pic18-lt\cxx-framework\src\traditional\proc\p18f46j50.asm
        configDescriptor1   0x00908c    program     extern D:\Projects\EggBot1-GH\EBB_firmware\app.X\source\usb_descriptors.c
                copy_loop   0x008eda    program     static                          
            copy_one_byte   0x008ee0    program     static                          
               device_dsc   0x00907a    program     extern D:\Projects\EggBot1-GH\EBB_firmware\app.X\source\usb_descriptors.c
                     done   0x008f04    program     static                          
             done_copying   0x008eee    program     static                          
                ebb_print   0x008628    program     extern D:\Projects\EggBot1-GH\EBB_firmware\app.X\source\ebb_print.c
            ebb_print_hex   0x008662    program     extern D:\Projects\EggBot1-GH\EBB_firmware\app.X\source\ebb_print.c
            ebb_print_int   0x00870e    program     extern D:\Projects\EggBot1-GH\EBB_firmware\app.X\source\ebb_print.c
            ebb_print_ram   0x00864a    program     extern D:\Projects\EggBot1-GH\EBB_firmware\app.X\source\ebb_print.c
           ebb_print_uint   0x0086d6    program     extern D:\Projects\EggBot1-GH\EBB_firmware\app.X\source\ebb_print.c
                 ebb_putc   0x004596    program     extern D:\Projects\EggBot1-GH\EBB_firmware\app.X\source\UBW.c
            extract_digit   0x006122    program     extern D:\Projects\EggBot1-GH\EBB_firmware\app.X\source\UBW.c
           extract_number   0x005eb0    program     extern D:\Projects\EggBot1-GH\EBB_firmware\app.X\source\UBW.c
           extract_string   0x005e3a    program     extern D:\Projects\EggBot1-GH\EBB_firmware\app.X\source\UBW.c
               fill_stack   0x004104    program     extern D:\Projects\EggBot1-GH\EBB_firmware\app.X\source\UBW.c
             getsUSBUSART   0x00837c    program     extern D:\Projects\EggBot1-GH\EBB_firmware\Microchip\USB\CDC Device Driver\usb_function_cdc.c
                 high_ISR   0x001050    program     extern D:\Projects\EggBot1-GH\EBB_firmware\app.X\source\ebb.c
                 jANotInf   0x007632    program     static E:\3.46\pic18-lt\cxx-framework\src\traditional\math\divFP.asm
                 jANotInf   0x0076d8    program     static E:\3.46\pic18-lt\cxx-framework\src\traditional\math\mulFP.asm
                jANotZero   0x007646    program     static E:\3.46\pic18-lt\cxx-framework\src\traditional\math\divFP.asm
                  jAisNeg   0x00790a    program     static E:\3.46\pic18-lt\cxx-framework\src\traditional\math\compFP.asm
              jBothFinite   0x0076e6    program     static E:\3.46\pic18-lt\cxx-framework\src\traditional\math\mulFP.asm
             jBothNotZero   0x0076f2    program     static E:\3.46\pic18-lt\cxx-framework\src\traditional\math\mulFP.asm
             jBothNotZero   0x0078ac    program     static E:\3.46\pic18-lt\cxx-framework\src\traditional\math\compFP.asm
                      jEQ   0x0078c8    program     static E:\3.46\pic18-lt\cxx-framework\src\traditional\math\compFP.asm
                     jEnd   0x00914c    program     static E:\3.46\pic18-lt\cxx-framework\src\traditional\stdclib\memset.asm
                    jExch   0x0078d4    program     static E:\3.46\pic18-lt\cxx-framework\src\traditional\math\compFP.asm
                    jExit   0x007868    program     static E:\3.46\pic18-lt\cxx-framework\src\traditional\math\castFP32.asm
                   jExpEQ   0x00791a    program     static E:\3.46\pic18-lt\cxx-framework\src\traditional\math\compFP.asm
                   jFinal   0x0078fe    program     static E:\3.46\pic18-lt\cxx-framework\src\traditional\math\compFP.asm
                jHaveZero   0x0076ee    program     static E:\3.46\pic18-lt\cxx-framework\src\traditional\math\mulFP.asm
                jI2F32Beg   0x0075fa    program     static E:\3.46\pic18-lt\cxx-framework\src\traditional\math\cast32FP.asm
                    jLoop   0x00766e    program     static E:\3.46\pic18-lt\cxx-framework\src\traditional\math\divFP.asm
                    jLoop   0x00783c    program     static E:\3.46\pic18-lt\cxx-framework\src\traditional\math\castFP32.asm
                    jLoop   0x00912e    program     static E:\3.46\pic18-lt\cxx-framework\src\traditional\stdclib\memset.asm
                jLoopExit   0x007850    program     static E:\3.46\pic18-lt\cxx-framework\src\traditional\math\castFP32.asm
                     jMax   0x00780c    program     static E:\3.46\pic18-lt\cxx-framework\src\traditional\math\castFP32.asm
                  jMaxNeg   0x00781e    program     static E:\3.46\pic18-lt\cxx-framework\src\traditional\math\castFP32.asm
                  jMaxPos   0x007810    program     static E:\3.46\pic18-lt\cxx-framework\src\traditional\math\castFP32.asm
                      jNE   0x0078cc    program     static E:\3.46\pic18-lt\cxx-framework\src\traditional\math\compFP.asm
                    jNext   0x007694    program     static E:\3.46\pic18-lt\cxx-framework\src\traditional\math\divFP.asm
                jNoAdjust   0x007692    program     static E:\3.46\pic18-lt\cxx-framework\src\traditional\math\divFP.asm
                  jNoExch   0x0078f4    program     static E:\3.46\pic18-lt\cxx-framework\src\traditional\math\compFP.asm
                 jNoMatch   0x0091a2    program     static E:\3.46\pic18-lt\cxx-framework\src\traditional\stdclib\toupper.asm
                  jNotInf   0x00782a    program     static E:\3.46\pic18-lt\cxx-framework\src\traditional\math\castFP32.asm
                  jPkLoop   0x00797e    program     static E:\3.46\pic18-lt\cxx-framework\src\traditional\math\packFP.asm
             jPkRoundDone   0x0079c8    program     static E:\3.46\pic18-lt\cxx-framework\src\traditional\math\packFP.asm
               jPkRoundIt   0x0079b0    program     static E:\3.46\pic18-lt\cxx-framework\src\traditional\math\packFP.asm
             jPkShiftDone   0x00799a    program     static E:\3.46\pic18-lt\cxx-framework\src\traditional\math\packFP.asm
           jReturnPosInf0   0x007954    program     static E:\3.46\pic18-lt\cxx-framework\src\traditional\math\packFP.asm
                  jRotate   0x007926    program     static E:\3.46\pic18-lt\cxx-framework\src\traditional\math\compFP.asm
                   jShift   0x007910    program     static E:\3.46\pic18-lt\cxx-framework\src\traditional\math\compFP.asm
              jSignedZero   0x00763c    program     static E:\3.46\pic18-lt\cxx-framework\src\traditional\math\divFP.asm
                 jSignsEQ   0x0078b0    program     static E:\3.46\pic18-lt\cxx-framework\src\traditional\math\compFP.asm
                  jUnpkA1   0x0079f2    program     static E:\3.46\pic18-lt\cxx-framework\src\traditional\math\UnpackFP.asm
                  jUnpkA2   0x007a0a    program     static E:\3.46\pic18-lt\cxx-framework\src\traditional\math\UnpackFP.asm
                 jUnpkANZ   0x007a00    program     static E:\3.46\pic18-lt\cxx-framework\src\traditional\math\UnpackFP.asm
                  jUnpkB1   0x007a22    program     static E:\3.46\pic18-lt\cxx-framework\src\traditional\math\UnpackFP.asm
                  jUnpkB2   0x007a3a    program     static E:\3.46\pic18-lt\cxx-framework\src\traditional\math\UnpackFP.asm
                 jUnpkBNZ   0x007a30    program     static E:\3.46\pic18-lt\cxx-framework\src\traditional\math\UnpackFP.asm
                 jUnpkNaN   0x007a14    program     static E:\3.46\pic18-lt\cxx-framework\src\traditional\math\UnpackFP.asm
                   jWr123   0x007816    program     static E:\3.46\pic18-lt\cxx-framework\src\traditional\math\castFP32.asm
                  jWrZ123   0x007826    program     static E:\3.46\pic18-lt\cxx-framework\src\traditional\math\castFP32.asm
                    jZero   0x007824    program     static E:\3.46\pic18-lt\cxx-framework\src\traditional\math\castFP32.asm
               jZero1and2   0x007958    program     static E:\3.46\pic18-lt\cxx-framework\src\traditional\math\packFP.asm
                     loop   0x0091d6    program     static                          
                     loop   0x0090e0    program     static                          
                   loop_h   0x008cb2    program     static E:\3.46\pic18-lt\cxx-framework\src\traditional\proc\p18f46j50.asm
                   loop_l   0x008cbc    program     static E:\3.46\pic18-lt\cxx-framework\src\traditional\proc\p18f46j50.asm
                  low_ISR   0x003d8e    program     extern D:\Projects\EggBot1-GH\EBB_firmware\app.X\source\UBW.c
                     main   0x008a36    program     extern D:\Projects\EggBot1-GH\EBB_firmware\app.X\source\main.c
                   memset   0x00911a    program     extern E:\3.46\pic18-lt\cxx-framework\src\traditional\stdclib\memset.asm
          parse_AC_packet   0x005590    program     extern D:\Projects\EggBot1-GH\EBB_firmware\app.X\source\UBW.c
           parse_A_packet   0x00566a    program     extern D:\Projects\EggBot1-GH\EBB_firmware\app.X\source\UBW.c
          parse_BL_packet   0x005b2c    program     extern D:\Projects\EggBot1-GH\EBB_firmware\app.X\source\UBW.c
          parse_CK_packet   0x005bd0    program     extern D:\Projects\EggBot1-GH\EBB_firmware\app.X\source\UBW.c
          parse_CM_packet   0x002124    program     extern D:\Projects\EggBot1-GH\EBB_firmware\app.X\source\ebb.c
          parse_CS_packet   0x003166    program     extern D:\Projects\EggBot1-GH\EBB_firmware\app.X\source\ebb.c
          parse_CU_packet   0x004cf2    program     extern D:\Projects\EggBot1-GH\EBB_firmware\app.X\source\UBW.c
           parse_C_packet   0x005464    program     extern D:\Projects\EggBot1-GH\EBB_firmware\app.X\source\UBW.c
          parse_EM_packet   0x002c7a    program     extern D:\Projects\EggBot1-GH\EBB_firmware\app.X\source\ebb.c
          parse_ES_packet   0x0029bc    program     extern D:\Projects\EggBot1-GH\EBB_firmware\app.X\source\ebb.c
          parse_HM_packet   0x002358    program     extern D:\Projects\EggBot1-GH\EBB_firmware\app.X\source\ebb.c
           parse_I_packet   0x005630    program     extern D:\Projects\EggBot1-GH\EBB_firmware\app.X\source\UBW.c
          parse_L3_packet   0x001bd6    program     extern D:\Projects\EggBot1-GH\EBB_firmware\app.X\source\ebb.c
          parse_LM_packet   0x001b6a    program     extern D:\Projects\EggBot1-GH\EBB_firmware\app.X\source\ebb.c
          parse_LT_packet   0x001c82    program     extern D:\Projects\EggBot1-GH\EBB_firmware\app.X\source\ebb.c
          parse_MR_packet   0x005764    program     extern D:\Projects\EggBot1-GH\EBB_firmware\app.X\source\UBW.c
          parse_MW_packet   0x00572e    program     extern D:\Projects\EggBot1-GH\EBB_firmware\app.X\source\UBW.c
          parse_ND_packet   0x002d12    program     extern D:\Projects\EggBot1-GH\EBB_firmware\app.X\source\ebb.c
          parse_NI_packet   0x002cec    program     extern D:\Projects\EggBot1-GH\EBB_firmware\app.X\source\ebb.c
           parse_O_packet   0x0055c4    program     extern D:\Projects\EggBot1-GH\EBB_firmware\app.X\source\UBW.c
          parse_PD_packet   0x0057a2    program     extern D:\Projects\EggBot1-GH\EBB_firmware\app.X\source\UBW.c
          parse_PI_packet   0x0058da    program     extern D:\Projects\EggBot1-GH\EBB_firmware\app.X\source\UBW.c
          parse_PO_packet   0x0059c4    program     extern D:\Projects\EggBot1-GH\EBB_firmware\app.X\source\UBW.c
          parse_QB_packet   0x002e10    program     extern D:\Projects\EggBot1-GH\EBB_firmware\app.X\source\ebb.c
          parse_QC_packet   0x002e38    program     extern D:\Projects\EggBot1-GH\EBB_firmware\app.X\source\ebb.c
          parse_QE_packet   0x002a88    program     extern D:\Projects\EggBot1-GH\EBB_firmware\app.X\source\ebb.c
          parse_QG_packet   0x002e64    program     extern D:\Projects\EggBot1-GH\EBB_firmware\app.X\source\ebb.c
          parse_QL_packet   0x002dc8    program     extern D:\Projects\EggBot1-GH\EBB_firmware\app.X\source\ebb.c
          parse_QM_packet   0x00308e    program     extern D:\Projects\EggBot1-GH\EBB_firmware\app.X\source\ebb.c
          parse_QN_packet   0x002d6a    program     extern D:\Projects\EggBot1-GH\EBB_firmware\app.X\source\ebb.c
          parse_QP_packet   0x002a58    program     extern D:\Projects\EggBot1-GH\EBB_firmware\app.X\source\ebb.c
          parse_QR_packet   0x005b4a    program     extern D:\Projects\EggBot1-GH\EBB_firmware\app.X\source\UBW.c
          parse_QS_packet   0x0030fe    program     extern D:\Projects\EggBot1-GH\EBB_firmware\app.X\source\ebb.c
          parse_QT_packet   0x005dfa    program     extern D:\Projects\EggBot1-GH\EBB_firmware\app.X\source\UBW.c
          parse_QU_packet   0x005344    program     extern D:\Projects\EggBot1-GH\EBB_firmware\app.X\source\UBW.c
          parse_RB_packet   0x005b3c    program     extern D:\Projects\EggBot1-GH\EBB_firmware\app.X\source\UBW.c
           parse_R_packet   0x004ce4    program     extern D:\Projects\EggBot1-GH\EBB_firmware\app.X\source\UBW.c
          parse_SC_packet   0x0019e6    program     extern D:\Projects\EggBot1-GH\EBB_firmware\app.X\source\ebb.c
          parse_SE_packet   0x002ec6    program     extern D:\Projects\EggBot1-GH\EBB_firmware\app.X\source\ebb.c
          parse_SL_packet   0x002d8e    program     extern D:\Projects\EggBot1-GH\EBB_firmware\app.X\source\ebb.c
          parse_SM_packet   0x0020fc    program     extern D:\Projects\EggBot1-GH\EBB_firmware\app.X\source\ebb.c
          parse_SN_packet   0x002d30    program     extern D:\Projects\EggBot1-GH\EBB_firmware\app.X\source\ebb.c
          parse_SP_packet   0x002b98    program     extern D:\Projects\EggBot1-GH\EBB_firmware\app.X\source\ebb.c
          parse_SR_packet   0x005b6a    program     extern D:\Projects\EggBot1-GH\EBB_firmware\app.X\source\UBW.c
          parse_ST_packet   0x005d8e    program     extern D:\Projects\EggBot1-GH\EBB_firmware\app.X\source\UBW.c
          parse_T3_packet   0x001c4e    program     extern D:\Projects\EggBot1-GH\EBB_firmware\app.X\source\ebb.c
          parse_TP_packet   0x002b54    program     extern D:\Projects\EggBot1-GH\EBB_firmware\app.X\source\ebb.c
          parse_TR_packet   0x002436    program     extern D:\Projects\EggBot1-GH\EBB_firmware\app.X\source\ebb.c
           parse_V_packet   0x00565c    program     extern D:\Projects\EggBot1-GH\EBB_firmware\app.X\source\UBW.c
          parse_XM_packet   0x0025e6    program     extern D:\Projects\EggBot1-GH\EBB_firmware\app.X\source\ebb.c
             parse_packet   0x004640    program     extern D:\Projects\EggBot1-GH\EBB_firmware\app.X\source\UBW.c
populateDeviceStringWithName   0x005d08    program     extern D:\Projects\EggBot1-GH\EBB_firmware\app.X\source\UBW.c
                  pow2x16   0x0091e2    program     extern E:\3.46\pic18-lt\cxx-framework\src\traditional\math\pow2x16.c
            print_command   0x004c62    program     extern D:\Projects\EggBot1-GH\EBB_firmware\app.X\source\UBW.c
        print_line_ending   0x004c9e    program     extern D:\Projects\EggBot1-GH\EBB_firmware\app.X\source\UBW.c
             print_status   0x0061f0    program     extern D:\Projects\EggBot1-GH\EBB_firmware\app.X\source\UBW.c
               process_QM   0x003008    program     extern D:\Projects\EggBot1-GH\EBB_firmware\app.X\source\ebb.c
               process_SP   0x002c04    program     extern D:\Projects\EggBot1-GH\EBB_firmware\app.X\source\ebb.c
   process_low_level_move   0x001cbe    program     static D:\Projects\EggBot1-GH\EBB_firmware\app.X\source\ebb.c
process_simple_motor_move_fp   0x0027a6    program     static D:\Projects\EggBot1-GH\EBB_firmware\app.X\source\ebb.c
 process_simple_rate_move   0x002450    program     static D:\Projects\EggBot1-GH\EBB_firmware\app.X\source\ebb.c
              putUSBUSART   0x0083fa    program     extern D:\Projects\EggBot1-GH\EBB_firmware\Microchip\USB\CDC Device Driver\usb_function_cdc.c
            putrsUSBUSART   0x008452    program     extern D:\Projects\EggBot1-GH\EBB_firmware\Microchip\USB\CDC Device Driver\usb_function_cdc.c
             putsUSBUSART   0x008412    program     extern D:\Projects\EggBot1-GH\EBB_firmware\Microchip\USB\CDC Device Driver\usb_function_cdc.c
               st_version   0x008dbc    program     extern D:\Projects\EggBot1-GH\EBB_firmware\app.X\source\UBW.c
                     test   0x008e82    program     static                          
                  toupper   0x00917c    program     extern E:\3.46\pic18-lt\cxx-framework\src\traditional\stdclib\toupper.asm
               zero_block   0x008cb2    program     static E:\3.46\pic18-lt\cxx-framework\src\traditional\proc\p18f46j50.asm
                   ADCON0   0x000fc2       data     extern E:\3.46\pic18-lt\cxx-framework\src\traditional\proc\p18f46j50.asm
               ADCON0bits   0x000fc2       data     extern E:\3.46\pic18-lt\cxx-framework\src\traditional\proc\p18f46j50.asm
                   ADCON1   0x000fc1       data     extern E:\3.46\pic18-lt\cxx-framework\src\traditional\proc\p18f46j50.asm
               ADCON1bits   0x000fc1       data     extern E:\3.46\pic18-lt\cxx-framework\src\traditional\proc\p18f46j50.asm
                    ADRES   0x000fc3       data     extern E:\3.46\pic18-lt\cxx-framework\src\traditional\proc\p18f46j50.asm
                   ADRESH   0x000fc4       data     extern E:\3.46\pic18-lt\cxx-framework\src\traditional\proc\p18f46j50.asm
                   ADRESL   0x000fc3       data     extern E:\3.46\pic18-lt\cxx-framework\src\traditional\proc\p18f46j50.asm
                  ALRMCFG   0x000f91       data     extern E:\3.46\pic18-lt\cxx-framework\src\traditional\proc\p18f46j50.asm
              ALRMCFGbits   0x000f91       data     extern E:\3.46\pic18-lt\cxx-framework\src\traditional\proc\p18f46j50.asm
                  ALRMRPT   0x000f90       data     extern E:\3.46\pic18-lt\cxx-framework\src\traditional\proc\p18f46j50.asm
              ALRMRPTbits   0x000f90       data     extern E:\3.46\pic18-lt\cxx-framework\src\traditional\proc\p18f46j50.asm
                 ALRMVALH   0x000f8f       data     extern E:\3.46\pic18-lt\cxx-framework\src\traditional\proc\p18f46j50.asm
                 ALRMVALL   0x000f8e       data     extern E:\3.46\pic18-lt\cxx-framework\src\traditional\proc\p18f46j50.asm
                   ANCON0   0x000f48       data     extern E:\3.46\pic18-lt\cxx-framework\src\traditional\proc\p18f46j50.asm
               ANCON0bits   0x000f48       data     extern E:\3.46\pic18-lt\cxx-framework\src\traditional\proc\p18f46j50.asm
                   ANCON1   0x000f49       data     extern E:\3.46\pic18-lt\cxx-framework\src\traditional\proc\p18f46j50.asm
               ANCON1bits   0x000f49       data     extern E:\3.46\pic18-lt\cxx-framework\src\traditional\proc\p18f46j50.asm
                    ARG1H   0x000504       data     extern source\squareroot.s      
                    ARG1L   0x000505       data     extern source\squareroot.s      
                    ARG2H   0x000506       data     extern source\squareroot.s      
                    ARG2L   0x000507       data     extern source\squareroot.s      
                    ARGA0   0x000500       data     extern source\squareroot.s      
                    ARGA1   0x000501       data     extern source\squareroot.s      
                    ARGA2   0x000502       data     extern source\squareroot.s      
                    ARGA3   0x000503       data     extern source\squareroot.s      
            A_cur_channel   0x00009f       data     extern D:\Projects\EggBot1-GH\EBB_firmware\app.X\source\UBW.c
           A_tick_counter   0x00009d       data     extern D:\Projects\EggBot1-GH\EBB_firmware\app.X\source\UBW.c
                  AllDone   0x000000       data     static D:\Projects\EggBot1-GH\EBB_firmware\app.X\source\ebb.c
    AnalogEnabledChannels   0x0000a1       data     extern D:\Projects\EggBot1-GH\EBB_firmware\app.X\source\UBW.c
           AnalogInitiate   0x0000a0       data     extern D:\Projects\EggBot1-GH\EBB_firmware\app.X\source\UBW.c
               AxisActive   0x000002       data     static D:\Projects\EggBot1-GH\EBB_firmware\app.X\source\ebb.c
                  BAUDCON   0x000f7e       data     extern E:\3.46\pic18-lt\cxx-framework\src\traditional\proc\p18f46j50.asm
                 BAUDCON1   0x000f7e       data     extern E:\3.46\pic18-lt\cxx-framework\src\traditional\proc\p18f46j50.asm
             BAUDCON1bits   0x000f7e       data     extern E:\3.46\pic18-lt\cxx-framework\src\traditional\proc\p18f46j50.asm
                 BAUDCON2   0x000f7c       data     extern E:\3.46\pic18-lt\cxx-framework\src\traditional\proc\p18f46j50.asm
             BAUDCON2bits   0x000f7c       data     extern E:\3.46\pic18-lt\cxx-framework\src\traditional\proc\p18f46j50.asm
              BAUDCONbits   0x000f7e       data     extern E:\3.46\pic18-lt\cxx-framework\src\traditional\proc\p18f46j50.asm
                  BAUDCTL   0x000f7e       data     extern E:\3.46\pic18-lt\cxx-framework\src\traditional\proc\p18f46j50.asm
              BAUDCTLbits   0x000f7e       data     extern E:\3.46\pic18-lt\cxx-framework\src\traditional\proc\p18f46j50.asm
                      BDT   0x000400       data     extern D:\Projects\EggBot1-GH\EBB_firmware\Microchip\USB\usb_device.c
                  BITLOC0   0x000510       data     static source\squareroot.s      
                  BITLOC1   0x000511       data     static source\squareroot.s      
                      BSR   0x000fe0       data     extern E:\3.46\pic18-lt\cxx-framework\src\traditional\proc\p18f46j50.asm
              BaudRateGen   0x0005b0       data     extern D:\Projects\EggBot1-GH\EBB_firmware\Microchip\USB\CDC Device Driver\usb_function_cdc.c
       BothEP0OutUOWNsSet   0x0005e3       data     extern D:\Projects\EggBot1-GH\EBB_firmware\Microchip\USB\usb_device.c
             ButtonPushed   0x000007       data     static D:\Projects\EggBot1-GH\EBB_firmware\app.X\source\ebb.c
                  CCP1CON   0x000fba       data     extern E:\3.46\pic18-lt\cxx-framework\src\traditional\proc\p18f46j50.asm
              CCP1CONbits   0x000fba       data     extern E:\3.46\pic18-lt\cxx-framework\src\traditional\proc\p18f46j50.asm
                  CCP2CON   0x000fb4       data     extern E:\3.46\pic18-lt\cxx-framework\src\traditional\proc\p18f46j50.asm
              CCP2CONbits   0x000fb4       data     extern E:\3.46\pic18-lt\cxx-framework\src\traditional\proc\p18f46j50.asm
                    CCPR1   0x000fbb       data     extern E:\3.46\pic18-lt\cxx-framework\src\traditional\proc\p18f46j50.asm
                   CCPR1H   0x000fbc       data     extern E:\3.46\pic18-lt\cxx-framework\src\traditional\proc\p18f46j50.asm
                   CCPR1L   0x000fbb       data     extern E:\3.46\pic18-lt\cxx-framework\src\traditional\proc\p18f46j50.asm
                    CCPR2   0x000fb5       data     extern E:\3.46\pic18-lt\cxx-framework\src\traditional\proc\p18f46j50.asm
                   CCPR2H   0x000fb6       data     extern E:\3.46\pic18-lt\cxx-framework\src\traditional\proc\p18f46j50.asm
                   CCPR2L   0x000fb5       data     extern E:\3.46\pic18-lt\cxx-framework\src\traditional\proc\p18f46j50.asm
          CDCDataInHandle   0x0005ad       data     extern D:\Projects\EggBot1-GH\EBB_firmware\Microchip\USB\CDC Device Driver\usb_function_cdc.c
         CDCDataOutHandle   0x0005ab       data     extern D:\Projects\EggBot1-GH\EBB_firmware\Microchip\USB\CDC Device Driver\usb_function_cdc.c
                   CM1CON   0x000fd2       data     extern E:\3.46\pic18-lt\cxx-framework\src\traditional\proc\p18f46j50.asm
                  CM1CON1   0x000fd2       data     extern E:\3.46\pic18-lt\cxx-framework\src\traditional\proc\p18f46j50.asm
              CM1CON1bits   0x000fd2       data     extern E:\3.46\pic18-lt\cxx-framework\src\traditional\proc\p18f46j50.asm
               CM1CONbits   0x000fd2       data     extern E:\3.46\pic18-lt\cxx-framework\src\traditional\proc\p18f46j50.asm
                   CM2CON   0x000fd1       data     extern E:\3.46\pic18-lt\cxx-framework\src\traditional\proc\p18f46j50.asm
                  CM2CON1   0x000fd1       data     extern E:\3.46\pic18-lt\cxx-framework\src\traditional\proc\p18f46j50.asm
              CM2CON1bits   0x000fd1       data     extern E:\3.46\pic18-lt\cxx-framework\src\traditional\proc\p18f46j50.asm
               CM2CONbits   0x000fd1       data     extern E:\3.46\pic18-lt\cxx-framework\src\traditional\proc\p18f46j50.asm
                   CMSTAT   0x000f70       data     extern E:\3.46\pic18-lt\cxx-framework\src\traditional\proc\p18f46j50.asm
                 CMSTATUS   0x000f70       data     extern E:\3.46\pic18-lt\cxx-framework\src\traditional\proc\p18f46j50.asm
             CMSTATUSbits   0x000f70       data     extern E:\3.46\pic18-lt\cxx-framework\src\traditional\proc\p18f46j50.asm
               CMSTATbits   0x000f70       data     extern E:\3.46\pic18-lt\cxx-framework\src\traditional\proc\p18f46j50.asm
                 CTMUCONH   0x000fb3       data     extern E:\3.46\pic18-lt\cxx-framework\src\traditional\proc\p18f46j50.asm
             CTMUCONHbits   0x000fb3       data     extern E:\3.46\pic18-lt\cxx-framework\src\traditional\proc\p18f46j50.asm
                 CTMUCONL   0x000fb2       data     extern E:\3.46\pic18-lt\cxx-framework\src\traditional\proc\p18f46j50.asm
             CTMUCONLbits   0x000fb2       data     extern E:\3.46\pic18-lt\cxx-framework\src\traditional\proc\p18f46j50.asm
                 CTMUICON   0x000fb1       data     extern E:\3.46\pic18-lt\cxx-framework\src\traditional\proc\p18f46j50.asm
             CTMUICONbits   0x000fb1       data     extern E:\3.46\pic18-lt\cxx-framework\src\traditional\proc\p18f46j50.asm
                   CVRCON   0x000f53       data     extern E:\3.46\pic18-lt\cxx-framework\src\traditional\proc\p18f46j50.asm
               CVRCONbits   0x000f53       data     extern E:\3.46\pic18-lt\cxx-framework\src\traditional\proc\p18f46j50.asm
               ChannelBit   0x0000a3       data     extern D:\Projects\EggBot1-GH\EBB_firmware\app.X\source\UBW.c
              CommandFIFO   0x000600       data     extern D:\Projects\EggBot1-GH\EBB_firmware\app.X\source\ebb.c
              CtrlTrfData   0x000438       data     extern D:\Projects\EggBot1-GH\EBB_firmware\Microchip\USB\usb_device.c
           CurrentCommand   0x000185       data     extern D:\Projects\EggBot1-GH\EBB_firmware\app.X\source\ebb.c
                   DMABCH   0x000f66       data     extern E:\3.46\pic18-lt\cxx-framework\src\traditional\proc\p18f46j50.asm
               DMABCHbits   0x000f66       data     extern E:\3.46\pic18-lt\cxx-framework\src\traditional\proc\p18f46j50.asm
                   DMABCL   0x000f67       data     extern E:\3.46\pic18-lt\cxx-framework\src\traditional\proc\p18f46j50.asm
                  DMACON1   0x000f88       data     extern E:\3.46\pic18-lt\cxx-framework\src\traditional\proc\p18f46j50.asm
              DMACON1bits   0x000f88       data     extern E:\3.46\pic18-lt\cxx-framework\src\traditional\proc\p18f46j50.asm
                  DMACON2   0x000f86       data     extern E:\3.46\pic18-lt\cxx-framework\src\traditional\proc\p18f46j50.asm
              DMACON2bits   0x000f86       data     extern E:\3.46\pic18-lt\cxx-framework\src\traditional\proc\p18f46j50.asm
                   DSCONH   0x000f4d       data     extern E:\3.46\pic18-lt\cxx-framework\src\traditional\proc\p18f46j50.asm
               DSCONHbits   0x000f4d       data     extern E:\3.46\pic18-lt\cxx-framework\src\traditional\proc\p18f46j50.asm
                   DSCONL   0x000f4c       data     extern E:\3.46\pic18-lt\cxx-framework\src\traditional\proc\p18f46j50.asm
               DSCONLbits   0x000f4c       data     extern E:\3.46\pic18-lt\cxx-framework\src\traditional\proc\p18f46j50.asm
                   DSGPR0   0x000f4e       data     extern E:\3.46\pic18-lt\cxx-framework\src\traditional\proc\p18f46j50.asm
                   DSGPR1   0x000f4f       data     extern E:\3.46\pic18-lt\cxx-framework\src\traditional\proc\p18f46j50.asm
                  DSWAKEH   0x000f4b       data     extern E:\3.46\pic18-lt\cxx-framework\src\traditional\proc\p18f46j50.asm
              DSWAKEHbits   0x000f4b       data     extern E:\3.46\pic18-lt\cxx-framework\src\traditional\proc\p18f46j50.asm
                  DSWAKEL   0x000f4a       data     extern E:\3.46\pic18-lt\cxx-framework\src\traditional\proc\p18f46j50.asm
              DSWAKELbits   0x000f4a       data     extern E:\3.46\pic18-lt\cxx-framework\src\traditional\proc\p18f46j50.asm
           D_tick_counter   0x00009b       data     extern D:\Projects\EggBot1-GH\EBB_firmware\app.X\source\UBW.c
           DemoModeActive   0x0001b4       data     extern D:\Projects\EggBot1-GH\EBB_firmware\app.X\source\ebb.c
      DriverConfiguration   0x000004       data     extern D:\Projects\EggBot1-GH\EBB_firmware\app.X\source\ebb.c
                  ECCP1AS   0x000fbe       data     extern E:\3.46\pic18-lt\cxx-framework\src\traditional\proc\p18f46j50.asm
              ECCP1ASbits   0x000fbe       data     extern E:\3.46\pic18-lt\cxx-framework\src\traditional\proc\p18f46j50.asm
                 ECCP1CON   0x000fba       data     extern E:\3.46\pic18-lt\cxx-framework\src\traditional\proc\p18f46j50.asm
             ECCP1CONbits   0x000fba       data     extern E:\3.46\pic18-lt\cxx-framework\src\traditional\proc\p18f46j50.asm
                 ECCP1DEL   0x000fbd       data     extern E:\3.46\pic18-lt\cxx-framework\src\traditional\proc\p18f46j50.asm
             ECCP1DELbits   0x000fbd       data     extern E:\3.46\pic18-lt\cxx-framework\src\traditional\proc\p18f46j50.asm
                  ECCP2AS   0x000fb8       data     extern E:\3.46\pic18-lt\cxx-framework\src\traditional\proc\p18f46j50.asm
              ECCP2ASbits   0x000fb8       data     extern E:\3.46\pic18-lt\cxx-framework\src\traditional\proc\p18f46j50.asm
                 ECCP2CON   0x000fb4       data     extern E:\3.46\pic18-lt\cxx-framework\src\traditional\proc\p18f46j50.asm
             ECCP2CONbits   0x000fb4       data     extern E:\3.46\pic18-lt\cxx-framework\src\traditional\proc\p18f46j50.asm
                 ECCP2DEL   0x000fb7       data     extern E:\3.46\pic18-lt\cxx-framework\src\traditional\proc\p18f46j50.asm
             ECCP2DELbits   0x000fb7       data     extern E:\3.46\pic18-lt\cxx-framework\src\traditional\proc\p18f46j50.asm
                   EECON1   0x000fa6       data     extern E:\3.46\pic18-lt\cxx-framework\src\traditional\proc\p18f46j50.asm
               EECON1bits   0x000fa6       data     extern E:\3.46\pic18-lt\cxx-framework\src\traditional\proc\p18f46j50.asm
                   EECON2   0x000fa7       data     extern E:\3.46\pic18-lt\cxx-framework\src\traditional\proc\p18f46j50.asm
                  FIFOPtr   0x0002fe       data     extern D:\Projects\EggBot1-GH\EBB_firmware\app.X\source\ebb.c
        FIFO_out_ptr_high   0x000014       data     extern D:\Projects\EggBot1-GH\EBB_firmware\app.X\source\ebb.c
         FIFO_out_ptr_low   0x000015       data     extern D:\Projects\EggBot1-GH\EBB_firmware\app.X\source\ebb.c
                     FSR0   0x000fe9       data     extern E:\3.46\pic18-lt\cxx-framework\src\traditional\proc\p18f46j50.asm
                    FSR0H   0x000fea       data     extern E:\3.46\pic18-lt\cxx-framework\src\traditional\proc\p18f46j50.asm
                    FSR0L   0x000fe9       data     extern E:\3.46\pic18-lt\cxx-framework\src\traditional\proc\p18f46j50.asm
                     FSR1   0x000fe1       data     extern E:\3.46\pic18-lt\cxx-framework\src\traditional\proc\p18f46j50.asm
                    FSR1H   0x000fe2       data     extern E:\3.46\pic18-lt\cxx-framework\src\traditional\proc\p18f46j50.asm
                    FSR1L   0x000fe1       data     extern E:\3.46\pic18-lt\cxx-framework\src\traditional\proc\p18f46j50.asm
                     FSR2   0x000fd9       data     extern E:\3.46\pic18-lt\cxx-framework\src\traditional\proc\p18f46j50.asm
                    FSR2H   0x000fda       data     extern E:\3.46\pic18-lt\cxx-framework\src\traditional\proc\p18f46j50.asm
                    FSR2L   0x000fd9       data     extern E:\3.46\pic18-lt\cxx-framework\src\traditional\proc\p18f46j50.asm
                  HLVDCON   0x000f85       data     extern E:\3.46\pic18-lt\cxx-framework\src\traditional\proc\p18f46j50.asm
              HLVDCONbits   0x000f85       data     extern E:\3.46\pic18-lt\cxx-framework\src\traditional\proc\p18f46j50.asm
                    INDF0   0x000fef       data     extern E:\3.46\pic18-lt\cxx-framework\src\traditional\proc\p18f46j50.asm
                    INDF1   0x000fe7       data     extern E:\3.46\pic18-lt\cxx-framework\src\traditional\proc\p18f46j50.asm
                    INDF2   0x000fdf       data     extern E:\3.46\pic18-lt\cxx-framework\src\traditional\proc\p18f46j50.asm
                   INTCON   0x000ff2       data     extern E:\3.46\pic18-lt\cxx-framework\src\traditional\proc\p18f46j50.asm
                  INTCON2   0x000ff1       data     extern E:\3.46\pic18-lt\cxx-framework\src\traditional\proc\p18f46j50.asm
              INTCON2bits   0x000ff1       data     extern E:\3.46\pic18-lt\cxx-framework\src\traditional\proc\p18f46j50.asm
                  INTCON3   0x000ff0       data     extern E:\3.46\pic18-lt\cxx-framework\src\traditional\proc\p18f46j50.asm
              INTCON3bits   0x000ff0       data     extern E:\3.46\pic18-lt\cxx-framework\src\traditional\proc\p18f46j50.asm
               INTCONbits   0x000ff2       data     extern E:\3.46\pic18-lt\cxx-framework\src\traditional\proc\p18f46j50.asm
                     IPR1   0x000f9f       data     extern E:\3.46\pic18-lt\cxx-framework\src\traditional\proc\p18f46j50.asm
                 IPR1bits   0x000f9f       data     extern E:\3.46\pic18-lt\cxx-framework\src\traditional\proc\p18f46j50.asm
                     IPR2   0x000fa2       data     extern E:\3.46\pic18-lt\cxx-framework\src\traditional\proc\p18f46j50.asm
                 IPR2bits   0x000fa2       data     extern E:\3.46\pic18-lt\cxx-framework\src\traditional\proc\p18f46j50.asm
                     IPR3   0x000fa5       data     extern E:\3.46\pic18-lt\cxx-framework\src\traditional\proc\p18f46j50.asm
                 IPR3bits   0x000fa5       data     extern E:\3.46\pic18-lt\cxx-framework\src\traditional\proc\p18f46j50.asm
               ISR_A_FIFO   0x000100       data     extern D:\Projects\EggBot1-GH\EBB_firmware\app.X\source\UBW.c
            ISR_A_FIFO_in   0x000094       data     extern D:\Projects\EggBot1-GH\EBB_firmware\app.X\source\UBW.c
        ISR_A_FIFO_length   0x000096       data     extern D:\Projects\EggBot1-GH\EBB_firmware\app.X\source\UBW.c
           ISR_A_FIFO_out   0x000095       data     extern D:\Projects\EggBot1-GH\EBB_firmware\app.X\source\UBW.c
         ISR_A_RepeatRate   0x000092       data     extern D:\Projects\EggBot1-GH\EBB_firmware\app.X\source\UBW.c
              ISR_Channel   0x00000a       data     static D:\Projects\EggBot1-GH\EBB_firmware\app.X\source\ebb.c
               ISR_D_FIFO   0x000120       data     extern D:\Projects\EggBot1-GH\EBB_firmware\app.X\source\UBW.c
            ISR_D_FIFO_in   0x00008f       data     extern D:\Projects\EggBot1-GH\EBB_firmware\app.X\source\UBW.c
        ISR_D_FIFO_length   0x000091       data     extern D:\Projects\EggBot1-GH\EBB_firmware\app.X\source\UBW.c
           ISR_D_FIFO_out   0x000090       data     extern D:\Projects\EggBot1-GH\EBB_firmware\app.X\source\UBW.c
         ISR_D_RepeatRate   0x00008d       data     extern D:\Projects\EggBot1-GH\EBB_firmware\app.X\source\UBW.c
                     LATA   0x000f89       data     extern E:\3.46\pic18-lt\cxx-framework\src\traditional\proc\p18f46j50.asm
                 LATAbits   0x000f89       data     extern E:\3.46\pic18-lt\cxx-framework\src\traditional\proc\p18f46j50.asm
                     LATB   0x000f8a       data     extern E:\3.46\pic18-lt\cxx-framework\src\traditional\proc\p18f46j50.asm
                 LATBbits   0x000f8a       data     extern E:\3.46\pic18-lt\cxx-framework\src\traditional\proc\p18f46j50.asm
                     LATC   0x000f8b       data     extern E:\3.46\pic18-lt\cxx-framework\src\traditional\proc\p18f46j50.asm
                 LATCbits   0x000f8b       data     extern E:\3.46\pic18-lt\cxx-framework\src\traditional\proc\p18f46j50.asm
                     LATD   0x000f8c       data     extern E:\3.46\pic18-lt\cxx-framework\src\traditional\proc\p18f46j50.asm
                 LATDbits   0x000f8c       data     extern E:\3.46\pic18-lt\cxx-framework\src\traditional\proc\p18f46j50.asm
                     LATE   0x000f8d       data     extern E:\3.46\pic18-lt\cxx-framework\src\traditional\proc\p18f46j50.asm
                 LATEbits   0x000f8d       data     extern E:\3.46\pic18-lt\cxx-framework\src\traditional\proc\p18f46j50.asm
                 LEDCount   0x00017c       data     static D:\Projects\EggBot1-GH\EBB_firmware\app.X\source\UBW.c
                 LEDState   0x00017e       data     static D:\Projects\EggBot1-GH\EBB_firmware\app.X\source\UBW.c
                NodeCount   0x0001ba       data     static D:\Projects\EggBot1-GH\EBB_firmware\app.X\source\ebb.c
                   ODCON1   0x000f42       data     extern E:\3.46\pic18-lt\cxx-framework\src\traditional\proc\p18f46j50.asm
               ODCON1bits   0x000f42       data     extern E:\3.46\pic18-lt\cxx-framework\src\traditional\proc\p18f46j50.asm
                   ODCON2   0x000f41       data     extern E:\3.46\pic18-lt\cxx-framework\src\traditional\proc\p18f46j50.asm
               ODCON2bits   0x000f41       data     extern E:\3.46\pic18-lt\cxx-framework\src\traditional\proc\p18f46j50.asm
                   ODCON3   0x000f40       data     extern E:\3.46\pic18-lt\cxx-framework\src\traditional\proc\p18f46j50.asm
               ODCON3bits   0x000f40       data     extern E:\3.46\pic18-lt\cxx-framework\src\traditional\proc\p18f46j50.asm
                   OSCCON   0x000fd3       data     extern E:\3.46\pic18-lt\cxx-framework\src\traditional\proc\p18f46j50.asm
               OSCCONbits   0x000fd3       data     extern E:\3.46\pic18-lt\cxx-framework\src\traditional\proc\p18f46j50.asm
                  OSCTUNE   0x000f9b       data     extern E:\3.46\pic18-lt\cxx-framework\src\traditional\proc\p18f46j50.asm
              OSCTUNEbits   0x000f9b       data     extern E:\3.46\pic18-lt\cxx-framework\src\traditional\proc\p18f46j50.asm
                  PADCFG1   0x000f3c       data     extern E:\3.46\pic18-lt\cxx-framework\src\traditional\proc\p18f46j50.asm
              PADCFG1bits   0x000f3c       data     extern E:\3.46\pic18-lt\cxx-framework\src\traditional\proc\p18f46j50.asm
                       PC   0x000ff9       data     extern E:\3.46\pic18-lt\cxx-framework\src\traditional\proc\p18f46j50.asm
                      PCL   0x000ff9       data     extern E:\3.46\pic18-lt\cxx-framework\src\traditional\proc\p18f46j50.asm
                   PCLATH   0x000ffa       data     extern E:\3.46\pic18-lt\cxx-framework\src\traditional\proc\p18f46j50.asm
                   PCLATU   0x000ffb       data     extern E:\3.46\pic18-lt\cxx-framework\src\traditional\proc\p18f46j50.asm
                     PIE1   0x000f9d       data     extern E:\3.46\pic18-lt\cxx-framework\src\traditional\proc\p18f46j50.asm
                 PIE1bits   0x000f9d       data     extern E:\3.46\pic18-lt\cxx-framework\src\traditional\proc\p18f46j50.asm
                     PIE2   0x000fa0       data     extern E:\3.46\pic18-lt\cxx-framework\src\traditional\proc\p18f46j50.asm
                 PIE2bits   0x000fa0       data     extern E:\3.46\pic18-lt\cxx-framework\src\traditional\proc\p18f46j50.asm
                     PIE3   0x000fa3       data     extern E:\3.46\pic18-lt\cxx-framework\src\traditional\proc\p18f46j50.asm
                 PIE3bits   0x000fa3       data     extern E:\3.46\pic18-lt\cxx-framework\src\traditional\proc\p18f46j50.asm
                     PIR1   0x000f9e       data     extern E:\3.46\pic18-lt\cxx-framework\src\traditional\proc\p18f46j50.asm
                 PIR1bits   0x000f9e       data     extern E:\3.46\pic18-lt\cxx-framework\src\traditional\proc\p18f46j50.asm
                     PIR2   0x000fa1       data     extern E:\3.46\pic18-lt\cxx-framework\src\traditional\proc\p18f46j50.asm
                 PIR2bits   0x000fa1       data     extern E:\3.46\pic18-lt\cxx-framework\src\traditional\proc\p18f46j50.asm
                     PIR3   0x000fa4       data     extern E:\3.46\pic18-lt\cxx-framework\src\traditional\proc\p18f46j50.asm
                 PIR3bits   0x000fa4       data     extern E:\3.46\pic18-lt\cxx-framework\src\traditional\proc\p18f46j50.asm
                   PLUSW0   0x000feb       data     extern E:\3.46\pic18-lt\cxx-framework\src\traditional\proc\p18f46j50.asm
                   PLUSW1   0x000fe3       data     extern E:\3.46\pic18-lt\cxx-framework\src\traditional\proc\p18f46j50.asm
                   PLUSW2   0x000fdb       data     extern E:\3.46\pic18-lt\cxx-framework\src\traditional\proc\p18f46j50.asm
                  PMADDRH   0x000f6f       data     extern E:\3.46\pic18-lt\cxx-framework\src\traditional\proc\p18f46j50.asm
              PMADDRHbits   0x000f6f       data     extern E:\3.46\pic18-lt\cxx-framework\src\traditional\proc\p18f46j50.asm
                  PMADDRL   0x000f6e       data     extern E:\3.46\pic18-lt\cxx-framework\src\traditional\proc\p18f46j50.asm
                   PMCONH   0x000f5f       data     extern E:\3.46\pic18-lt\cxx-framework\src\traditional\proc\p18f46j50.asm
               PMCONHbits   0x000f5f       data     extern E:\3.46\pic18-lt\cxx-framework\src\traditional\proc\p18f46j50.asm
                   PMCONL   0x000f5e       data     extern E:\3.46\pic18-lt\cxx-framework\src\traditional\proc\p18f46j50.asm
               PMCONLbits   0x000f5e       data     extern E:\3.46\pic18-lt\cxx-framework\src\traditional\proc\p18f46j50.asm
                  PMDIN1H   0x000f6d       data     extern E:\3.46\pic18-lt\cxx-framework\src\traditional\proc\p18f46j50.asm
                  PMDIN1L   0x000f6c       data     extern E:\3.46\pic18-lt\cxx-framework\src\traditional\proc\p18f46j50.asm
                  PMDIN2H   0x000f59       data     extern E:\3.46\pic18-lt\cxx-framework\src\traditional\proc\p18f46j50.asm
                  PMDIN2L   0x000f58       data     extern E:\3.46\pic18-lt\cxx-framework\src\traditional\proc\p18f46j50.asm
                 PMDOUT1H   0x000f6f       data     extern E:\3.46\pic18-lt\cxx-framework\src\traditional\proc\p18f46j50.asm
                 PMDOUT1L   0x000f6e       data     extern E:\3.46\pic18-lt\cxx-framework\src\traditional\proc\p18f46j50.asm
                 PMDOUT2H   0x000f5b       data     extern E:\3.46\pic18-lt\cxx-framework\src\traditional\proc\p18f46j50.asm
                 PMDOUT2L   0x000f5a       data     extern E:\3.46\pic18-lt\cxx-framework\src\traditional\proc\p18f46j50.asm
                     PMEH   0x000f57       data     extern E:\3.46\pic18-lt\cxx-framework\src\traditional\proc\p18f46j50.asm
                 PMEHbits   0x000f57       data     extern E:\3.46\pic18-lt\cxx-framework\src\traditional\proc\p18f46j50.asm
                     PMEL   0x000f56       data     extern E:\3.46\pic18-lt\cxx-framework\src\traditional\proc\p18f46j50.asm
                 PMELbits   0x000f56       data     extern E:\3.46\pic18-lt\cxx-framework\src\traditional\proc\p18f46j50.asm
                  PMMODEH   0x000f5d       data     extern E:\3.46\pic18-lt\cxx-framework\src\traditional\proc\p18f46j50.asm
              PMMODEHbits   0x000f5d       data     extern E:\3.46\pic18-lt\cxx-framework\src\traditional\proc\p18f46j50.asm
                  PMMODEL   0x000f5c       data     extern E:\3.46\pic18-lt\cxx-framework\src\traditional\proc\p18f46j50.asm
              PMMODELbits   0x000f5c       data     extern E:\3.46\pic18-lt\cxx-framework\src\traditional\proc\p18f46j50.asm
                  PMSTATH   0x000f55       data     extern E:\3.46\pic18-lt\cxx-framework\src\traditional\proc\p18f46j50.asm
              PMSTATHbits   0x000f55       data     extern E:\3.46\pic18-lt\cxx-framework\src\traditional\proc\p18f46j50.asm
                  PMSTATL   0x000f54       data     extern E:\3.46\pic18-lt\cxx-framework\src\traditional\proc\p18f46j50.asm
              PMSTATLbits   0x000f54       data     extern E:\3.46\pic18-lt\cxx-framework\src\traditional\proc\p18f46j50.asm
                    PORTA   0x000f80       data     extern E:\3.46\pic18-lt\cxx-framework\src\traditional\proc\p18f46j50.asm
                PORTAbits   0x000f80       data     extern E:\3.46\pic18-lt\cxx-framework\src\traditional\proc\p18f46j50.asm
                    PORTB   0x000f81       data     extern E:\3.46\pic18-lt\cxx-framework\src\traditional\proc\p18f46j50.asm
                PORTBbits   0x000f81       data     extern E:\3.46\pic18-lt\cxx-framework\src\traditional\proc\p18f46j50.asm
                    PORTC   0x000f82       data     extern E:\3.46\pic18-lt\cxx-framework\src\traditional\proc\p18f46j50.asm
                PORTCbits   0x000f82       data     extern E:\3.46\pic18-lt\cxx-framework\src\traditional\proc\p18f46j50.asm
                    PORTD   0x000f83       data     extern E:\3.46\pic18-lt\cxx-framework\src\traditional\proc\p18f46j50.asm
                PORTDbits   0x000f83       data     extern E:\3.46\pic18-lt\cxx-framework\src\traditional\proc\p18f46j50.asm
                    PORTE   0x000f84       data     extern E:\3.46\pic18-lt\cxx-framework\src\traditional\proc\p18f46j50.asm
                PORTEbits   0x000f84       data     extern E:\3.46\pic18-lt\cxx-framework\src\traditional\proc\p18f46j50.asm
                 POSTDEC0   0x000fed       data     extern E:\3.46\pic18-lt\cxx-framework\src\traditional\proc\p18f46j50.asm
                 POSTDEC1   0x000fe5       data     extern E:\3.46\pic18-lt\cxx-framework\src\traditional\proc\p18f46j50.asm
                 POSTDEC2   0x000fdd       data     extern E:\3.46\pic18-lt\cxx-framework\src\traditional\proc\p18f46j50.asm
                 POSTINC0   0x000fee       data     extern E:\3.46\pic18-lt\cxx-framework\src\traditional\proc\p18f46j50.asm
                 POSTINC1   0x000fe6       data     extern E:\3.46\pic18-lt\cxx-framework\src\traditional\proc\p18f46j50.asm
                 POSTINC2   0x000fde       data     extern E:\3.46\pic18-lt\cxx-framework\src\traditional\proc\p18f46j50.asm
                   PPSCON   0x000eff       data     extern E:\3.46\pic18-lt\cxx-framework\src\traditional\proc\p18f46j50.asm
               PPSCONbits   0x000eff       data     extern E:\3.46\pic18-lt\cxx-framework\src\traditional\proc\p18f46j50.asm
                      PR2   0x000fcb       data     extern E:\3.46\pic18-lt\cxx-framework\src\traditional\proc\p18f46j50.asm
                      PR4   0x000f77       data     extern E:\3.46\pic18-lt\cxx-framework\src\traditional\proc\p18f46j50.asm
                  PREINC0   0x000fec       data     extern E:\3.46\pic18-lt\cxx-framework\src\traditional\proc\p18f46j50.asm
                  PREINC1   0x000fe4       data     extern E:\3.46\pic18-lt\cxx-framework\src\traditional\proc\p18f46j50.asm
                  PREINC2   0x000fdc       data     extern E:\3.46\pic18-lt\cxx-framework\src\traditional\proc\p18f46j50.asm
                     PROD   0x000ff3       data     extern E:\3.46\pic18-lt\cxx-framework\src\traditional\proc\p18f46j50.asm
                    PRODH   0x000ff4       data     extern E:\3.46\pic18-lt\cxx-framework\src\traditional\proc\p18f46j50.asm
                    PRODL   0x000ff3       data     extern E:\3.46\pic18-lt\cxx-framework\src\traditional\proc\p18f46j50.asm
                 PSTR1CON   0x000fbf       data     extern E:\3.46\pic18-lt\cxx-framework\src\traditional\proc\p18f46j50.asm
             PSTR1CONbits   0x000fbf       data     extern E:\3.46\pic18-lt\cxx-framework\src\traditional\proc\p18f46j50.asm
                 PSTR2CON   0x000fb9       data     extern E:\3.46\pic18-lt\cxx-framework\src\traditional\proc\p18f46j50.asm
             PSTR2CONbits   0x000fb9       data     extern E:\3.46\pic18-lt\cxx-framework\src\traditional\proc\p18f46j50.asm
                  PWM1CON   0x000fbd       data     extern E:\3.46\pic18-lt\cxx-framework\src\traditional\proc\p18f46j50.asm
              PWM1CONbits   0x000fbd       data     extern E:\3.46\pic18-lt\cxx-framework\src\traditional\proc\p18f46j50.asm
                  PWM2CON   0x000fb7       data     extern E:\3.46\pic18-lt\cxx-framework\src\traditional\proc\p18f46j50.asm
              PWM2CONbits   0x000fb7       data     extern E:\3.46\pic18-lt\cxx-framework\src\traditional\proc\p18f46j50.asm
                 PenState   0x0001b9       data     static D:\Projects\EggBot1-GH\EBB_firmware\app.X\source\ebb.c
                PortBTemp   0x00000b       data     static D:\Projects\EggBot1-GH\EBB_firmware\app.X\source\ebb.c
              QC_ms_timer   0x0001be       data     extern D:\Projects\EggBot1-GH\EBB_firmware\app.X\source\ebb.c
            RC2Difference   0x0000e2       data     static D:\Projects\EggBot1-GH\EBB_firmware\app.X\source\UBW.c
                     RCON   0x000fd0       data     extern E:\3.46\pic18-lt\cxx-framework\src\traditional\proc\p18f46j50.asm
                 RCONbits   0x000fd0       data     extern E:\3.46\pic18-lt\cxx-framework\src\traditional\proc\p18f46j50.asm
                    RCREG   0x000faf       data     extern E:\3.46\pic18-lt\cxx-framework\src\traditional\proc\p18f46j50.asm
                   RCREG1   0x000faf       data     extern E:\3.46\pic18-lt\cxx-framework\src\traditional\proc\p18f46j50.asm
                   RCREG2   0x000faa       data     extern E:\3.46\pic18-lt\cxx-framework\src\traditional\proc\p18f46j50.asm
                    RCSTA   0x000fac       data     extern E:\3.46\pic18-lt\cxx-framework\src\traditional\proc\p18f46j50.asm
                   RCSTA1   0x000fac       data     extern E:\3.46\pic18-lt\cxx-framework\src\traditional\proc\p18f46j50.asm
               RCSTA1bits   0x000fac       data     extern E:\3.46\pic18-lt\cxx-framework\src\traditional\proc\p18f46j50.asm
                   RCSTA2   0x000f9c       data     extern E:\3.46\pic18-lt\cxx-framework\src\traditional\proc\p18f46j50.asm
               RCSTA2bits   0x000f9c       data     extern E:\3.46\pic18-lt\cxx-framework\src\traditional\proc\p18f46j50.asm
                RCSTAbits   0x000fac       data     extern E:\3.46\pic18-lt\cxx-framework\src\traditional\proc\p18f46j50.asm
                  REFOCON   0x000f3d       data     extern E:\3.46\pic18-lt\cxx-framework\src\traditional\proc\p18f46j50.asm
              REFOCONbits   0x000f3d       data     extern E:\3.46\pic18-lt\cxx-framework\src\traditional\proc\p18f46j50.asm
                     RES0   0x00050b       data     extern source\squareroot.s      
                     RES1   0x00050a       data     extern source\squareroot.s      
                   RPINR1   0x000ee7       data     extern E:\3.46\pic18-lt\cxx-framework\src\traditional\proc\p18f46j50.asm
                  RPINR12   0x000ef2       data     extern E:\3.46\pic18-lt\cxx-framework\src\traditional\proc\p18f46j50.asm
                  RPINR13   0x000ef3       data     extern E:\3.46\pic18-lt\cxx-framework\src\traditional\proc\p18f46j50.asm
                  RPINR16   0x000ef6       data     extern E:\3.46\pic18-lt\cxx-framework\src\traditional\proc\p18f46j50.asm
                  RPINR17   0x000ef7       data     extern E:\3.46\pic18-lt\cxx-framework\src\traditional\proc\p18f46j50.asm
                   RPINR2   0x000ee8       data     extern E:\3.46\pic18-lt\cxx-framework\src\traditional\proc\p18f46j50.asm
                  RPINR21   0x000efb       data     extern E:\3.46\pic18-lt\cxx-framework\src\traditional\proc\p18f46j50.asm
                  RPINR22   0x000efc       data     extern E:\3.46\pic18-lt\cxx-framework\src\traditional\proc\p18f46j50.asm
                  RPINR23   0x000efd       data     extern E:\3.46\pic18-lt\cxx-framework\src\traditional\proc\p18f46j50.asm
                  RPINR24   0x000efe       data     extern E:\3.46\pic18-lt\cxx-framework\src\traditional\proc\p18f46j50.asm
                   RPINR3   0x000ee9       data     extern E:\3.46\pic18-lt\cxx-framework\src\traditional\proc\p18f46j50.asm
                   RPINR4   0x000eea       data     extern E:\3.46\pic18-lt\cxx-framework\src\traditional\proc\p18f46j50.asm
                   RPINR6   0x000eec       data     extern E:\3.46\pic18-lt\cxx-framework\src\traditional\proc\p18f46j50.asm
                   RPINR7   0x000eed       data     extern E:\3.46\pic18-lt\cxx-framework\src\traditional\proc\p18f46j50.asm
                   RPINR8   0x000eee       data     extern E:\3.46\pic18-lt\cxx-framework\src\traditional\proc\p18f46j50.asm
                    RPOR0   0x000ec6       data     extern E:\3.46\pic18-lt\cxx-framework\src\traditional\proc\p18f46j50.asm
                    RPOR1   0x000ec7       data     extern E:\3.46\pic18-lt\cxx-framework\src\traditional\proc\p18f46j50.asm
                   RPOR10   0x000ed0       data     extern E:\3.46\pic18-lt\cxx-framework\src\traditional\proc\p18f46j50.asm
                   RPOR11   0x000ed1       data     extern E:\3.46\pic18-lt\cxx-framework\src\traditional\proc\p18f46j50.asm
                   RPOR12   0x000ed2       data     extern E:\3.46\pic18-lt\cxx-framework\src\traditional\proc\p18f46j50.asm
                   RPOR13   0x000ed3       data     extern E:\3.46\pic18-lt\cxx-framework\src\traditional\proc\p18f46j50.asm
                   RPOR17   0x000ed7       data     extern E:\3.46\pic18-lt\cxx-framework\src\traditional\proc\p18f46j50.asm
                   RPOR18   0x000ed8       data     extern E:\3.46\pic18-lt\cxx-framework\src\traditional\proc\p18f46j50.asm
                   RPOR19   0x000ed9       data     extern E:\3.46\pic18-lt\cxx-framework\src\traditional\proc\p18f46j50.asm
                    RPOR2   0x000ec8       data     extern E:\3.46\pic18-lt\cxx-framework\src\traditional\proc\p18f46j50.asm
                   RPOR20   0x000eda       data     extern E:\3.46\pic18-lt\cxx-framework\src\traditional\proc\p18f46j50.asm
                   RPOR21   0x000edb       data     extern E:\3.46\pic18-lt\cxx-framework\src\traditional\proc\p18f46j50.asm
                   RPOR22   0x000edc       data     extern E:\3.46\pic18-lt\cxx-framework\src\traditional\proc\p18f46j50.asm
                   RPOR23   0x000edd       data     extern E:\3.46\pic18-lt\cxx-framework\src\traditional\proc\p18f46j50.asm
                   RPOR24   0x000ede       data     extern E:\3.46\pic18-lt\cxx-framework\src\traditional\proc\p18f46j50.asm
                    RPOR3   0x000ec9       data     extern E:\3.46\pic18-lt\cxx-framework\src\traditional\proc\p18f46j50.asm
                    RPOR4   0x000eca       data     extern E:\3.46\pic18-lt\cxx-framework\src\traditional\proc\p18f46j50.asm
                    RPOR5   0x000ecb       data     extern E:\3.46\pic18-lt\cxx-framework\src\traditional\proc\p18f46j50.asm
                    RPOR6   0x000ecc       data     extern E:\3.46\pic18-lt\cxx-framework\src\traditional\proc\p18f46j50.asm
                    RPOR7   0x000ecd       data     extern E:\3.46\pic18-lt\cxx-framework\src\traditional\proc\p18f46j50.asm
                    RPOR8   0x000ece       data     extern E:\3.46\pic18-lt\cxx-framework\src\traditional\proc\p18f46j50.asm
                    RPOR9   0x000ecf       data     extern E:\3.46\pic18-lt\cxx-framework\src\traditional\proc\p18f46j50.asm
                   RTCCAL   0x000f3e       data     extern E:\3.46\pic18-lt\cxx-framework\src\traditional\proc\p18f46j50.asm
               RTCCALbits   0x000f3e       data     extern E:\3.46\pic18-lt\cxx-framework\src\traditional\proc\p18f46j50.asm
                   RTCCFG   0x000f3f       data     extern E:\3.46\pic18-lt\cxx-framework\src\traditional\proc\p18f46j50.asm
               RTCCFGbits   0x000f3f       data     extern E:\3.46\pic18-lt\cxx-framework\src\traditional\proc\p18f46j50.asm
                  RTCVALH   0x000f99       data     extern E:\3.46\pic18-lt\cxx-framework\src\traditional\proc\p18f46j50.asm
                  RTCVALL   0x000f98       data     extern E:\3.46\pic18-lt\cxx-framework\src\traditional\proc\p18f46j50.asm
                  RXADDRH   0x000f68       data     extern E:\3.46\pic18-lt\cxx-framework\src\traditional\proc\p18f46j50.asm
              RXADDRHbits   0x000f68       data     extern E:\3.46\pic18-lt\cxx-framework\src\traditional\proc\p18f46j50.asm
                  RXADDRL   0x000f69       data     extern E:\3.46\pic18-lt\cxx-framework\src\traditional\proc\p18f46j50.asm
             RemoteWakeup   0x0005df       data     extern D:\Projects\EggBot1-GH\EBB_firmware\Microchip\USB\usb_device.c
                    SARG1   0x000508       data     extern source\squareroot.s      
                    SARG2   0x000509       data     extern source\squareroot.s      
                     SIGN   0x000032       data     extern E:\3.46\pic18-lt\cxx-framework\src\traditional\math\cmath18.asm
                    SPBRG   0x000fb0       data     extern E:\3.46\pic18-lt\cxx-framework\src\traditional\proc\p18f46j50.asm
                   SPBRG1   0x000fb0       data     extern E:\3.46\pic18-lt\cxx-framework\src\traditional\proc\p18f46j50.asm
                   SPBRG2   0x000fab       data     extern E:\3.46\pic18-lt\cxx-framework\src\traditional\proc\p18f46j50.asm
                   SPBRGH   0x000f7f       data     extern E:\3.46\pic18-lt\cxx-framework\src\traditional\proc\p18f46j50.asm
                  SPBRGH1   0x000f7f       data     extern E:\3.46\pic18-lt\cxx-framework\src\traditional\proc\p18f46j50.asm
                  SPBRGH2   0x000f7d       data     extern E:\3.46\pic18-lt\cxx-framework\src\traditional\proc\p18f46j50.asm
                   SQRES0   0x00050c       data     extern source\squareroot.s      
                   SQRES1   0x00050d       data     extern source\squareroot.s      
                   SQRES2   0x00050e       data     extern source\squareroot.s      
                   SQRES3   0x00050f       data     extern source\squareroot.s      
                  SSP1ADD   0x000fc8       data     extern E:\3.46\pic18-lt\cxx-framework\src\traditional\proc\p18f46j50.asm
              SSP1ADDbits   0x000fc8       data     extern E:\3.46\pic18-lt\cxx-framework\src\traditional\proc\p18f46j50.asm
                  SSP1BUF   0x000fc9       data     extern E:\3.46\pic18-lt\cxx-framework\src\traditional\proc\p18f46j50.asm
                 SSP1CON1   0x000fc6       data     extern E:\3.46\pic18-lt\cxx-framework\src\traditional\proc\p18f46j50.asm
             SSP1CON1bits   0x000fc6       data     extern E:\3.46\pic18-lt\cxx-framework\src\traditional\proc\p18f46j50.asm
                 SSP1CON2   0x000fc5       data     extern E:\3.46\pic18-lt\cxx-framework\src\traditional\proc\p18f46j50.asm
             SSP1CON2bits   0x000fc5       data     extern E:\3.46\pic18-lt\cxx-framework\src\traditional\proc\p18f46j50.asm
                 SSP1STAT   0x000fc7       data     extern E:\3.46\pic18-lt\cxx-framework\src\traditional\proc\p18f46j50.asm
             SSP1STATbits   0x000fc7       data     extern E:\3.46\pic18-lt\cxx-framework\src\traditional\proc\p18f46j50.asm
                  SSP2ADD   0x000f74       data     extern E:\3.46\pic18-lt\cxx-framework\src\traditional\proc\p18f46j50.asm
              SSP2ADDbits   0x000f74       data     extern E:\3.46\pic18-lt\cxx-framework\src\traditional\proc\p18f46j50.asm
                  SSP2BUF   0x000f75       data     extern E:\3.46\pic18-lt\cxx-framework\src\traditional\proc\p18f46j50.asm
                 SSP2CON1   0x000f72       data     extern E:\3.46\pic18-lt\cxx-framework\src\traditional\proc\p18f46j50.asm
             SSP2CON1bits   0x000f72       data     extern E:\3.46\pic18-lt\cxx-framework\src\traditional\proc\p18f46j50.asm
                 SSP2CON2   0x000f71       data     extern E:\3.46\pic18-lt\cxx-framework\src\traditional\proc\p18f46j50.asm
             SSP2CON2bits   0x000f71       data     extern E:\3.46\pic18-lt\cxx-framework\src\traditional\proc\p18f46j50.asm
                 SSP2STAT   0x000f73       data     extern E:\3.46\pic18-lt\cxx-framework\src\traditional\proc\p18f46j50.asm
             SSP2STATbits   0x000f73       data     extern E:\3.46\pic18-lt\cxx-framework\src\traditional\proc\p18f46j50.asm
                   SSPADD   0x000fc8       data     extern E:\3.46\pic18-lt\cxx-framework\src\traditional\proc\p18f46j50.asm
               SSPADDbits   0x000fc8       data     extern E:\3.46\pic18-lt\cxx-framework\src\traditional\proc\p18f46j50.asm
                   SSPBUF   0x000fc9       data     extern E:\3.46\pic18-lt\cxx-framework\src\traditional\proc\p18f46j50.asm
                  SSPCON1   0x000fc6       data     extern E:\3.46\pic18-lt\cxx-framework\src\traditional\proc\p18f46j50.asm
              SSPCON1bits   0x000fc6       data     extern E:\3.46\pic18-lt\cxx-framework\src\traditional\proc\p18f46j50.asm
                  SSPCON2   0x000fc5       data     extern E:\3.46\pic18-lt\cxx-framework\src\traditional\proc\p18f46j50.asm
              SSPCON2bits   0x000fc5       data     extern E:\3.46\pic18-lt\cxx-framework\src\traditional\proc\p18f46j50.asm
                  SSPSTAT   0x000fc7       data     extern E:\3.46\pic18-lt\cxx-framework\src\traditional\proc\p18f46j50.asm
              SSPSTATbits   0x000fc7       data     extern E:\3.46\pic18-lt\cxx-framework\src\traditional\proc\p18f46j50.asm
                   STATUS   0x000fd8       data     extern E:\3.46\pic18-lt\cxx-framework\src\traditional\proc\p18f46j50.asm
               STATUSbits   0x000fd8       data     extern E:\3.46\pic18-lt\cxx-framework\src\traditional\proc\p18f46j50.asm
                   STKPTR   0x000ffc       data     extern E:\3.46\pic18-lt\cxx-framework\src\traditional\proc\p18f46j50.asm
               STKPTRbits   0x000ffc       data     extern E:\3.46\pic18-lt\cxx-framework\src\traditional\proc\p18f46j50.asm
                 SetupPkt   0x000430       data     extern D:\Projects\EggBot1-GH\EBB_firmware\Microchip\USB\usb_device.c
            SolenoidDelay   0x0001b7       data     static D:\Projects\EggBot1-GH\EBB_firmware\app.X\source\ebb.c
            SolenoidState   0x0001b6       data     static D:\Projects\EggBot1-GH\EBB_firmware\app.X\source\ebb.c
      StoredEngraverPower   0x0001bf       data     static D:\Projects\EggBot1-GH\EBB_firmware\app.X\source\ebb.c
                    T0CON   0x000fd5       data     extern E:\3.46\pic18-lt\cxx-framework\src\traditional\proc\p18f46j50.asm
                T0CONbits   0x000fd5       data     extern E:\3.46\pic18-lt\cxx-framework\src\traditional\proc\p18f46j50.asm
                    T1CON   0x000fcd       data     extern E:\3.46\pic18-lt\cxx-framework\src\traditional\proc\p18f46j50.asm
                T1CONbits   0x000fcd       data     extern E:\3.46\pic18-lt\cxx-framework\src\traditional\proc\p18f46j50.asm
                   T1GCON   0x000f9a       data     extern E:\3.46\pic18-lt\cxx-framework\src\traditional\proc\p18f46j50.asm
               T1GCONbits   0x000f9a       data     extern E:\3.46\pic18-lt\cxx-framework\src\traditional\proc\p18f46j50.asm
                    T2CON   0x000fca       data     extern E:\3.46\pic18-lt\cxx-framework\src\traditional\proc\p18f46j50.asm
                T2CONbits   0x000fca       data     extern E:\3.46\pic18-lt\cxx-framework\src\traditional\proc\p18f46j50.asm
                    T3CON   0x000f79       data     extern E:\3.46\pic18-lt\cxx-framework\src\traditional\proc\p18f46j50.asm
                T3CONbits   0x000f79       data     extern E:\3.46\pic18-lt\cxx-framework\src\traditional\proc\p18f46j50.asm
                   T3GCON   0x000f97       data     extern E:\3.46\pic18-lt\cxx-framework\src\traditional\proc\p18f46j50.asm
               T3GCONbits   0x000f97       data     extern E:\3.46\pic18-lt\cxx-framework\src\traditional\proc\p18f46j50.asm
                    T4CON   0x000f76       data     extern E:\3.46\pic18-lt\cxx-framework\src\traditional\proc\p18f46j50.asm
                T4CONbits   0x000f76       data     extern E:\3.46\pic18-lt\cxx-framework\src\traditional\proc\p18f46j50.asm
                   TABLAT   0x000ff5       data     extern E:\3.46\pic18-lt\cxx-framework\src\traditional\proc\p18f46j50.asm
                   TBLPTR   0x000ff6       data     extern E:\3.46\pic18-lt\cxx-framework\src\traditional\proc\p18f46j50.asm
                  TBLPTRH   0x000ff7       data     extern E:\3.46\pic18-lt\cxx-framework\src\traditional\proc\p18f46j50.asm
                  TBLPTRL   0x000ff6       data     extern E:\3.46\pic18-lt\cxx-framework\src\traditional\proc\p18f46j50.asm
                  TBLPTRU   0x000ff8       data     extern E:\3.46\pic18-lt\cxx-framework\src\traditional\proc\p18f46j50.asm
                  TCLKCON   0x000f52       data     extern E:\3.46\pic18-lt\cxx-framework\src\traditional\proc\p18f46j50.asm
              TCLKCONbits   0x000f52       data     extern E:\3.46\pic18-lt\cxx-framework\src\traditional\proc\p18f46j50.asm
                    TEMP0   0x000512       data     static source\squareroot.s      
                    TEMP1   0x000513       data     static source\squareroot.s      
                    TMR0H   0x000fd7       data     extern E:\3.46\pic18-lt\cxx-framework\src\traditional\proc\p18f46j50.asm
                    TMR0L   0x000fd6       data     extern E:\3.46\pic18-lt\cxx-framework\src\traditional\proc\p18f46j50.asm
                    TMR1H   0x000fcf       data     extern E:\3.46\pic18-lt\cxx-framework\src\traditional\proc\p18f46j50.asm
                    TMR1L   0x000fce       data     extern E:\3.46\pic18-lt\cxx-framework\src\traditional\proc\p18f46j50.asm
                     TMR2   0x000fcc       data     extern E:\3.46\pic18-lt\cxx-framework\src\traditional\proc\p18f46j50.asm
                    TMR3H   0x000f7b       data     extern E:\3.46\pic18-lt\cxx-framework\src\traditional\proc\p18f46j50.asm
                    TMR3L   0x000f7a       data     extern E:\3.46\pic18-lt\cxx-framework\src\traditional\proc\p18f46j50.asm
                     TMR4   0x000f78       data     extern E:\3.46\pic18-lt\cxx-framework\src\traditional\proc\p18f46j50.asm
                      TOS   0x000ffd       data     extern E:\3.46\pic18-lt\cxx-framework\src\traditional\proc\p18f46j50.asm
                     TOSH   0x000ffe       data     extern E:\3.46\pic18-lt\cxx-framework\src\traditional\proc\p18f46j50.asm
                     TOSL   0x000ffd       data     extern E:\3.46\pic18-lt\cxx-framework\src\traditional\proc\p18f46j50.asm
                     TOSU   0x000fff       data     extern E:\3.46\pic18-lt\cxx-framework\src\traditional\proc\p18f46j50.asm
                    TRISA   0x000f92       data     extern E:\3.46\pic18-lt\cxx-framework\src\traditional\proc\p18f46j50.asm
                TRISAbits   0x000f92       data     extern E:\3.46\pic18-lt\cxx-framework\src\traditional\proc\p18f46j50.asm
                    TRISB   0x000f93       data     extern E:\3.46\pic18-lt\cxx-framework\src\traditional\proc\p18f46j50.asm
                TRISBbits   0x000f93       data     extern E:\3.46\pic18-lt\cxx-framework\src\traditional\proc\p18f46j50.asm
                    TRISC   0x000f94       data     extern E:\3.46\pic18-lt\cxx-framework\src\traditional\proc\p18f46j50.asm
                TRISCbits   0x000f94       data     extern E:\3.46\pic18-lt\cxx-framework\src\traditional\proc\p18f46j50.asm
                    TRISD   0x000f95       data     extern E:\3.46\pic18-lt\cxx-framework\src\traditional\proc\p18f46j50.asm
                TRISDbits   0x000f95       data     extern E:\3.46\pic18-lt\cxx-framework\src\traditional\proc\p18f46j50.asm
                    TRISE   0x000f96       data     extern E:\3.46\pic18-lt\cxx-framework\src\traditional\proc\p18f46j50.asm
                TRISEbits   0x000f96       data     extern E:\3.46\pic18-lt\cxx-framework\src\traditional\proc\p18f46j50.asm
                  TXADDRH   0x000f6a       data     extern E:\3.46\pic18-lt\cxx-framework\src\traditional\proc\p18f46j50.asm
              TXADDRHbits   0x000f6a       data     extern E:\3.46\pic18-lt\cxx-framework\src\traditional\proc\p18f46j50.asm
                  TXADDRL   0x000f6b       data     extern E:\3.46\pic18-lt\cxx-framework\src\traditional\proc\p18f46j50.asm
                    TXREG   0x000fae       data     extern E:\3.46\pic18-lt\cxx-framework\src\traditional\proc\p18f46j50.asm
                   TXREG1   0x000fae       data     extern E:\3.46\pic18-lt\cxx-framework\src\traditional\proc\p18f46j50.asm
                   TXREG2   0x000fa9       data     extern E:\3.46\pic18-lt\cxx-framework\src\traditional\proc\p18f46j50.asm
                    TXSTA   0x000fad       data     extern E:\3.46\pic18-lt\cxx-framework\src\traditional\proc\p18f46j50.asm
                   TXSTA1   0x000fad       data     extern E:\3.46\pic18-lt\cxx-framework\src\traditional\proc\p18f46j50.asm
               TXSTA1bits   0x000fad       data     extern E:\3.46\pic18-lt\cxx-framework\src\traditional\proc\p18f46j50.asm
                   TXSTA2   0x000fa8       data     extern E:\3.46\pic18-lt\cxx-framework\src\traditional\proc\p18f46j50.asm
               TXSTA2bits   0x000fa8       data     extern E:\3.46\pic18-lt\cxx-framework\src\traditional\proc\p18f46j50.asm
                TXSTAbits   0x000fad       data     extern E:\3.46\pic18-lt\cxx-framework\src\traditional\proc\p18f46j50.asm
                 TestMode   0x000009       data     extern D:\Projects\EggBot1-GH\EBB_firmware\app.X\source\ebb.c
                    UADDR   0x000f38       data     extern E:\3.46\pic18-lt\cxx-framework\src\traditional\proc\p18f46j50.asm
                UADDRbits   0x000f38       data     extern E:\3.46\pic18-lt\cxx-framework\src\traditional\proc\p18f46j50.asm
                     UCFG   0x000f39       data     extern E:\3.46\pic18-lt\cxx-framework\src\traditional\proc\p18f46j50.asm
                 UCFGbits   0x000f39       data     extern E:\3.46\pic18-lt\cxx-framework\src\traditional\proc\p18f46j50.asm
                     UCON   0x000f65       data     extern E:\3.46\pic18-lt\cxx-framework\src\traditional\proc\p18f46j50.asm
                 UCONbits   0x000f65       data     extern E:\3.46\pic18-lt\cxx-framework\src\traditional\proc\p18f46j50.asm
                     UEIE   0x000f37       data     extern E:\3.46\pic18-lt\cxx-framework\src\traditional\proc\p18f46j50.asm
                 UEIEbits   0x000f37       data     extern E:\3.46\pic18-lt\cxx-framework\src\traditional\proc\p18f46j50.asm
                     UEIR   0x000f63       data     extern E:\3.46\pic18-lt\cxx-framework\src\traditional\proc\p18f46j50.asm
                 UEIRbits   0x000f63       data     extern E:\3.46\pic18-lt\cxx-framework\src\traditional\proc\p18f46j50.asm
                     UEP0   0x000f26       data     extern E:\3.46\pic18-lt\cxx-framework\src\traditional\proc\p18f46j50.asm
                 UEP0bits   0x000f26       data     extern E:\3.46\pic18-lt\cxx-framework\src\traditional\proc\p18f46j50.asm
                     UEP1   0x000f27       data     extern E:\3.46\pic18-lt\cxx-framework\src\traditional\proc\p18f46j50.asm
                    UEP10   0x000f30       data     extern E:\3.46\pic18-lt\cxx-framework\src\traditional\proc\p18f46j50.asm
                UEP10bits   0x000f30       data     extern E:\3.46\pic18-lt\cxx-framework\src\traditional\proc\p18f46j50.asm
                    UEP11   0x000f31       data     extern E:\3.46\pic18-lt\cxx-framework\src\traditional\proc\p18f46j50.asm
                UEP11bits   0x000f31       data     extern E:\3.46\pic18-lt\cxx-framework\src\traditional\proc\p18f46j50.asm
                    UEP12   0x000f32       data     extern E:\3.46\pic18-lt\cxx-framework\src\traditional\proc\p18f46j50.asm
                UEP12bits   0x000f32       data     extern E:\3.46\pic18-lt\cxx-framework\src\traditional\proc\p18f46j50.asm
                    UEP13   0x000f33       data     extern E:\3.46\pic18-lt\cxx-framework\src\traditional\proc\p18f46j50.asm
                UEP13bits   0x000f33       data     extern E:\3.46\pic18-lt\cxx-framework\src\traditional\proc\p18f46j50.asm
                    UEP14   0x000f34       data     extern E:\3.46\pic18-lt\cxx-framework\src\traditional\proc\p18f46j50.asm
                UEP14bits   0x000f34       data     extern E:\3.46\pic18-lt\cxx-framework\src\traditional\proc\p18f46j50.asm
                    UEP15   0x000f35       data     extern E:\3.46\pic18-lt\cxx-framework\src\traditional\proc\p18f46j50.asm
                UEP15bits   0x000f35       data     extern E:\3.46\pic18-lt\cxx-framework\src\traditional\proc\p18f46j50.asm
                 UEP1bits   0x000f27       data     extern E:\3.46\pic18-lt\cxx-framework\src\traditional\proc\p18f46j50.asm
                     UEP2   0x000f28       data     extern E:\3.46\pic18-lt\cxx-framework\src\traditional\proc\p18f46j50.asm
                 UEP2bits   0x000f28       data     extern E:\3.46\pic18-lt\cxx-framework\src\traditional\proc\p18f46j50.asm
                     UEP3   0x000f29       data     extern E:\3.46\pic18-lt\cxx-framework\src\traditional\proc\p18f46j50.asm
                 UEP3bits   0x000f29       data     extern E:\3.46\pic18-lt\cxx-framework\src\traditional\proc\p18f46j50.asm
                     UEP4   0x000f2a       data     extern E:\3.46\pic18-lt\cxx-framework\src\traditional\proc\p18f46j50.asm
                 UEP4bits   0x000f2a       data     extern E:\3.46\pic18-lt\cxx-framework\src\traditional\proc\p18f46j50.asm
                     UEP5   0x000f2b       data     extern E:\3.46\pic18-lt\cxx-framework\src\traditional\proc\p18f46j50.asm
                 UEP5bits   0x000f2b       data     extern E:\3.46\pic18-lt\cxx-framework\src\traditional\proc\p18f46j50.asm
                     UEP6   0x000f2c       data     extern E:\3.46\pic18-lt\cxx-framework\src\traditional\proc\p18f46j50.asm
                 UEP6bits   0x000f2c       data     extern E:\3.46\pic18-lt\cxx-framework\src\traditional\proc\p18f46j50.asm
                     UEP7   0x000f2d       data     extern E:\3.46\pic18-lt\cxx-framework\src\traditional\proc\p18f46j50.asm
                 UEP7bits   0x000f2d       data     extern E:\3.46\pic18-lt\cxx-framework\src\traditional\proc\p18f46j50.asm
                     UEP8   0x000f2e       data     extern E:\3.46\pic18-lt\cxx-framework\src\traditional\proc\p18f46j50.asm
                 UEP8bits   0x000f2e       data     extern E:\3.46\pic18-lt\cxx-framework\src\traditional\proc\p18f46j50.asm
                     UEP9   0x000f2f       data     extern E:\3.46\pic18-lt\cxx-framework\src\traditional\proc\p18f46j50.asm
                 UEP9bits   0x000f2f       data     extern E:\3.46\pic18-lt\cxx-framework\src\traditional\proc\p18f46j50.asm
                     UFRM   0x000f60       data     extern E:\3.46\pic18-lt\cxx-framework\src\traditional\proc\p18f46j50.asm
                    UFRMH   0x000f61       data     extern E:\3.46\pic18-lt\cxx-framework\src\traditional\proc\p18f46j50.asm
                UFRMHbits   0x000f61       data     extern E:\3.46\pic18-lt\cxx-framework\src\traditional\proc\p18f46j50.asm
                    UFRML   0x000f60       data     extern E:\3.46\pic18-lt\cxx-framework\src\traditional\proc\p18f46j50.asm
                UFRMLbits   0x000f60       data     extern E:\3.46\pic18-lt\cxx-framework\src\traditional\proc\p18f46j50.asm
                      UIE   0x000f36       data     extern E:\3.46\pic18-lt\cxx-framework\src\traditional\proc\p18f46j50.asm
                  UIEbits   0x000f36       data     extern E:\3.46\pic18-lt\cxx-framework\src\traditional\proc\p18f46j50.asm
                      UIR   0x000f62       data     extern E:\3.46\pic18-lt\cxx-framework\src\traditional\proc\p18f46j50.asm
                  UIRbits   0x000f62       data     extern E:\3.46\pic18-lt\cxx-framework\src\traditional\proc\p18f46j50.asm
            USART1_Status   0x00017f       data     extern E:\3.46\pic18-lt\cxx-framework\src\pmc_common\USART\u1defs.c
   USBActiveConfiguration   0x0005bd       data     extern D:\Projects\EggBot1-GH\EBB_firmware\Microchip\USB\usb_device.c
    USBAlternateInterface   0x0005be       data     extern D:\Projects\EggBot1-GH\EBB_firmware\Microchip\USB\usb_device.c
        USBBusIsSuspended   0x0005e0       data     extern D:\Projects\EggBot1-GH\EBB_firmware\Microchip\USB\usb_device.c
USBDeferINDataStagePackets   0x0005ee       data     extern D:\Projects\EggBot1-GH\EBB_firmware\Microchip\USB\usb_device.c
USBDeferOUTDataStagePackets   0x0005ef       data     extern D:\Projects\EggBot1-GH\EBB_firmware\Microchip\USB\usb_device.c
USBDeferStatusStagePacket   0x0005eb       data     extern D:\Projects\EggBot1-GH\EBB_firmware\Microchip\USB\usb_device.c
           USBDeviceState   0x0005bc       data     extern D:\Projects\EggBot1-GH\EBB_firmware\Microchip\USB\usb_device.c
USBStatusStageEnabledFlag1   0x0005ec       data     extern D:\Projects\EggBot1-GH\EBB_firmware\Microchip\USB\usb_device.c
USBStatusStageEnabledFlag2   0x0005ed       data     extern D:\Projects\EggBot1-GH\EBB_firmware\Microchip\USB\usb_device.c
USBStatusStageTimeoutCounter   0x0005ea       data     extern D:\Projects\EggBot1-GH\EBB_firmware\Microchip\USB\usb_device.c
               USB_SD_Ptr   0x0002f6       data     extern D:\Projects\EggBot1-GH\EBB_firmware\app.X\source\usb_descriptors.c
                    USTAT   0x000f64       data     extern E:\3.46\pic18-lt\cxx-framework\src\traditional\proc\p18f46j50.asm
                USTATbits   0x000f64       data     extern E:\3.46\pic18-lt\cxx-framework\src\traditional\proc\p18f46j50.asm
                USTATcopy   0x0005e1       data     extern D:\Projects\EggBot1-GH\EBB_firmware\Microchip\USB\usb_device.c
              UseAltPause   0x000008       data     static D:\Projects\EggBot1-GH\EBB_firmware\app.X\source\ebb.c
                   WDTCON   0x000fc0       data     extern E:\3.46\pic18-lt\cxx-framework\src\traditional\proc\p18f46j50.asm
               WDTCONbits   0x000fc0       data     extern E:\3.46\pic18-lt\cxx-framework\src\traditional\proc\p18f46j50.asm
                     WREG   0x000fe8       data     extern E:\3.46\pic18-lt\cxx-framework\src\traditional\proc\p18f46j50.asm
                 __AARGB0   0x00003b       data     extern E:\3.46\pic18-lt\cxx-framework\src\traditional\math\aarg.asm
                 __AARGB1   0x00003a       data     extern E:\3.46\pic18-lt\cxx-framework\src\traditional\math\aarg.asm
                 __AARGB2   0x000039       data     extern E:\3.46\pic18-lt\cxx-framework\src\traditional\math\aarg.asm
                 __AARGB3   0x000038       data     extern E:\3.46\pic18-lt\cxx-framework\src\traditional\math\aarg.asm
                 __AARGB4   0x000037       data     extern E:\3.46\pic18-lt\cxx-framework\src\traditional\math\aarg.asm
                 __AARGB5   0x000036       data     extern E:\3.46\pic18-lt\cxx-framework\src\traditional\math\aarg.asm
                 __AARGB6   0x000035       data     extern E:\3.46\pic18-lt\cxx-framework\src\traditional\math\aarg.asm
                 __AARGB7   0x000034       data     extern E:\3.46\pic18-lt\cxx-framework\src\traditional\math\aarg.asm
                   __AEXP   0x00003c       data     extern E:\3.46\pic18-lt\cxx-framework\src\traditional\math\aarg.asm
                 __BARGB0   0x000040       data     extern E:\3.46\pic18-lt\cxx-framework\src\traditional\math\barg.asm
                 __BARGB1   0x00003f       data     extern E:\3.46\pic18-lt\cxx-framework\src\traditional\math\barg.asm
                 __BARGB2   0x00003e       data     extern E:\3.46\pic18-lt\cxx-framework\src\traditional\math\barg.asm
                 __BARGB3   0x00003d       data     extern E:\3.46\pic18-lt\cxx-framework\src\traditional\math\barg.asm
                   __BEXP   0x000041       data     extern E:\3.46\pic18-lt\cxx-framework\src\traditional\math\barg.asm
                __FPFLAGS   0x000033       data     extern E:\3.46\pic18-lt\cxx-framework\src\traditional\math\cmath18.asm
            __FPFLAGSbits   0x000033       data     extern E:\3.46\pic18-lt\cxx-framework\src\traditional\math\cmath18.asm
                  __REMB0   0x000037       data     extern E:\3.46\pic18-lt\cxx-framework\src\traditional\math\aarg.asm
                  __REMB1   0x000036       data     extern E:\3.46\pic18-lt\cxx-framework\src\traditional\math\aarg.asm
                  __REMB2   0x000035       data     extern E:\3.46\pic18-lt\cxx-framework\src\traditional\math\aarg.asm
                  __REMB3   0x000034       data     extern E:\3.46\pic18-lt\cxx-framework\src\traditional\math\aarg.asm
                   __TEMP   0x000045       data     extern E:\3.46\pic18-lt\cxx-framework\src\traditional\math\temparg.asm
                 __TEMPB0   0x000045       data     extern E:\3.46\pic18-lt\cxx-framework\src\traditional\math\temparg.asm
                 __TEMPB1   0x000044       data     extern E:\3.46\pic18-lt\cxx-framework\src\traditional\math\temparg.asm
                 __TEMPB2   0x000043       data     extern E:\3.46\pic18-lt\cxx-framework\src\traditional\math\temparg.asm
                 __TEMPB3   0x000042       data     extern E:\3.46\pic18-lt\cxx-framework\src\traditional\math\temparg.asm
                  __tmp_0   0x000046       data     static D:\Projects\EggBot1-GH\EBB_firmware\app.X\source\RCServo2.c
                  __tmp_0   0x000046       data     static D:\Projects\EggBot1-GH\EBB_firmware\app.X\source\main.c
                  __tmp_0   0x000046       data     static D:\Projects\EggBot1-GH\EBB_firmware\app.X\source\ebb.c
                  __tmp_0   0x000046       data     static D:\Projects\EggBot1-GH\EBB_firmware\Microchip\USB\CDC Device Driver\usb_function_cdc.c
                  __tmp_0   0x000046       data     static E:\3.46\pic18-lt\cxx-framework\src\pmc_common\Flash\EraseFlash.c
                  __tmp_0   0x000046       data     static E:\3.46\pic18-lt\cxx-framework\src\pmc_common\USART\u1open.c
                  __tmp_0   0x000046       data     static E:\3.46\pic18-lt\cxx-framework\src\pmc_common\Flash\ReadFlash.c
                  __tmp_0   0x000046       data     static E:\3.46\pic18-lt\cxx-framework\src\pmc_common\Flash\WriteBytesFlash.c
                  __tmp_0   0x000046       data     static D:\Projects\EggBot1-GH\EBB_firmware\Microchip\USB\usb_device.c
                  __tmp_0   0x000046       data     static D:\Projects\EggBot1-GH\EBB_firmware\app.X\source\ebb_print.c
                  __tmp_0   0x000046       data     static D:\Projects\EggBot1-GH\EBB_firmware\app.X\source\UBW.c
                  __tmp_1   0x000052       data     static D:\Projects\EggBot1-GH\EBB_firmware\app.X\source\ebb.c
                  __tmp_1   0x00004e       data     static D:\Projects\EggBot1-GH\EBB_firmware\app.X\source\UBW.c
                acc_union   0x00001e       data     extern D:\Projects\EggBot1-GH\EBB_firmware\app.X\source\ebb.c
               button_ctr   0x00017a       data     static D:\Projects\EggBot1-GH\EBB_firmware\app.X\source\UBW.c
             button_state   0x000179       data     static D:\Projects\EggBot1-GH\EBB_firmware\app.X\source\UBW.c
              cdc_data_rx   0x000554       data     extern D:\Projects\EggBot1-GH\EBB_firmware\Microchip\USB\CDC Device Driver\usb_function_cdc.c
              cdc_data_tx   0x000514       data     extern D:\Projects\EggBot1-GH\EBB_firmware\Microchip\USB\CDC Device Driver\usb_function_cdc.c
             cdc_mem_type   0x0005aa       data     extern D:\Projects\EggBot1-GH\EBB_firmware\Microchip\USB\CDC Device Driver\usb_function_cdc.c
               cdc_notice   0x00059b       data     extern D:\Projects\EggBot1-GH\EBB_firmware\Microchip\USB\CDC Device Driver\usb_function_cdc.c
               cdc_rx_len   0x0005a3       data     extern D:\Projects\EggBot1-GH\EBB_firmware\Microchip\USB\CDC Device Driver\usb_function_cdc.c
            cdc_trf_state   0x0005a4       data     extern D:\Projects\EggBot1-GH\EBB_firmware\Microchip\USB\CDC Device Driver\usb_function_cdc.c
               cdc_tx_len   0x0005a9       data     extern D:\Projects\EggBot1-GH\EBB_firmware\Microchip\USB\CDC Device Driver\usb_function_cdc.c
     controlTransferState   0x0005d0       data     extern D:\Projects\EggBot1-GH\EBB_firmware\Microchip\USB\usb_device.c
    control_signal_bitmap   0x0005af       data     extern D:\Projects\EggBot1-GH\EBB_firmware\Microchip\USB\CDC Device Driver\usb_function_cdc.c
                curr_byte   0x0005f3       data     static C:\MCC18\src\traditional\startup\c018i.c
               curr_entry   0x0005f5       data     static C:\MCC18\src\traditional\startup\c018i.c
                 data_ptr   0x0005f7       data     static C:\MCC18\src\traditional\startup\c018i.c
              delay_count   0x0001fe       data     static D:\Projects\EggBot1-GH\EBB_firmware\app.X\source\main.c
dummy_encapsulated_cmd_response   0x0005b4       data     extern D:\Projects\EggBot1-GH\EBB_firmware\Microchip\USB\CDC Device Driver\usb_function_cdc.c
          endpoint_number   0x0005e2       data     extern D:\Projects\EggBot1-GH\EBB_firmware\Microchip\USB\usb_device.c
               ep_data_in   0x0005e4       data     extern D:\Projects\EggBot1-GH\EBB_firmware\Microchip\USB\usb_device.c
              ep_data_out   0x0005e7       data     extern D:\Projects\EggBot1-GH\EBB_firmware\Microchip\USB\usb_device.c
               error_byte   0x000097       data     extern D:\Projects\EggBot1-GH\EBB_firmware\app.X\source\UBW.c
    gAutomaticMotorEnable   0x0000d9       data     extern D:\Projects\EggBot1-GH\EBB_firmware\app.X\source\UBW.c
 gCommandChecksumRequired   0x0000df       data     extern D:\Projects\EggBot1-GH\EBB_firmware\app.X\source\UBW.c
           gCommand_Char1   0x0000da       data     extern D:\Projects\EggBot1-GH\EBB_firmware\app.X\source\UBW.c
           gCommand_Char2   0x0000db       data     extern D:\Projects\EggBot1-GH\EBB_firmware\app.X\source\UBW.c
       gCurrentFIFOLength   0x000013       data     extern D:\Projects\EggBot1-GH\EBB_firmware\app.X\source\ebb.c
        gDeviceStringName   0x0000e8       data     static D:\Projects\EggBot1-GH\EBB_firmware\app.X\source\UBW.c
             gFIFOCommand   0x000012       data     static D:\Projects\EggBot1-GH\EBB_firmware\app.X\source\ebb.c
                  gFIFOIn   0x000010       data     extern D:\Projects\EggBot1-GH\EBB_firmware\app.X\source\ebb.c
              gFIFOLength   0x00000f       data     extern D:\Projects\EggBot1-GH\EBB_firmware\app.X\source\ebb.c
                 gFIFOOut   0x000011       data     extern D:\Projects\EggBot1-GH\EBB_firmware\app.X\source\ebb.c
gISRPositionForThisCommand   0x00002e       data     static D:\Projects\EggBot1-GH\EBB_firmware\app.X\source\ebb.c
gISRStepCountForThisCommand   0x00002a       data     static D:\Projects\EggBot1-GH\EBB_firmware\app.X\source\ebb.c
gISRTickCountForThisCommand   0x000026       data     static D:\Projects\EggBot1-GH\EBB_firmware\app.X\source\ebb.c
                 gInt32_1   0x0001d0       data     static D:\Projects\EggBot1-GH\EBB_firmware\app.X\source\ebb.c
                 gInt32_2   0x0001d4       data     static D:\Projects\EggBot1-GH\EBB_firmware\app.X\source\ebb.c
                 gInt32_3   0x0001d8       data     static D:\Projects\EggBot1-GH\EBB_firmware\app.X\source\ebb.c
                 gInt32_4   0x0001dc       data     static D:\Projects\EggBot1-GH\EBB_firmware\app.X\source\ebb.c
                 gInt32_5   0x0001e0       data     static D:\Projects\EggBot1-GH\EBB_firmware\app.X\source\ebb.c
                 gInt32_6   0x0001e4       data     static D:\Projects\EggBot1-GH\EBB_firmware\app.X\source\ebb.c
                 gInt32_7   0x0001e8       data     static D:\Projects\EggBot1-GH\EBB_firmware\app.X\source\ebb.c
                 gInt32_8   0x0001ec       data     static D:\Projects\EggBot1-GH\EBB_firmware\app.X\source\ebb.c
             gLimitChecks   0x0001c2       data     extern D:\Projects\EggBot1-GH\EBB_firmware\app.X\source\ebb.c
         gLimitSwitchMask   0x00000c       data     extern D:\Projects\EggBot1-GH\EBB_firmware\app.X\source\ebb.c
        gLimitSwitchPortB   0x0000dc       data     extern D:\Projects\EggBot1-GH\EBB_firmware\app.X\source\UBW.c
      gLimitSwitchReplies   0x0000dd       data     extern D:\Projects\EggBot1-GH\EBB_firmware\app.X\source\UBW.c
 gLimitSwitchReplyPrinted   0x0000de       data     extern D:\Projects\EggBot1-GH\EBB_firmware\app.X\source\UBW.c
       gLimitSwitchTarget   0x00000d       data     extern D:\Projects\EggBot1-GH\EBB_firmware\app.X\source\ebb.c
    gLimitSwitchTriggered   0x00000e       data     extern D:\Projects\EggBot1-GH\EBB_firmware\app.X\source\ebb.c
                gMoveTemp   0x000129       data     static D:\Projects\EggBot1-GH\EBB_firmware\app.X\source\ebb.c
               gOutputStr   0x0001f0       data     static D:\Projects\EggBot1-GH\EBB_firmware\app.X\source\ebb_print.c
                     gPos   0x0001fc       data     static D:\Projects\EggBot1-GH\EBB_firmware\app.X\source\ebb_print.c
                  gRC2Ptr   0x00007d       data     extern D:\Projects\EggBot1-GH\EBB_firmware\app.X\source\RCServo2.c
              gRC2RPORPtr   0x000080       data     extern D:\Projects\EggBot1-GH\EBB_firmware\app.X\source\RCServo2.c
                  gRC2RPn   0x000069       data     extern D:\Projects\EggBot1-GH\EBB_firmware\app.X\source\RCServo2.c
                 gRC2Rate   0x000075       data     extern D:\Projects\EggBot1-GH\EBB_firmware\app.X\source\RCServo2.c
               gRC2SlotMS   0x00007f       data     extern D:\Projects\EggBot1-GH\EBB_firmware\app.X\source\RCServo2.c
                gRC2Slots   0x00007e       data     extern D:\Projects\EggBot1-GH\EBB_firmware\app.X\source\RCServo2.c
               gRC2Target   0x00006d       data     extern D:\Projects\EggBot1-GH\EBB_firmware\app.X\source\RCServo2.c
                gRC2Value   0x000061       data     extern D:\Projects\EggBot1-GH\EBB_firmware\app.X\source\RCServo2.c
            gRC2msCounter   0x000060       data     extern D:\Projects\EggBot1-GH\EBB_firmware\app.X\source\RCServo2.c
gRCServoPoweroffCounterMS   0x0000d1       data     extern D:\Projects\EggBot1-GH\EBB_firmware\app.X\source\UBW.c
gRCServoPoweroffCounterReloadMS   0x0000d5       data     extern D:\Projects\EggBot1-GH\EBB_firmware\app.X\source\UBW.c
         gRedLEDEmptyFIFO   0x000006       data     extern D:\Projects\EggBot1-GH\EBB_firmware\app.X\source\ebb.c
              gSL_Storage   0x000158       data     static D:\Projects\EggBot1-GH\EBB_firmware\app.X\source\ebb.c
          gStackHighWater   0x0000e0       data     static D:\Projects\EggBot1-GH\EBB_firmware\app.X\source\UBW.c
gStandardizedCommandFormat   0x0001c3       data     extern D:\Projects\EggBot1-GH\EBB_firmware\app.X\source\ebb.c
                gUInt32_1   0x0001c4       data     static D:\Projects\EggBot1-GH\EBB_firmware\app.X\source\ebb.c
                gUInt32_2   0x0001c8       data     static D:\Projects\EggBot1-GH\EBB_firmware\app.X\source\ebb.c
                gUInt32_3   0x0001cc       data     static D:\Projects\EggBot1-GH\EBB_firmware\app.X\source\ebb.c
           gUseRCPenServo   0x000005       data     static D:\Projects\EggBot1-GH\EBB_firmware\app.X\source\ebb.c
             gUseSolenoid   0x0001c1       data     extern D:\Projects\EggBot1-GH\EBB_firmware\app.X\source\ebb.c
                g_BO_init   0x0000c3       data     extern D:\Projects\EggBot1-GH\EBB_firmware\app.X\source\UBW.c
        g_BO_strobe_delay   0x0000c7       data     extern D:\Projects\EggBot1-GH\EBB_firmware\app.X\source\UBW.c
         g_BO_strobe_mask   0x0000c4       data     extern D:\Projects\EggBot1-GH\EBB_firmware\app.X\source\UBW.c
          g_BO_wait_delay   0x0000c6       data     extern D:\Projects\EggBot1-GH\EBB_firmware\app.X\source\UBW.c
           g_BO_wait_mask   0x0000c5       data     extern D:\Projects\EggBot1-GH\EBB_firmware\app.X\source\UBW.c
      g_PowerDropDetected   0x0000a7       data     extern D:\Projects\EggBot1-GH\EBB_firmware\app.X\source\UBW.c
g_PowerMonitorThresholdADC   0x0000a5       data     extern D:\Projects\EggBot1-GH\EBB_firmware\app.X\source\UBW.c
            g_RC_next_ptr   0x000099       data     extern D:\Projects\EggBot1-GH\EBB_firmware\app.X\source\UBW.c
          g_RC_primed_ptr   0x000098       data     extern D:\Projects\EggBot1-GH\EBB_firmware\app.X\source\UBW.c
          g_RC_timing_ptr   0x00009a       data     extern D:\Projects\EggBot1-GH\EBB_firmware\app.X\source\UBW.c
                 g_RX_buf   0x000300       data     extern D:\Projects\EggBot1-GH\EBB_firmware\app.X\source\UBW.c
              g_RX_buf_in   0x0000ca       data     extern D:\Projects\EggBot1-GH\EBB_firmware\app.X\source\UBW.c
             g_RX_buf_out   0x0000cb       data     extern D:\Projects\EggBot1-GH\EBB_firmware\app.X\source\UBW.c
         g_RX_command_buf   0x000240       data     extern D:\Projects\EggBot1-GH\EBB_firmware\app.X\source\UBW.c
g_StepperDisableCountdownS   0x0000ad       data     extern D:\Projects\EggBot1-GH\EBB_firmware\app.X\source\UBW.c
g_StepperDisableSecondCounter   0x0000ab       data     extern D:\Projects\EggBot1-GH\EBB_firmware\app.X\source\UBW.c
    g_StepperDisableState   0x0000a8       data     extern D:\Projects\EggBot1-GH\EBB_firmware\app.X\source\UBW.c
 g_StepperDisableTimeoutS   0x0000a9       data     extern D:\Projects\EggBot1-GH\EBB_firmware\app.X\source\UBW.c
                 g_TX_buf   0x000200       data     extern D:\Projects\EggBot1-GH\EBB_firmware\app.X\source\UBW.c
              g_TX_buf_in   0x0000c8       data     extern D:\Projects\EggBot1-GH\EBB_firmware\app.X\source\UBW.c
             g_TX_buf_out   0x0000c9       data     extern D:\Projects\EggBot1-GH\EBB_firmware\app.X\source\UBW.c
           g_USART_RX_buf   0x0000af       data     extern D:\Projects\EggBot1-GH\EBB_firmware\app.X\source\UBW.c
        g_USART_RX_buf_in   0x0000cc       data     extern D:\Projects\EggBot1-GH\EBB_firmware\app.X\source\UBW.c
       g_USART_RX_buf_out   0x0000cd       data     extern D:\Projects\EggBot1-GH\EBB_firmware\app.X\source\UBW.c
           g_USART_TX_buf   0x0000b9       data     extern D:\Projects\EggBot1-GH\EBB_firmware\app.X\source\UBW.c
        g_USART_TX_buf_in   0x0000ce       data     extern D:\Projects\EggBot1-GH\EBB_firmware\app.X\source\UBW.c
       g_USART_TX_buf_out   0x0000cf       data     extern D:\Projects\EggBot1-GH\EBB_firmware\app.X\source\UBW.c
             g_ack_enable   0x0000d0       data     extern D:\Projects\EggBot1-GH\EBB_firmware\app.X\source\UBW.c
             g_servo2_RPn   0x00008a       data     extern D:\Projects\EggBot1-GH\EBB_firmware\app.X\source\RCServo2.c
             g_servo2_max   0x000082       data     extern D:\Projects\EggBot1-GH\EBB_firmware\app.X\source\RCServo2.c
             g_servo2_min   0x000084       data     extern D:\Projects\EggBot1-GH\EBB_firmware\app.X\source\RCServo2.c
       g_servo2_rate_down   0x000088       data     extern D:\Projects\EggBot1-GH\EBB_firmware\app.X\source\RCServo2.c
         g_servo2_rate_up   0x000086       data     extern D:\Projects\EggBot1-GH\EBB_firmware\app.X\source\RCServo2.c
       globalStepCounter1   0x000016       data     static D:\Projects\EggBot1-GH\EBB_firmware\app.X\source\ebb.c
       globalStepCounter2   0x00001a       data     static D:\Projects\EggBot1-GH\EBB_firmware\app.X\source\ebb.c
                        i   0x0001fd       data     static D:\Projects\EggBot1-GH\EBB_firmware\app.X\source\ebb_print.c
                  inPipes   0x0005d1       data     extern D:\Projects\EggBot1-GH\EBB_firmware\Microchip\USB\usb_device.c
                    in_cr   0x000178       data     static D:\Projects\EggBot1-GH\EBB_firmware\app.X\source\UBW.c
                    isr_i   0x000001       data     static D:\Projects\EggBot1-GH\EBB_firmware\app.X\source\ebb.c
           last_fifo_size   0x0000f9       data     static D:\Projects\EggBot1-GH\EBB_firmware\app.X\source\UBW.c
              line_coding   0x000594       data     extern D:\Projects\EggBot1-GH\EBB_firmware\Microchip\USB\CDC Device Driver\usb_function_cdc.c
                      nib   0x000184       data     static D:\Projects\EggBot1-GH\EBB_firmware\app.X\source\ebb.c
                 outPipes   0x0005d6       data     extern D:\Projects\EggBot1-GH\EBB_firmware\Microchip\USB\usb_device.c
   pBDTEntryEP0OutCurrent   0x0005bf       data     extern D:\Projects\EggBot1-GH\EBB_firmware\Microchip\USB\usb_device.c
      pBDTEntryEP0OutNext   0x0005c1       data     extern D:\Projects\EggBot1-GH\EBB_firmware\Microchip\USB\usb_device.c
              pBDTEntryIn   0x0005c9       data     extern D:\Projects\EggBot1-GH\EBB_firmware\Microchip\USB\usb_device.c
             pBDTEntryOut   0x0005c3       data     extern D:\Projects\EggBot1-GH\EBB_firmware\Microchip\USB\usb_device.c
                  pCDCDst   0x0005a7       data     extern D:\Projects\EggBot1-GH\EBB_firmware\Microchip\USB\CDC Device Driver\usb_function_cdc.c
                  pCDCSrc   0x0005a5       data     extern D:\Projects\EggBot1-GH\EBB_firmware\Microchip\USB\CDC Device Driver\usb_function_cdc.c
                     pDst   0x0005dd       data     extern D:\Projects\EggBot1-GH\EBB_firmware\Microchip\USB\usb_device.c
                     prom   0x0005f0       data     static C:\MCC18\src\traditional\startup\c018i.c
                    sd000   0x000280       data     extern D:\Projects\EggBot1-GH\EBB_firmware\app.X\source\usb_descriptors.c
                    sd001   0x000284       data     extern D:\Projects\EggBot1-GH\EBB_firmware\app.X\source\usb_descriptors.c
                    sd002   0x00029c       data     extern D:\Projects\EggBot1-GH\EBB_firmware\app.X\source\usb_descriptors.c
                    sd003   0x0002d4       data     extern D:\Projects\EggBot1-GH\EBB_firmware\app.X\source\usb_descriptors.c
        shortPacketStatus   0x0005cf       data     extern D:\Projects\EggBot1-GH\EBB_firmware\Microchip\USB\usb_device.c
         tempStackPointer   0x0000e6       data     static D:\Projects\EggBot1-GH\EBB_firmware\app.X\source\UBW.c
     tempStackPointerHigh   0x0000e4       data     static D:\Projects\EggBot1-GH\EBB_firmware\app.X\source\UBW.c
      tempStackPointerLow   0x0000e5       data     static D:\Projects\EggBot1-GH\EBB_firmware\app.X\source\UBW.c
     time_between_updates   0x00008b       data     extern D:\Projects\EggBot1-GH\EBB_firmware\app.X\source\UBW.c
                       xx   0x000180       data     static D:\Projects\EggBot1-GH\EBB_firmware\app.X\source\ebb.c



                              Symbols - Sorted by Address
                     Name    Address   Location    Storage File                     
                ---------  ---------  ---------  --------- ---------                
                   _reset   0x001000    program     extern D:\Projects\EggBot1-GH\EBB_firmware\app.X\source\main.c
       ___return_lbl00000   0x001004    program     static                          
        Remapped_High_ISR   0x001008    program     extern D:\Projects\EggBot1-GH\EBB_firmware\app.X\source\main.c
       ___return_lbl00001   0x00100c    program     static                          
         Remapped_Low_ISR   0x001018    program     extern D:\Projects\EggBot1-GH\EBB_firmware\app.X\source\main.c
       ___return_lbl00002   0x00101c    program     static                          
                 high_ISR   0x001050    program     extern D:\Projects\EggBot1-GH\EBB_firmware\app.X\source\ebb.c
  clear_parmaeter_globals   0x0017ec    program     static D:\Projects\EggBot1-GH\EBB_firmware\app.X\source\ebb.c
                 EBB_Init   0x001844    program     extern D:\Projects\EggBot1-GH\EBB_firmware\app.X\source\ebb.c
          ___for_lbl00191   0x001850    program     static                          
          ___for_lbl00189   0x0018ac    program     static                          
          ___for_lbl00190   0x0018b0    program     static                          
          ___for_lbl00194   0x001988    program     static                          
          ___for_lbl00192   0x00199c    program     static                          
          ___for_lbl00193   0x0019a0    program     static                          
       ___return_lbl00188   0x0019dc    program     static                          
          parse_SC_packet   0x0019e6    program     extern D:\Projects\EggBot1-GH\EBB_firmware\app.X\source\ebb.c
          parse_LM_packet   0x001b6a    program     extern D:\Projects\EggBot1-GH\EBB_firmware\app.X\source\ebb.c
          parse_L3_packet   0x001bd6    program     extern D:\Projects\EggBot1-GH\EBB_firmware\app.X\source\ebb.c
          parse_T3_packet   0x001c4e    program     extern D:\Projects\EggBot1-GH\EBB_firmware\app.X\source\ebb.c
          parse_LT_packet   0x001c82    program     extern D:\Projects\EggBot1-GH\EBB_firmware\app.X\source\ebb.c
   process_low_level_move   0x001cbe    program     static D:\Projects\EggBot1-GH\EBB_firmware\app.X\source\ebb.c
          parse_SM_packet   0x0020fc    program     extern D:\Projects\EggBot1-GH\EBB_firmware\app.X\source\ebb.c
          parse_CM_packet   0x002124    program     extern D:\Projects\EggBot1-GH\EBB_firmware\app.X\source\ebb.c
          parse_HM_packet   0x002358    program     extern D:\Projects\EggBot1-GH\EBB_firmware\app.X\source\ebb.c
          parse_TR_packet   0x002436    program     extern D:\Projects\EggBot1-GH\EBB_firmware\app.X\source\ebb.c
 process_simple_rate_move   0x002450    program     static D:\Projects\EggBot1-GH\EBB_firmware\app.X\source\ebb.c
          parse_XM_packet   0x0025e6    program     extern D:\Projects\EggBot1-GH\EBB_firmware\app.X\source\ebb.c
process_simple_motor_move_fp   0x0027a6    program     static D:\Projects\EggBot1-GH\EBB_firmware\app.X\source\ebb.c
          parse_ES_packet   0x0029bc    program     extern D:\Projects\EggBot1-GH\EBB_firmware\app.X\source\ebb.c
          parse_QP_packet   0x002a58    program     extern D:\Projects\EggBot1-GH\EBB_firmware\app.X\source\ebb.c
          parse_QE_packet   0x002a88    program     extern D:\Projects\EggBot1-GH\EBB_firmware\app.X\source\ebb.c
          parse_TP_packet   0x002b54    program     extern D:\Projects\EggBot1-GH\EBB_firmware\app.X\source\ebb.c
          parse_SP_packet   0x002b98    program     extern D:\Projects\EggBot1-GH\EBB_firmware\app.X\source\ebb.c
               process_SP   0x002c04    program     extern D:\Projects\EggBot1-GH\EBB_firmware\app.X\source\ebb.c
          parse_EM_packet   0x002c7a    program     extern D:\Projects\EggBot1-GH\EBB_firmware\app.X\source\ebb.c
          parse_NI_packet   0x002cec    program     extern D:\Projects\EggBot1-GH\EBB_firmware\app.X\source\ebb.c
          parse_ND_packet   0x002d12    program     extern D:\Projects\EggBot1-GH\EBB_firmware\app.X\source\ebb.c
          parse_SN_packet   0x002d30    program     extern D:\Projects\EggBot1-GH\EBB_firmware\app.X\source\ebb.c
          parse_QN_packet   0x002d6a    program     extern D:\Projects\EggBot1-GH\EBB_firmware\app.X\source\ebb.c
          parse_SL_packet   0x002d8e    program     extern D:\Projects\EggBot1-GH\EBB_firmware\app.X\source\ebb.c
          parse_QL_packet   0x002dc8    program     extern D:\Projects\EggBot1-GH\EBB_firmware\app.X\source\ebb.c
          parse_QB_packet   0x002e10    program     extern D:\Projects\EggBot1-GH\EBB_firmware\app.X\source\ebb.c
          parse_QC_packet   0x002e38    program     extern D:\Projects\EggBot1-GH\EBB_firmware\app.X\source\ebb.c
          parse_QG_packet   0x002e64    program     extern D:\Projects\EggBot1-GH\EBB_firmware\app.X\source\ebb.c
          parse_SE_packet   0x002ec6    program     extern D:\Projects\EggBot1-GH\EBB_firmware\app.X\source\ebb.c
               process_QM   0x003008    program     extern D:\Projects\EggBot1-GH\EBB_firmware\app.X\source\ebb.c
          parse_QM_packet   0x00308e    program     extern D:\Projects\EggBot1-GH\EBB_firmware\app.X\source\ebb.c
          parse_QS_packet   0x0030fe    program     extern D:\Projects\EggBot1-GH\EBB_firmware\app.X\source\ebb.c
       clear_StepCounters   0x00315e    program     static D:\Projects\EggBot1-GH\EBB_firmware\app.X\source\ebb.c
          parse_CS_packet   0x003166    program     extern D:\Projects\EggBot1-GH\EBB_firmware\app.X\source\ebb.c
                   __pa_0   0x003170    program     static D:\Projects\EggBot1-GH\EBB_firmware\app.X\source\ebb.c
                   __pa_1   0x00317c    program     static D:\Projects\EggBot1-GH\EBB_firmware\app.X\source\ebb.c
                   __pa_2   0x003192    program     static D:\Projects\EggBot1-GH\EBB_firmware\app.X\source\ebb.c
                   __pa_3   0x00319a    program     static D:\Projects\EggBot1-GH\EBB_firmware\app.X\source\ebb.c
                   __pa_4   0x003264    program     static D:\Projects\EggBot1-GH\EBB_firmware\app.X\source\ebb.c
                   __pa_5   0x0032ac    program     static D:\Projects\EggBot1-GH\EBB_firmware\app.X\source\ebb.c
                   __pa_6   0x0032b2    program     static D:\Projects\EggBot1-GH\EBB_firmware\app.X\source\ebb.c
                   __pa_7   0x0032d8    program     static D:\Projects\EggBot1-GH\EBB_firmware\app.X\source\ebb.c
                   __pa_8   0x0032e4    program     static D:\Projects\EggBot1-GH\EBB_firmware\app.X\source\ebb.c
                   __pa_9   0x0032ee    program     static D:\Projects\EggBot1-GH\EBB_firmware\app.X\source\ebb.c
                  __pa_10   0x0032fa    program     static D:\Projects\EggBot1-GH\EBB_firmware\app.X\source\ebb.c
                  __pa_11   0x003312    program     static D:\Projects\EggBot1-GH\EBB_firmware\app.X\source\ebb.c
                  __pa_12   0x003326    program     static D:\Projects\EggBot1-GH\EBB_firmware\app.X\source\ebb.c
             __tmplbl_186   0x003326    program     static                          
             __tmplbl_197   0x003326    program     static                          
             __tmplbl_201   0x003326    program     static                          
             __tmplbl_209   0x003326    program     static                          
             __tmplbl_212   0x003326    program     static                          
             __tmplbl_219   0x003326    program     static                          
             __tmplbl_221   0x003326    program     static                          
                  __pa_13   0x00332c    program     static D:\Projects\EggBot1-GH\EBB_firmware\app.X\source\ebb.c
                  __pa_14   0x003336    program     static D:\Projects\EggBot1-GH\EBB_firmware\app.X\source\ebb.c
                  __pa_15   0x00333c    program     static D:\Projects\EggBot1-GH\EBB_firmware\app.X\source\ebb.c
                  __pa_16   0x003376    program     static D:\Projects\EggBot1-GH\EBB_firmware\app.X\source\ebb.c
                  __pa_17   0x00337e    program     static D:\Projects\EggBot1-GH\EBB_firmware\app.X\source\ebb.c
                  __pa_18   0x003388    program     static D:\Projects\EggBot1-GH\EBB_firmware\app.X\source\ebb.c
                  __pa_19   0x0033d2    program     static D:\Projects\EggBot1-GH\EBB_firmware\app.X\source\ebb.c
                  __pa_20   0x0033e4    program     static D:\Projects\EggBot1-GH\EBB_firmware\app.X\source\ebb.c
                  __pa_21   0x003406    program     static D:\Projects\EggBot1-GH\EBB_firmware\app.X\source\ebb.c
                  __pa_22   0x003444    program     static D:\Projects\EggBot1-GH\EBB_firmware\app.X\source\ebb.c
                  __pa_23   0x003458    program     static D:\Projects\EggBot1-GH\EBB_firmware\app.X\source\ebb.c
                  __pa_24   0x00346e    program     static D:\Projects\EggBot1-GH\EBB_firmware\app.X\source\ebb.c
                  __pa_25   0x003476    program     static D:\Projects\EggBot1-GH\EBB_firmware\app.X\source\ebb.c
                  __pa_26   0x00347e    program     static D:\Projects\EggBot1-GH\EBB_firmware\app.X\source\ebb.c
                  __pa_27   0x00348c    program     static D:\Projects\EggBot1-GH\EBB_firmware\app.X\source\ebb.c
                  __pa_28   0x003498    program     static D:\Projects\EggBot1-GH\EBB_firmware\app.X\source\ebb.c
                  __pa_29   0x0034bc    program     static D:\Projects\EggBot1-GH\EBB_firmware\app.X\source\ebb.c
                  __pa_30   0x0034e0    program     static D:\Projects\EggBot1-GH\EBB_firmware\app.X\source\ebb.c
                  __pa_31   0x0034f4    program     static D:\Projects\EggBot1-GH\EBB_firmware\app.X\source\ebb.c
                  __pa_32   0x003506    program     static D:\Projects\EggBot1-GH\EBB_firmware\app.X\source\ebb.c
                  __pa_33   0x003518    program     static D:\Projects\EggBot1-GH\EBB_firmware\app.X\source\ebb.c
                  __pa_34   0x00352a    program     static D:\Projects\EggBot1-GH\EBB_firmware\app.X\source\ebb.c
                  __pa_35   0x003536    program     static D:\Projects\EggBot1-GH\EBB_firmware\app.X\source\ebb.c
                  __pa_36   0x00354c    program     static D:\Projects\EggBot1-GH\EBB_firmware\app.X\source\ebb.c
                  __pa_37   0x003554    program     static D:\Projects\EggBot1-GH\EBB_firmware\app.X\source\ebb.c
             __tmplbl_202   0x003564    program     static                          
             __tmplbl_190   0x003564    program     static                          
             __tmplbl_189   0x003564    program     static                          
                  __pa_38   0x003564    program     static D:\Projects\EggBot1-GH\EBB_firmware\app.X\source\ebb.c
             __tmplbl_188   0x003564    program     static                          
             __tmplbl_187   0x003564    program     static                          
                  __pa_39   0x003568    program     static D:\Projects\EggBot1-GH\EBB_firmware\app.X\source\ebb.c
                  __pa_40   0x003574    program     static D:\Projects\EggBot1-GH\EBB_firmware\app.X\source\ebb.c
                  __pa_41   0x003596    program     static D:\Projects\EggBot1-GH\EBB_firmware\app.X\source\ebb.c
                  __pa_42   0x0035ae    program     static D:\Projects\EggBot1-GH\EBB_firmware\app.X\source\ebb.c
                  __pa_43   0x0035ca    program     static D:\Projects\EggBot1-GH\EBB_firmware\app.X\source\ebb.c
                  __pa_44   0x0035d0    program     static D:\Projects\EggBot1-GH\EBB_firmware\app.X\source\ebb.c
                  __pa_45   0x0035e6    program     static D:\Projects\EggBot1-GH\EBB_firmware\app.X\source\ebb.c
                  __pa_46   0x0035fa    program     static D:\Projects\EggBot1-GH\EBB_firmware\app.X\source\ebb.c
                  __pa_47   0x00360c    program     static D:\Projects\EggBot1-GH\EBB_firmware\app.X\source\ebb.c
                  __pa_48   0x00361e    program     static D:\Projects\EggBot1-GH\EBB_firmware\app.X\source\ebb.c
                  __pa_49   0x003630    program     static D:\Projects\EggBot1-GH\EBB_firmware\app.X\source\ebb.c
                  __pa_50   0x003642    program     static D:\Projects\EggBot1-GH\EBB_firmware\app.X\source\ebb.c
                  __pa_51   0x003654    program     static D:\Projects\EggBot1-GH\EBB_firmware\app.X\source\ebb.c
                  __pa_52   0x003660    program     static D:\Projects\EggBot1-GH\EBB_firmware\app.X\source\ebb.c
                  __pa_53   0x003666    program     static D:\Projects\EggBot1-GH\EBB_firmware\app.X\source\ebb.c
                  __pa_54   0x00367e    program     static D:\Projects\EggBot1-GH\EBB_firmware\app.X\source\ebb.c
                  __pa_55   0x00368e    program     static D:\Projects\EggBot1-GH\EBB_firmware\app.X\source\ebb.c
                  __pa_56   0x00369e    program     static D:\Projects\EggBot1-GH\EBB_firmware\app.X\source\ebb.c
                  __pa_57   0x0036a8    program     static D:\Projects\EggBot1-GH\EBB_firmware\app.X\source\ebb.c
                  __pa_58   0x0036ae    program     static D:\Projects\EggBot1-GH\EBB_firmware\app.X\source\ebb.c
                  __pa_59   0x0036b8    program     static D:\Projects\EggBot1-GH\EBB_firmware\app.X\source\ebb.c
                  __pa_60   0x0036c2    program     static D:\Projects\EggBot1-GH\EBB_firmware\app.X\source\ebb.c
                  __pa_61   0x0036ce    program     static D:\Projects\EggBot1-GH\EBB_firmware\app.X\source\ebb.c
                  __pa_62   0x0036da    program     static D:\Projects\EggBot1-GH\EBB_firmware\app.X\source\ebb.c
                  __pa_63   0x0036f0    program     static D:\Projects\EggBot1-GH\EBB_firmware\app.X\source\ebb.c
                  __pa_64   0x0036f8    program     static D:\Projects\EggBot1-GH\EBB_firmware\app.X\source\ebb.c
                  __pa_65   0x003706    program     static D:\Projects\EggBot1-GH\EBB_firmware\app.X\source\ebb.c
                  __pa_66   0x003710    program     static D:\Projects\EggBot1-GH\EBB_firmware\app.X\source\ebb.c
                  __pa_67   0x00371a    program     static D:\Projects\EggBot1-GH\EBB_firmware\app.X\source\ebb.c
                  __pa_68   0x00372e    program     static D:\Projects\EggBot1-GH\EBB_firmware\app.X\source\ebb.c
                  __pa_69   0x003740    program     static D:\Projects\EggBot1-GH\EBB_firmware\app.X\source\ebb.c
                  __pa_70   0x003752    program     static D:\Projects\EggBot1-GH\EBB_firmware\app.X\source\ebb.c
                  __pa_71   0x003764    program     static D:\Projects\EggBot1-GH\EBB_firmware\app.X\source\ebb.c
                  __pa_72   0x003776    program     static D:\Projects\EggBot1-GH\EBB_firmware\app.X\source\ebb.c
                  __pa_73   0x003788    program     static D:\Projects\EggBot1-GH\EBB_firmware\app.X\source\ebb.c
                  __pa_74   0x00379a    program     static D:\Projects\EggBot1-GH\EBB_firmware\app.X\source\ebb.c
                  __pa_75   0x0037ac    program     static D:\Projects\EggBot1-GH\EBB_firmware\app.X\source\ebb.c
                  __pa_76   0x0037b8    program     static D:\Projects\EggBot1-GH\EBB_firmware\app.X\source\ebb.c
                  __pa_77   0x0037c4    program     static D:\Projects\EggBot1-GH\EBB_firmware\app.X\source\ebb.c
                  __pa_78   0x0037ca    program     static D:\Projects\EggBot1-GH\EBB_firmware\app.X\source\ebb.c
                  __pa_79   0x0037d0    program     static D:\Projects\EggBot1-GH\EBB_firmware\app.X\source\ebb.c
                  __pa_80   0x0037d6    program     static D:\Projects\EggBot1-GH\EBB_firmware\app.X\source\ebb.c
                  __pa_81   0x0037e2    program     static D:\Projects\EggBot1-GH\EBB_firmware\app.X\source\ebb.c
                  __pa_82   0x0037ec    program     static D:\Projects\EggBot1-GH\EBB_firmware\app.X\source\ebb.c
                  __pa_83   0x0037f6    program     static D:\Projects\EggBot1-GH\EBB_firmware\app.X\source\ebb.c
                  __pa_84   0x003800    program     static D:\Projects\EggBot1-GH\EBB_firmware\app.X\source\ebb.c
                  __pa_85   0x00380a    program     static D:\Projects\EggBot1-GH\EBB_firmware\app.X\source\ebb.c
                  __pa_86   0x00381a    program     static D:\Projects\EggBot1-GH\EBB_firmware\app.X\source\ebb.c
                  __pa_87   0x00382a    program     static D:\Projects\EggBot1-GH\EBB_firmware\app.X\source\ebb.c
                  __pa_88   0x00383a    program     static D:\Projects\EggBot1-GH\EBB_firmware\app.X\source\ebb.c
                  __pa_89   0x003840    program     static D:\Projects\EggBot1-GH\EBB_firmware\app.X\source\ebb.c
                  __pa_90   0x003850    program     static D:\Projects\EggBot1-GH\EBB_firmware\app.X\source\ebb.c
                  __pa_91   0x00385e    program     static D:\Projects\EggBot1-GH\EBB_firmware\app.X\source\ebb.c
                  __pa_92   0x00386c    program     static D:\Projects\EggBot1-GH\EBB_firmware\app.X\source\ebb.c
                  __pa_93   0x00387a    program     static D:\Projects\EggBot1-GH\EBB_firmware\app.X\source\ebb.c
                  __pa_94   0x003888    program     static D:\Projects\EggBot1-GH\EBB_firmware\app.X\source\ebb.c
                  __pa_95   0x003896    program     static D:\Projects\EggBot1-GH\EBB_firmware\app.X\source\ebb.c
                  __pa_96   0x0038a0    program     static D:\Projects\EggBot1-GH\EBB_firmware\app.X\source\ebb.c
                  __pa_97   0x0038aa    program     static D:\Projects\EggBot1-GH\EBB_firmware\app.X\source\ebb.c
                  __pa_98   0x0038b4    program     static D:\Projects\EggBot1-GH\EBB_firmware\app.X\source\ebb.c
                  __pa_99   0x0038be    program     static D:\Projects\EggBot1-GH\EBB_firmware\app.X\source\ebb.c
                 __pa_100   0x0038c8    program     static D:\Projects\EggBot1-GH\EBB_firmware\app.X\source\ebb.c
                 __pa_101   0x0038d2    program     static D:\Projects\EggBot1-GH\EBB_firmware\app.X\source\ebb.c
                 __pa_102   0x003920    program     static D:\Projects\EggBot1-GH\EBB_firmware\app.X\source\ebb.c
                 __pa_103   0x00392a    program     static D:\Projects\EggBot1-GH\EBB_firmware\app.X\source\ebb.c
                 __pa_104   0x003938    program     static D:\Projects\EggBot1-GH\EBB_firmware\app.X\source\ebb.c
                 __pa_105   0x00394e    program     static D:\Projects\EggBot1-GH\EBB_firmware\app.X\source\ebb.c
                 __pa_106   0x00395a    program     static D:\Projects\EggBot1-GH\EBB_firmware\app.X\source\ebb.c
                 __pa_107   0x003962    program     static D:\Projects\EggBot1-GH\EBB_firmware\app.X\source\ebb.c
                 __pa_108   0x00396e    program     static D:\Projects\EggBot1-GH\EBB_firmware\app.X\source\ebb.c
                 __pa_109   0x003994    program     static D:\Projects\EggBot1-GH\EBB_firmware\app.X\source\ebb.c
                 __pa_110   0x003998    program     static D:\Projects\EggBot1-GH\EBB_firmware\app.X\source\ebb.c
                 __pa_111   0x0039ac    program     static D:\Projects\EggBot1-GH\EBB_firmware\app.X\source\ebb.c
                 __pa_112   0x0039ba    program     static D:\Projects\EggBot1-GH\EBB_firmware\app.X\source\ebb.c
                 __pa_113   0x0039e0    program     static D:\Projects\EggBot1-GH\EBB_firmware\app.X\source\ebb.c
                 __pa_114   0x003a00    program     static D:\Projects\EggBot1-GH\EBB_firmware\app.X\source\ebb.c
                 __pa_115   0x003a16    program     static D:\Projects\EggBot1-GH\EBB_firmware\app.X\source\ebb.c
                 __pa_116   0x003a30    program     static D:\Projects\EggBot1-GH\EBB_firmware\app.X\source\ebb.c
                 __pa_117   0x003a3e    program     static D:\Projects\EggBot1-GH\EBB_firmware\app.X\source\ebb.c
                 __pa_118   0x003a48    program     static D:\Projects\EggBot1-GH\EBB_firmware\app.X\source\ebb.c
                 __pa_119   0x003a5a    program     static D:\Projects\EggBot1-GH\EBB_firmware\app.X\source\ebb.c
                 __pa_120   0x003a6c    program     static D:\Projects\EggBot1-GH\EBB_firmware\app.X\source\ebb.c
                 __pa_121   0x003a76    program     static D:\Projects\EggBot1-GH\EBB_firmware\app.X\source\ebb.c
                 __pa_122   0x003a7e    program     static D:\Projects\EggBot1-GH\EBB_firmware\app.X\source\ebb.c
                 __pa_123   0x003a86    program     static D:\Projects\EggBot1-GH\EBB_firmware\app.X\source\ebb.c
                 __pa_124   0x003a90    program     static D:\Projects\EggBot1-GH\EBB_firmware\app.X\source\ebb.c
                 __pa_125   0x003aa6    program     static D:\Projects\EggBot1-GH\EBB_firmware\app.X\source\ebb.c
                 __pa_126   0x003aaa    program     static D:\Projects\EggBot1-GH\EBB_firmware\app.X\source\ebb.c
                 __pa_127   0x003abc    program     static D:\Projects\EggBot1-GH\EBB_firmware\app.X\source\ebb.c
                 __pa_128   0x003ace    program     static D:\Projects\EggBot1-GH\EBB_firmware\app.X\source\ebb.c
                 __pa_129   0x003ae0    program     static D:\Projects\EggBot1-GH\EBB_firmware\app.X\source\ebb.c
                 __pa_130   0x003ae8    program     static D:\Projects\EggBot1-GH\EBB_firmware\app.X\source\ebb.c
                 __pa_131   0x003aec    program     static D:\Projects\EggBot1-GH\EBB_firmware\app.X\source\ebb.c
                 __pa_132   0x003af4    program     static D:\Projects\EggBot1-GH\EBB_firmware\app.X\source\ebb.c
                 __pa_133   0x003afe    program     static D:\Projects\EggBot1-GH\EBB_firmware\app.X\source\ebb.c
                 __pa_134   0x003b0e    program     static D:\Projects\EggBot1-GH\EBB_firmware\app.X\source\ebb.c
                 __pa_135   0x003b1e    program     static D:\Projects\EggBot1-GH\EBB_firmware\app.X\source\ebb.c
                 __pa_136   0x003b2c    program     static D:\Projects\EggBot1-GH\EBB_firmware\app.X\source\ebb.c
                 __pa_137   0x003b34    program     static D:\Projects\EggBot1-GH\EBB_firmware\app.X\source\ebb.c
                 __pa_138   0x003b3c    program     static D:\Projects\EggBot1-GH\EBB_firmware\app.X\source\ebb.c
                 __pa_139   0x003b48    program     static D:\Projects\EggBot1-GH\EBB_firmware\app.X\source\ebb.c
                 __pa_140   0x003b54    program     static D:\Projects\EggBot1-GH\EBB_firmware\app.X\source\ebb.c
                 __pa_141   0x003b60    program     static D:\Projects\EggBot1-GH\EBB_firmware\app.X\source\ebb.c
                 __pa_142   0x003b6e    program     static D:\Projects\EggBot1-GH\EBB_firmware\app.X\source\ebb.c
                 __pa_143   0x003b7c    program     static D:\Projects\EggBot1-GH\EBB_firmware\app.X\source\ebb.c
                 __pa_144   0x003b88    program     static D:\Projects\EggBot1-GH\EBB_firmware\app.X\source\ebb.c
                 __pa_145   0x003b8e    program     static D:\Projects\EggBot1-GH\EBB_firmware\app.X\source\ebb.c
                 __pa_146   0x003b96    program     static D:\Projects\EggBot1-GH\EBB_firmware\app.X\source\ebb.c
                 __pa_147   0x003b9e    program     static D:\Projects\EggBot1-GH\EBB_firmware\app.X\source\ebb.c
             __tmplbl_247   0x003b9e    program     static                          
             __tmplbl_240   0x003b9e    program     static                          
                 __pa_148   0x003ba6    program     static D:\Projects\EggBot1-GH\EBB_firmware\app.X\source\ebb.c
             __tmplbl_249   0x003ba6    program     static                          
             __tmplbl_248   0x003ba6    program     static                          
                 __pa_149   0x003bae    program     static D:\Projects\EggBot1-GH\EBB_firmware\app.X\source\ebb.c
             __tmplbl_250   0x003bae    program     static                          
                 __pa_150   0x003bb2    program     static D:\Projects\EggBot1-GH\EBB_firmware\app.X\source\ebb.c
                 __pa_151   0x003bb8    program     static D:\Projects\EggBot1-GH\EBB_firmware\app.X\source\ebb.c
                 __pa_152   0x003bbe    program     static D:\Projects\EggBot1-GH\EBB_firmware\app.X\source\ebb.c
                 __pa_153   0x003be2    program     static D:\Projects\EggBot1-GH\EBB_firmware\app.X\source\ebb.c
                 __pa_154   0x003bf6    program     static D:\Projects\EggBot1-GH\EBB_firmware\app.X\source\ebb.c
                 __pa_155   0x003c10    program     static D:\Projects\EggBot1-GH\EBB_firmware\app.X\source\ebb.c
                 __pa_156   0x003c1e    program     static D:\Projects\EggBot1-GH\EBB_firmware\app.X\source\ebb.c
                 __pa_157   0x003c3c    program     static D:\Projects\EggBot1-GH\EBB_firmware\app.X\source\ebb.c
                 __pa_158   0x003c56    program     static D:\Projects\EggBot1-GH\EBB_firmware\app.X\source\ebb.c
                 __pa_159   0x003c62    program     static D:\Projects\EggBot1-GH\EBB_firmware\app.X\source\ebb.c
                 __pa_160   0x003c7a    program     static D:\Projects\EggBot1-GH\EBB_firmware\app.X\source\ebb.c
                 __pa_161   0x003c86    program     static D:\Projects\EggBot1-GH\EBB_firmware\app.X\source\ebb.c
                 __pa_162   0x003c92    program     static D:\Projects\EggBot1-GH\EBB_firmware\app.X\source\ebb.c
                 __pa_163   0x003ca0    program     static D:\Projects\EggBot1-GH\EBB_firmware\app.X\source\ebb.c
             __tmplbl_246   0x003caa    program     static                          
             __tmplbl_245   0x003caa    program     static                          
             __tmplbl_244   0x003caa    program     static                          
                 __pa_164   0x003caa    program     static D:\Projects\EggBot1-GH\EBB_firmware\app.X\source\ebb.c
                 __pa_165   0x003cb2    program     static D:\Projects\EggBot1-GH\EBB_firmware\app.X\source\ebb.c
                 __pa_166   0x003cc4    program     static D:\Projects\EggBot1-GH\EBB_firmware\app.X\source\ebb.c
                 __pa_167   0x003cd2    program     static D:\Projects\EggBot1-GH\EBB_firmware\app.X\source\ebb.c
                 __pa_168   0x003ce4    program     static D:\Projects\EggBot1-GH\EBB_firmware\app.X\source\ebb.c
                 __pa_169   0x003cee    program     static D:\Projects\EggBot1-GH\EBB_firmware\app.X\source\ebb.c
                 __pa_170   0x003cf8    program     static D:\Projects\EggBot1-GH\EBB_firmware\app.X\source\ebb.c
                 __pa_171   0x003d00    program     static D:\Projects\EggBot1-GH\EBB_firmware\app.X\source\ebb.c
                 __pa_172   0x003d0e    program     static D:\Projects\EggBot1-GH\EBB_firmware\app.X\source\ebb.c
                 __pa_173   0x003d1c    program     static D:\Projects\EggBot1-GH\EBB_firmware\app.X\source\ebb.c
                 __pa_174   0x003d26    program     static D:\Projects\EggBot1-GH\EBB_firmware\app.X\source\ebb.c
                 __pa_175   0x003d32    program     static D:\Projects\EggBot1-GH\EBB_firmware\app.X\source\ebb.c
                 __pa_176   0x003d3c    program     static D:\Projects\EggBot1-GH\EBB_firmware\app.X\source\ebb.c
                 __pa_177   0x003d44    program     static D:\Projects\EggBot1-GH\EBB_firmware\app.X\source\ebb.c
                 __pa_178   0x003d4a    program     static D:\Projects\EggBot1-GH\EBB_firmware\app.X\source\ebb.c
                 __pa_179   0x003d52    program     static D:\Projects\EggBot1-GH\EBB_firmware\app.X\source\ebb.c
                 __pa_180   0x003d5a    program     static D:\Projects\EggBot1-GH\EBB_firmware\app.X\source\ebb.c
                 __pa_181   0x003d68    program     static D:\Projects\EggBot1-GH\EBB_firmware\app.X\source\ebb.c
                 __pa_182   0x003d78    program     static D:\Projects\EggBot1-GH\EBB_firmware\app.X\source\ebb.c
                 __pa_183   0x003d84    program     static D:\Projects\EggBot1-GH\EBB_firmware\app.X\source\ebb.c
                  low_ISR   0x003d8e    program     extern D:\Projects\EggBot1-GH\EBB_firmware\app.X\source\UBW.c
               fill_stack   0x004104    program     extern D:\Projects\EggBot1-GH\EBB_firmware\app.X\source\UBW.c
        ___while_lbl00051   0x004144    program     static                          
        ___while_lbl00052   0x00416e    program     static                          
       ___return_lbl00050   0x00416e    program     static                          
         check_high_water   0x004182    program     extern D:\Projects\EggBot1-GH\EBB_firmware\app.X\source\UBW.c
                 UserInit   0x0041e8    program     extern D:\Projects\EggBot1-GH\EBB_firmware\app.X\source\UBW.c
                ProcessIO   0x00435e    program     extern D:\Projects\EggBot1-GH\EBB_firmware\app.X\source\UBW.c
                 ebb_putc   0x004596    program     extern D:\Projects\EggBot1-GH\EBB_firmware\app.X\source\UBW.c
   check_and_send_TX_data   0x0045f4    program     extern D:\Projects\EggBot1-GH\EBB_firmware\app.X\source\UBW.c
             parse_packet   0x004640    program     extern D:\Projects\EggBot1-GH\EBB_firmware\app.X\source\UBW.c
            print_command   0x004c62    program     extern D:\Projects\EggBot1-GH\EBB_firmware\app.X\source\UBW.c
        print_line_ending   0x004c9e    program     extern D:\Projects\EggBot1-GH\EBB_firmware\app.X\source\UBW.c
           parse_R_packet   0x004ce4    program     extern D:\Projects\EggBot1-GH\EBB_firmware\app.X\source\UBW.c
          parse_CU_packet   0x004cf2    program     extern D:\Projects\EggBot1-GH\EBB_firmware\app.X\source\UBW.c
           ___if_lbl00218   0x004d48    program     static                          
              __tmplbl_81   0x004d6c    program     static                          
              __tmplbl_80   0x004d82    program     static                          
         ___else_lbl00221   0x004d8a    program     static                          
           ___if_lbl00220   0x004d8e    program     static                          
         ___else_lbl00320   0x004d90    program     static                          
              __tmplbl_83   0x004db4    program     static                          
              __tmplbl_82   0x004dca    program     static                          
         ___else_lbl00224   0x004dd2    program     static                          
           ___if_lbl00223   0x004dd6    program     static                          
         ___else_lbl00318   0x004dd8    program     static                          
         ___else_lbl00228   0x004e02    program     static                          
         ___else_lbl00226   0x004e1e    program     static                          
           ___if_lbl00227   0x004e22    program     static                          
           ___if_lbl00225   0x004e22    program     static                          
         ___else_lbl00316   0x004e24    program     static                          
           ___if_lbl00229   0x004e60    program     static                          
        ___while_lbl00230   0x004e60    program     static                          
        ___while_lbl00231   0x004e6a    program     static                          
         ___else_lbl00314   0x004e72    program     static                          
         ___else_lbl00235   0x004e9c    program     static                          
         ___else_lbl00233   0x004eb8    program     static                          
           ___if_lbl00232   0x004ebc    program     static                          
           ___if_lbl00234   0x004ebc    program     static                          
         ___else_lbl00312   0x004ebe    program     static                          
         ___else_lbl00237   0x004ee8    program     static                          
           ___if_lbl00236   0x004eee    program     static                          
         ___else_lbl00310   0x004ef0    program     static                          
           ___if_lbl00238   0x004f24    program     static                          
         ___else_lbl00308   0x004f26    program     static                          
         ___else_lbl00306   0x004f56    program     static                          
         ___else_lbl00240   0x004f88    program     static                          
           ___if_lbl00239   0x004f90    program     static                          
         ___else_lbl00304   0x004f92    program     static                          
         ___else_lbl00242   0x004fc4    program     static                          
           ___if_lbl00241   0x004fc8    program     static                          
         ___else_lbl00302   0x004fca    program     static                          
         ___else_lbl00300   0x004ff8    program     static                          
         ___else_lbl00250   0x005036    program     static                          
       ___case_2_lbl00244   0x00504c    program     static                          
      ___default_lbl00247   0x005060    program     static                          
       ___case_1_lbl00246   0x005060    program     static                          
       ___case_0_lbl00245   0x005060    program     static                          
       ___case_3_lbl00248   0x005066    program     static                          
   ___switchexit_lbl00243   0x005074    program     static                          
           ___if_lbl00249   0x005074    program     static                          
         ___else_lbl00298   0x00507a    program     static                          
         ___else_lbl00254   0x0050a2    program     static                          
         ___else_lbl00252   0x0050c2    program     static                          
           ___if_lbl00253   0x0050c6    program     static                          
           ___if_lbl00251   0x0050c6    program     static                          
         ___else_lbl00296   0x0050c8    program     static                          
         ___else_lbl00258   0x0050f2    program     static                          
         ___else_lbl00256   0x00512c    program     static                          
           ___if_lbl00257   0x005130    program     static                          
           ___if_lbl00255   0x005130    program     static                          
         ___else_lbl00294   0x005132    program     static                          
         ___else_lbl00262   0x00515c    program     static                          
         ___else_lbl00260   0x005196    program     static                          
           ___if_lbl00259   0x00519a    program     static                          
           ___if_lbl00261   0x00519a    program     static                          
         ___else_lbl00292   0x00519c    program     static                          
         ___else_lbl00266   0x0051c4    program     static                          
         ___else_lbl00264   0x0051fc    program     static                          
           ___if_lbl00263   0x005200    program     static                          
           ___if_lbl00265   0x005200    program     static                          
         ___else_lbl00290   0x005202    program     static                          
        ___while_lbl00267   0x00521e    program     static                          
        ___while_lbl00268   0x005248    program     static                          
         ___else_lbl00288   0x00524a    program     static                          
         ___else_lbl00272   0x005270    program     static                          
         ___else_lbl00270   0x00528a    program     static                          
           ___if_lbl00271   0x00528e    program     static                          
           ___if_lbl00269   0x00528e    program     static                          
         ___else_lbl00286   0x005290    program     static                          
         ___else_lbl00276   0x0052b8    program     static                          
         ___else_lbl00274   0x0052d2    program     static                          
           ___if_lbl00273   0x0052d6    program     static                          
           ___if_lbl00275   0x0052d6    program     static                          
         ___else_lbl00284   0x0052d8    program     static                          
         ___else_lbl00280   0x005304    program     static                          
         ___else_lbl00278   0x005320    program     static                          
           ___if_lbl00279   0x005324    program     static                          
           ___if_lbl00277   0x005324    program     static                          
         ___else_lbl00282   0x005326    program     static                          
           ___if_lbl00319   0x00532a    program     static                          
           ___if_lbl00317   0x00532a    program     static                          
           ___if_lbl00315   0x00532a    program     static                          
           ___if_lbl00313   0x00532a    program     static                          
           ___if_lbl00311   0x00532a    program     static                          
           ___if_lbl00309   0x00532a    program     static                          
           ___if_lbl00307   0x00532a    program     static                          
           ___if_lbl00305   0x00532a    program     static                          
           ___if_lbl00303   0x00532a    program     static                          
           ___if_lbl00301   0x00532a    program     static                          
           ___if_lbl00299   0x00532a    program     static                          
           ___if_lbl00297   0x00532a    program     static                          
           ___if_lbl00295   0x00532a    program     static                          
           ___if_lbl00293   0x00532a    program     static                          
           ___if_lbl00291   0x00532a    program     static                          
           ___if_lbl00289   0x00532a    program     static                          
           ___if_lbl00287   0x00532a    program     static                          
           ___if_lbl00285   0x00532a    program     static                          
           ___if_lbl00283   0x00532a    program     static                          
           ___if_lbl00281   0x00532a    program     static                          
       ___return_lbl00217   0x005330    program     static                          
          parse_QU_packet   0x005344    program     extern D:\Projects\EggBot1-GH\EBB_firmware\app.X\source\UBW.c
           parse_C_packet   0x005464    program     extern D:\Projects\EggBot1-GH\EBB_firmware\app.X\source\UBW.c
          AnalogConfigure   0x0054be    program     extern D:\Projects\EggBot1-GH\EBB_firmware\app.X\source\UBW.c
          parse_AC_packet   0x005590    program     extern D:\Projects\EggBot1-GH\EBB_firmware\app.X\source\UBW.c
           parse_O_packet   0x0055c4    program     extern D:\Projects\EggBot1-GH\EBB_firmware\app.X\source\UBW.c
           parse_I_packet   0x005630    program     extern D:\Projects\EggBot1-GH\EBB_firmware\app.X\source\UBW.c
           parse_V_packet   0x00565c    program     extern D:\Projects\EggBot1-GH\EBB_firmware\app.X\source\UBW.c
           parse_A_packet   0x00566a    program     extern D:\Projects\EggBot1-GH\EBB_firmware\app.X\source\UBW.c
          parse_MW_packet   0x00572e    program     extern D:\Projects\EggBot1-GH\EBB_firmware\app.X\source\UBW.c
          parse_MR_packet   0x005764    program     extern D:\Projects\EggBot1-GH\EBB_firmware\app.X\source\UBW.c
          parse_PD_packet   0x0057a2    program     extern D:\Projects\EggBot1-GH\EBB_firmware\app.X\source\UBW.c
          parse_PI_packet   0x0058da    program     extern D:\Projects\EggBot1-GH\EBB_firmware\app.X\source\UBW.c
          parse_PO_packet   0x0059c4    program     extern D:\Projects\EggBot1-GH\EBB_firmware\app.X\source\UBW.c
                LongDelay   0x005afc    program     extern D:\Projects\EggBot1-GH\EBB_firmware\app.X\source\UBW.c
          ___for_lbl00446   0x005b08    program     static                          
        ___while_lbl00444   0x005b10    program     static                          
          ___for_lbl00442   0x005b1e    program     static                          
        ___while_lbl00445   0x005b1e    program     static                          
       ___return_lbl00441   0x005b22    program     static                          
          ___for_lbl00443   0x005b22    program     static                          
          parse_BL_packet   0x005b2c    program     extern D:\Projects\EggBot1-GH\EBB_firmware\app.X\source\UBW.c
       ___return_lbl00447   0x005b3a    program     static                          
          parse_RB_packet   0x005b3c    program     extern D:\Projects\EggBot1-GH\EBB_firmware\app.X\source\UBW.c
       ___return_lbl00448   0x005b48    program     static                          
          parse_QR_packet   0x005b4a    program     extern D:\Projects\EggBot1-GH\EBB_firmware\app.X\source\UBW.c
          parse_SR_packet   0x005b6a    program     extern D:\Projects\EggBot1-GH\EBB_firmware\app.X\source\UBW.c
          parse_CK_packet   0x005bd0    program     extern D:\Projects\EggBot1-GH\EBB_firmware\app.X\source\UBW.c
populateDeviceStringWithName   0x005d08    program     extern D:\Projects\EggBot1-GH\EBB_firmware\app.X\source\UBW.c
          parse_ST_packet   0x005d8e    program     extern D:\Projects\EggBot1-GH\EBB_firmware\app.X\source\UBW.c
          parse_QT_packet   0x005dfa    program     extern D:\Projects\EggBot1-GH\EBB_firmware\app.X\source\UBW.c
           extract_string   0x005e3a    program     extern D:\Projects\EggBot1-GH\EBB_firmware\app.X\source\UBW.c
           extract_number   0x005eb0    program     extern D:\Projects\EggBot1-GH\EBB_firmware\app.X\source\UBW.c
            extract_digit   0x006122    program     extern D:\Projects\EggBot1-GH\EBB_firmware\app.X\source\UBW.c
             print_status   0x0061f0    program     extern D:\Projects\EggBot1-GH\EBB_firmware\app.X\source\UBW.c
           BlinkUSBStatus   0x006202    program     extern D:\Projects\EggBot1-GH\EBB_firmware\app.X\source\UBW.c
         SetPinLATFromRPn   0x0062de    program     extern D:\Projects\EggBot1-GH\EBB_firmware\app.X\source\UBW.c
        SetPinTRISFromRPn   0x00633a    program     extern D:\Projects\EggBot1-GH\EBB_firmware\app.X\source\UBW.c
                   __pa_0   0x006396    program     static D:\Projects\EggBot1-GH\EBB_firmware\app.X\source\UBW.c
                   __pa_1   0x00639c    program     static D:\Projects\EggBot1-GH\EBB_firmware\app.X\source\UBW.c
                   __pa_2   0x0063a2    program     static D:\Projects\EggBot1-GH\EBB_firmware\app.X\source\UBW.c
                   __pa_3   0x0063aa    program     static D:\Projects\EggBot1-GH\EBB_firmware\app.X\source\UBW.c
                   __pa_4   0x0063b0    program     static D:\Projects\EggBot1-GH\EBB_firmware\app.X\source\UBW.c
                   __pa_5   0x0063b8    program     static D:\Projects\EggBot1-GH\EBB_firmware\app.X\source\UBW.c
                   __pa_6   0x0063c0    program     static D:\Projects\EggBot1-GH\EBB_firmware\app.X\source\UBW.c
                   __pa_7   0x0063ce    program     static D:\Projects\EggBot1-GH\EBB_firmware\app.X\source\UBW.c
             __tmplbl_225   0x0063d8    program     static                          
             __tmplbl_224   0x0063d8    program     static                          
             __tmplbl_220   0x0063d8    program     static                          
             __tmplbl_229   0x0063d8    program     static                          
             __tmplbl_231   0x0063d8    program     static                          
             __tmplbl_219   0x0063d8    program     static                          
             __tmplbl_162   0x0063d8    program     static                          
             __tmplbl_161   0x0063d8    program     static                          
             __tmplbl_149   0x0063d8    program     static                          
             __tmplbl_148   0x0063d8    program     static                          
                   __pa_8   0x0063d8    program     static D:\Projects\EggBot1-GH\EBB_firmware\app.X\source\UBW.c
             __tmplbl_163   0x0063d8    program     static                          
             __tmplbl_205   0x0063d8    program     static                          
             __tmplbl_206   0x0063d8    program     static                          
             __tmplbl_208   0x0063d8    program     static                          
             __tmplbl_210   0x0063d8    program     static                          
             __tmplbl_211   0x0063d8    program     static                          
             __tmplbl_212   0x0063d8    program     static                          
             __tmplbl_213   0x0063d8    program     static                          
             __tmplbl_214   0x0063d8    program     static                          
             __tmplbl_218   0x0063d8    program     static                          
                   __pa_9   0x0063e0    program     static D:\Projects\EggBot1-GH\EBB_firmware\app.X\source\UBW.c
                  __pa_10   0x0063ea    program     static D:\Projects\EggBot1-GH\EBB_firmware\app.X\source\UBW.c
                  __pa_11   0x0063f4    program     static D:\Projects\EggBot1-GH\EBB_firmware\app.X\source\UBW.c
                  __pa_12   0x0063fe    program     static D:\Projects\EggBot1-GH\EBB_firmware\app.X\source\UBW.c
                  __pa_13   0x00640c    program     static D:\Projects\EggBot1-GH\EBB_firmware\app.X\source\UBW.c
                  __pa_14   0x006424    program     static D:\Projects\EggBot1-GH\EBB_firmware\app.X\source\UBW.c
                  __pa_15   0x00642c    program     static D:\Projects\EggBot1-GH\EBB_firmware\app.X\source\UBW.c
                  __pa_16   0x006434    program     static D:\Projects\EggBot1-GH\EBB_firmware\app.X\source\UBW.c
                  __pa_17   0x006440    program     static D:\Projects\EggBot1-GH\EBB_firmware\app.X\source\UBW.c
                  __pa_18   0x00644a    program     static D:\Projects\EggBot1-GH\EBB_firmware\app.X\source\UBW.c
                  __pa_19   0x006452    program     static D:\Projects\EggBot1-GH\EBB_firmware\app.X\source\UBW.c
                  __pa_20   0x00645a    program     static D:\Projects\EggBot1-GH\EBB_firmware\app.X\source\UBW.c
                  __pa_21   0x00646e    program     static D:\Projects\EggBot1-GH\EBB_firmware\app.X\source\UBW.c
                  __pa_22   0x00647a    program     static D:\Projects\EggBot1-GH\EBB_firmware\app.X\source\UBW.c
                  __pa_23   0x006484    program     static D:\Projects\EggBot1-GH\EBB_firmware\app.X\source\UBW.c
                  __pa_24   0x006492    program     static D:\Projects\EggBot1-GH\EBB_firmware\app.X\source\UBW.c
                  __pa_25   0x0064a4    program     static D:\Projects\EggBot1-GH\EBB_firmware\app.X\source\UBW.c
                  __pa_26   0x0064ac    program     static D:\Projects\EggBot1-GH\EBB_firmware\app.X\source\UBW.c
                  __pa_27   0x0064b8    program     static D:\Projects\EggBot1-GH\EBB_firmware\app.X\source\UBW.c
                  __pa_28   0x0064da    program     static D:\Projects\EggBot1-GH\EBB_firmware\app.X\source\UBW.c
                  __pa_29   0x0064e8    program     static D:\Projects\EggBot1-GH\EBB_firmware\app.X\source\UBW.c
                  __pa_30   0x0064f6    program     static D:\Projects\EggBot1-GH\EBB_firmware\app.X\source\UBW.c
                  __pa_31   0x006518    program     static D:\Projects\EggBot1-GH\EBB_firmware\app.X\source\UBW.c
                  __pa_32   0x006522    program     static D:\Projects\EggBot1-GH\EBB_firmware\app.X\source\UBW.c
                  __pa_33   0x006528    program     static D:\Projects\EggBot1-GH\EBB_firmware\app.X\source\UBW.c
                  __pa_34   0x006536    program     static D:\Projects\EggBot1-GH\EBB_firmware\app.X\source\UBW.c
                  __pa_35   0x00653c    program     static D:\Projects\EggBot1-GH\EBB_firmware\app.X\source\UBW.c
                  __pa_36   0x006558    program     static D:\Projects\EggBot1-GH\EBB_firmware\app.X\source\UBW.c
                  __pa_37   0x006562    program     static D:\Projects\EggBot1-GH\EBB_firmware\app.X\source\UBW.c
                  __pa_38   0x00656c    program     static D:\Projects\EggBot1-GH\EBB_firmware\app.X\source\UBW.c
                  __pa_39   0x006576    program     static D:\Projects\EggBot1-GH\EBB_firmware\app.X\source\UBW.c
                  __pa_40   0x006580    program     static D:\Projects\EggBot1-GH\EBB_firmware\app.X\source\UBW.c
                  __pa_41   0x00658a    program     static D:\Projects\EggBot1-GH\EBB_firmware\app.X\source\UBW.c
                  __pa_42   0x0065a2    program     static D:\Projects\EggBot1-GH\EBB_firmware\app.X\source\UBW.c
                  __pa_43   0x0065aa    program     static D:\Projects\EggBot1-GH\EBB_firmware\app.X\source\UBW.c
                  __pa_44   0x0065b0    program     static D:\Projects\EggBot1-GH\EBB_firmware\app.X\source\UBW.c
                  __pa_45   0x0065ba    program     static D:\Projects\EggBot1-GH\EBB_firmware\app.X\source\UBW.c
                  __pa_46   0x0065c6    program     static D:\Projects\EggBot1-GH\EBB_firmware\app.X\source\UBW.c
                  __pa_47   0x0065d2    program     static D:\Projects\EggBot1-GH\EBB_firmware\app.X\source\UBW.c
                  __pa_48   0x0065dc    program     static D:\Projects\EggBot1-GH\EBB_firmware\app.X\source\UBW.c
                  __pa_49   0x0065ea    program     static D:\Projects\EggBot1-GH\EBB_firmware\app.X\source\UBW.c
                  __pa_50   0x0065f8    program     static D:\Projects\EggBot1-GH\EBB_firmware\app.X\source\UBW.c
                  __pa_51   0x006606    program     static D:\Projects\EggBot1-GH\EBB_firmware\app.X\source\UBW.c
                  __pa_52   0x006614    program     static D:\Projects\EggBot1-GH\EBB_firmware\app.X\source\UBW.c
                  __pa_53   0x006622    program     static D:\Projects\EggBot1-GH\EBB_firmware\app.X\source\UBW.c
                  __pa_54   0x006630    program     static D:\Projects\EggBot1-GH\EBB_firmware\app.X\source\UBW.c
                  __pa_55   0x00663a    program     static D:\Projects\EggBot1-GH\EBB_firmware\app.X\source\UBW.c
                  __pa_56   0x006644    program     static D:\Projects\EggBot1-GH\EBB_firmware\app.X\source\UBW.c
                  __pa_57   0x00664e    program     static D:\Projects\EggBot1-GH\EBB_firmware\app.X\source\UBW.c
                  __pa_58   0x006656    program     static D:\Projects\EggBot1-GH\EBB_firmware\app.X\source\UBW.c
                  __pa_59   0x00665e    program     static D:\Projects\EggBot1-GH\EBB_firmware\app.X\source\UBW.c
                  __pa_60   0x00666c    program     static D:\Projects\EggBot1-GH\EBB_firmware\app.X\source\UBW.c
                  __pa_61   0x006676    program     static D:\Projects\EggBot1-GH\EBB_firmware\app.X\source\UBW.c
                  __pa_62   0x00667c    program     static D:\Projects\EggBot1-GH\EBB_firmware\app.X\source\UBW.c
                  __pa_63   0x006682    program     static D:\Projects\EggBot1-GH\EBB_firmware\app.X\source\UBW.c
                  __pa_64   0x00669c    program     static D:\Projects\EggBot1-GH\EBB_firmware\app.X\source\UBW.c
                  __pa_65   0x0066a6    program     static D:\Projects\EggBot1-GH\EBB_firmware\app.X\source\UBW.c
                  __pa_66   0x0066ae    program     static D:\Projects\EggBot1-GH\EBB_firmware\app.X\source\UBW.c
                  __pa_67   0x0066b4    program     static D:\Projects\EggBot1-GH\EBB_firmware\app.X\source\UBW.c
                  __pa_68   0x0066be    program     static D:\Projects\EggBot1-GH\EBB_firmware\app.X\source\UBW.c
                  __pa_69   0x0066ca    program     static D:\Projects\EggBot1-GH\EBB_firmware\app.X\source\UBW.c
                  __pa_70   0x0066d4    program     static D:\Projects\EggBot1-GH\EBB_firmware\app.X\source\UBW.c
                  __pa_71   0x0066ea    program     static D:\Projects\EggBot1-GH\EBB_firmware\app.X\source\UBW.c
                  __pa_72   0x0066f8    program     static D:\Projects\EggBot1-GH\EBB_firmware\app.X\source\UBW.c
                  __pa_73   0x00670a    program     static D:\Projects\EggBot1-GH\EBB_firmware\app.X\source\UBW.c
                  __pa_74   0x006710    program     static D:\Projects\EggBot1-GH\EBB_firmware\app.X\source\UBW.c
                  __pa_75   0x006720    program     static D:\Projects\EggBot1-GH\EBB_firmware\app.X\source\UBW.c
                  __pa_76   0x006730    program     static D:\Projects\EggBot1-GH\EBB_firmware\app.X\source\UBW.c
                  __pa_77   0x00673a    program     static D:\Projects\EggBot1-GH\EBB_firmware\app.X\source\UBW.c
                  __pa_78   0x006744    program     static D:\Projects\EggBot1-GH\EBB_firmware\app.X\source\UBW.c
                  __pa_79   0x00674c    program     static D:\Projects\EggBot1-GH\EBB_firmware\app.X\source\UBW.c
                  __pa_80   0x006752    program     static D:\Projects\EggBot1-GH\EBB_firmware\app.X\source\UBW.c
                  __pa_81   0x00675e    program     static D:\Projects\EggBot1-GH\EBB_firmware\app.X\source\UBW.c
                  __pa_82   0x00676c    program     static D:\Projects\EggBot1-GH\EBB_firmware\app.X\source\UBW.c
                  __pa_83   0x00677a    program     static D:\Projects\EggBot1-GH\EBB_firmware\app.X\source\UBW.c
                  __pa_84   0x006786    program     static D:\Projects\EggBot1-GH\EBB_firmware\app.X\source\UBW.c
                  __pa_85   0x006794    program     static D:\Projects\EggBot1-GH\EBB_firmware\app.X\source\UBW.c
                  __pa_86   0x0067a0    program     static D:\Projects\EggBot1-GH\EBB_firmware\app.X\source\UBW.c
                  __pa_87   0x0067aa    program     static D:\Projects\EggBot1-GH\EBB_firmware\app.X\source\UBW.c
                  __pa_88   0x0067b8    program     static D:\Projects\EggBot1-GH\EBB_firmware\app.X\source\UBW.c
                  __pa_89   0x0067c4    program     static D:\Projects\EggBot1-GH\EBB_firmware\app.X\source\UBW.c
                  __pa_90   0x0067d0    program     static D:\Projects\EggBot1-GH\EBB_firmware\app.X\source\UBW.c
                  __pa_91   0x0067da    program     static D:\Projects\EggBot1-GH\EBB_firmware\app.X\source\UBW.c
                  __pa_92   0x0067e4    program     static D:\Projects\EggBot1-GH\EBB_firmware\app.X\source\UBW.c
                  __pa_93   0x0067ee    program     static D:\Projects\EggBot1-GH\EBB_firmware\app.X\source\UBW.c
                  __pa_94   0x0067f6    program     static D:\Projects\EggBot1-GH\EBB_firmware\app.X\source\UBW.c
                  __pa_95   0x0067fe    program     static D:\Projects\EggBot1-GH\EBB_firmware\app.X\source\UBW.c
                  __pa_96   0x006806    program     static D:\Projects\EggBot1-GH\EBB_firmware\app.X\source\UBW.c
                  __pa_97   0x006814    program     static D:\Projects\EggBot1-GH\EBB_firmware\app.X\source\UBW.c
                  __pa_98   0x006820    program     static D:\Projects\EggBot1-GH\EBB_firmware\app.X\source\UBW.c
                  __pa_99   0x006826    program     static D:\Projects\EggBot1-GH\EBB_firmware\app.X\source\UBW.c
                 __pa_100   0x00682e    program     static D:\Projects\EggBot1-GH\EBB_firmware\app.X\source\UBW.c
                 __pa_101   0x006838    program     static D:\Projects\EggBot1-GH\EBB_firmware\app.X\source\UBW.c
                 __pa_102   0x006840    program     static D:\Projects\EggBot1-GH\EBB_firmware\app.X\source\UBW.c
                 __pa_103   0x006848    program     static D:\Projects\EggBot1-GH\EBB_firmware\app.X\source\UBW.c
                 __pa_104   0x006850    program     static D:\Projects\EggBot1-GH\EBB_firmware\app.X\source\UBW.c
                 __pa_105   0x006858    program     static D:\Projects\EggBot1-GH\EBB_firmware\app.X\source\UBW.c
                 __pa_106   0x006860    program     static D:\Projects\EggBot1-GH\EBB_firmware\app.X\source\UBW.c
                 __pa_107   0x006868    program     static D:\Projects\EggBot1-GH\EBB_firmware\app.X\source\UBW.c
                 __pa_108   0x00686e    program     static D:\Projects\EggBot1-GH\EBB_firmware\app.X\source\UBW.c
                 __pa_109   0x00687c    program     static D:\Projects\EggBot1-GH\EBB_firmware\app.X\source\UBW.c
                 __pa_110   0x006884    program     static D:\Projects\EggBot1-GH\EBB_firmware\app.X\source\UBW.c
                 __pa_111   0x00688e    program     static D:\Projects\EggBot1-GH\EBB_firmware\app.X\source\UBW.c
                 __pa_112   0x006898    program     static D:\Projects\EggBot1-GH\EBB_firmware\app.X\source\UBW.c
            USBDeviceInit   0x0068a0    program     extern D:\Projects\EggBot1-GH\EBB_firmware\Microchip\USB\usb_device.c
           USBDeviceTasks   0x00696c    program     extern D:\Projects\EggBot1-GH\EBB_firmware\Microchip\USB\usb_device.c
        USBEnableEndpoint   0x006ac6    program     extern D:\Projects\EggBot1-GH\EBB_firmware\Microchip\USB\usb_device.c
     USBTransferOnePacket   0x006b0e    program     extern D:\Projects\EggBot1-GH\EBB_firmware\Microchip\USB\usb_device.c
         USBStallEndpoint   0x006b9a    program     extern D:\Projects\EggBot1-GH\EBB_firmware\Microchip\USB\usb_device.c
              USBCancelIO   0x006bcc    program     extern D:\Projects\EggBot1-GH\EBB_firmware\Microchip\USB\usb_device.c
USBCtrlEPAllowStatusStage   0x006c02    program     extern D:\Projects\EggBot1-GH\EBB_firmware\Microchip\USB\usb_device.c
  USBCtrlEPAllowDataStage   0x006c4e    program     extern D:\Projects\EggBot1-GH\EBB_firmware\Microchip\USB\usb_device.c
     USBConfigureEndpoint   0x006c8c    program     static D:\Projects\EggBot1-GH\EBB_firmware\Microchip\USB\usb_device.c
 USBCtrlEPServiceComplete   0x006ce8    program     static D:\Projects\EggBot1-GH\EBB_firmware\Microchip\USB\usb_device.c
      USBCtrlTrfTxService   0x006d42    program     static D:\Projects\EggBot1-GH\EBB_firmware\Microchip\USB\usb_device.c
      USBCtrlTrfRxService   0x006dc2    program     static D:\Projects\EggBot1-GH\EBB_firmware\Microchip\USB\usb_device.c
      USBStdSetCfgHandler   0x006e8a    program     static D:\Projects\EggBot1-GH\EBB_firmware\Microchip\USB\usb_device.c
      USBStdGetDscHandler   0x006f02    program     static D:\Projects\EggBot1-GH\EBB_firmware\Microchip\USB\usb_device.c
   USBStdGetStatusHandler   0x006fa8    program     static D:\Projects\EggBot1-GH\EBB_firmware\Microchip\USB\usb_device.c
          USBStallHandler   0x00701e    program     static D:\Projects\EggBot1-GH\EBB_firmware\Microchip\USB\usb_device.c
               USBSuspend   0x007040    program     static D:\Projects\EggBot1-GH\EBB_firmware\Microchip\USB\usb_device.c
       USBWakeFromSuspend   0x007056    program     static D:\Projects\EggBot1-GH\EBB_firmware\Microchip\USB\usb_device.c
         USBCtrlEPService   0x007070    program     static D:\Projects\EggBot1-GH\EBB_firmware\Microchip\USB\usb_device.c
   USBCtrlTrfSetupHandler   0x0070fe    program     static D:\Projects\EggBot1-GH\EBB_firmware\Microchip\USB\usb_device.c
     USBCtrlTrfOutHandler   0x007134    program     static D:\Projects\EggBot1-GH\EBB_firmware\Microchip\USB\usb_device.c
      USBCtrlTrfInHandler   0x007152    program     static D:\Projects\EggBot1-GH\EBB_firmware\Microchip\USB\usb_device.c
       USBCheckStdRequest   0x0071cc    program     static D:\Projects\EggBot1-GH\EBB_firmware\Microchip\USB\usb_device.c
  USBStdFeatureReqHandler   0x007274    program     static D:\Projects\EggBot1-GH\EBB_firmware\Microchip\USB\usb_device.c
                   __pa_0   0x00739e    program     static D:\Projects\EggBot1-GH\EBB_firmware\Microchip\USB\usb_device.c
                   __pa_1   0x0073a6    program     static D:\Projects\EggBot1-GH\EBB_firmware\Microchip\USB\usb_device.c
                   __pa_2   0x0073b0    program     static D:\Projects\EggBot1-GH\EBB_firmware\Microchip\USB\usb_device.c
                   __pa_3   0x0073b8    program     static D:\Projects\EggBot1-GH\EBB_firmware\Microchip\USB\usb_device.c
                   __pa_4   0x0073c2    program     static D:\Projects\EggBot1-GH\EBB_firmware\Microchip\USB\usb_device.c
                   __pa_5   0x0073cc    program     static D:\Projects\EggBot1-GH\EBB_firmware\Microchip\USB\usb_device.c
              __tmplbl_40   0x0073d6    program     static                          
              __tmplbl_39   0x0073d6    program     static                          
              __tmplbl_38   0x0073d6    program     static                          
              __tmplbl_35   0x0073d6    program     static                          
                   __pa_6   0x0073d6    program     static D:\Projects\EggBot1-GH\EBB_firmware\Microchip\USB\usb_device.c
              __tmplbl_24   0x0073d6    program     static                          
                   __pa_7   0x0073de    program     static D:\Projects\EggBot1-GH\EBB_firmware\Microchip\USB\usb_device.c
                   __pa_8   0x0073ee    program     static D:\Projects\EggBot1-GH\EBB_firmware\Microchip\USB\usb_device.c
                   __pa_9   0x0073f8    program     static D:\Projects\EggBot1-GH\EBB_firmware\Microchip\USB\usb_device.c
                  __pa_10   0x007404    program     static D:\Projects\EggBot1-GH\EBB_firmware\Microchip\USB\usb_device.c
                  __pa_11   0x007414    program     static D:\Projects\EggBot1-GH\EBB_firmware\Microchip\USB\usb_device.c
                  __pa_12   0x00741e    program     static D:\Projects\EggBot1-GH\EBB_firmware\Microchip\USB\usb_device.c
                  __pa_13   0x007432    program     static D:\Projects\EggBot1-GH\EBB_firmware\Microchip\USB\usb_device.c
                  __pa_14   0x007446    program     static D:\Projects\EggBot1-GH\EBB_firmware\Microchip\USB\usb_device.c
                  __pa_15   0x007452    program     static D:\Projects\EggBot1-GH\EBB_firmware\Microchip\USB\usb_device.c
                  __pa_16   0x00746c    program     static D:\Projects\EggBot1-GH\EBB_firmware\Microchip\USB\usb_device.c
                  __pa_17   0x007478    program     static D:\Projects\EggBot1-GH\EBB_firmware\Microchip\USB\usb_device.c
                  __pa_18   0x007484    program     static D:\Projects\EggBot1-GH\EBB_firmware\Microchip\USB\usb_device.c
                  __pa_19   0x00748c    program     static D:\Projects\EggBot1-GH\EBB_firmware\Microchip\USB\usb_device.c
                  __pa_20   0x007494    program     static D:\Projects\EggBot1-GH\EBB_firmware\Microchip\USB\usb_device.c
                  __pa_21   0x0074a0    program     static D:\Projects\EggBot1-GH\EBB_firmware\Microchip\USB\usb_device.c
                  __pa_22   0x0074b0    program     static D:\Projects\EggBot1-GH\EBB_firmware\Microchip\USB\usb_device.c
                  __pa_23   0x0074be    program     static D:\Projects\EggBot1-GH\EBB_firmware\Microchip\USB\usb_device.c
                  __pa_24   0x0074cc    program     static D:\Projects\EggBot1-GH\EBB_firmware\Microchip\USB\usb_device.c
                  __pa_25   0x0074da    program     static D:\Projects\EggBot1-GH\EBB_firmware\Microchip\USB\usb_device.c
                  __pa_26   0x0074e8    program     static D:\Projects\EggBot1-GH\EBB_firmware\Microchip\USB\usb_device.c
                  __pa_27   0x0074f2    program     static D:\Projects\EggBot1-GH\EBB_firmware\Microchip\USB\usb_device.c
                  __pa_28   0x00750a    program     static D:\Projects\EggBot1-GH\EBB_firmware\Microchip\USB\usb_device.c
                  __pa_29   0x007516    program     static D:\Projects\EggBot1-GH\EBB_firmware\Microchip\USB\usb_device.c
                  __pa_30   0x00751e    program     static D:\Projects\EggBot1-GH\EBB_firmware\Microchip\USB\usb_device.c
                  __pa_31   0x007532    program     static D:\Projects\EggBot1-GH\EBB_firmware\Microchip\USB\usb_device.c
                  __pa_32   0x007544    program     static D:\Projects\EggBot1-GH\EBB_firmware\Microchip\USB\usb_device.c
                  __pa_33   0x007552    program     static D:\Projects\EggBot1-GH\EBB_firmware\Microchip\USB\usb_device.c
                  __pa_34   0x00755c    program     static D:\Projects\EggBot1-GH\EBB_firmware\Microchip\USB\usb_device.c
                  __pa_35   0x007566    program     static D:\Projects\EggBot1-GH\EBB_firmware\Microchip\USB\usb_device.c
                  __pa_36   0x00756c    program     static D:\Projects\EggBot1-GH\EBB_firmware\Microchip\USB\usb_device.c
                  __pa_37   0x007574    program     static D:\Projects\EggBot1-GH\EBB_firmware\Microchip\USB\usb_device.c
                  __pa_38   0x00757a    program     static D:\Projects\EggBot1-GH\EBB_firmware\Microchip\USB\usb_device.c
                  __pa_39   0x007588    program     static D:\Projects\EggBot1-GH\EBB_firmware\Microchip\USB\usb_device.c
                  __pa_40   0x007596    program     static D:\Projects\EggBot1-GH\EBB_firmware\Microchip\USB\usb_device.c
                  __pa_41   0x0075a4    program     static D:\Projects\EggBot1-GH\EBB_firmware\Microchip\USB\usb_device.c
                  __pa_42   0x0075ae    program     static D:\Projects\EggBot1-GH\EBB_firmware\Microchip\USB\usb_device.c
                  __pa_43   0x0075b8    program     static D:\Projects\EggBot1-GH\EBB_firmware\Microchip\USB\usb_device.c
                  __pa_44   0x0075c0    program     static D:\Projects\EggBot1-GH\EBB_firmware\Microchip\USB\usb_device.c
                  __pa_45   0x0075cc    program     static D:\Projects\EggBot1-GH\EBB_firmware\Microchip\USB\usb_device.c
                  __pa_46   0x0075d6    program     static D:\Projects\EggBot1-GH\EBB_firmware\Microchip\USB\usb_device.c
                 FLO3232U   0x0075de    program     extern E:\3.46\pic18-lt\cxx-framework\src\traditional\math\cast32FP.asm
                 FLO3232S   0x0075e2    program     extern E:\3.46\pic18-lt\cxx-framework\src\traditional\math\cast32FP.asm
                jI2F32Beg   0x0075fa    program     static E:\3.46\pic18-lt\cxx-framework\src\traditional\math\cast32FP.asm
                    FPD32   0x007614    program     extern E:\3.46\pic18-lt\cxx-framework\src\traditional\math\divFP.asm
                 jANotInf   0x007632    program     static E:\3.46\pic18-lt\cxx-framework\src\traditional\math\divFP.asm
              jSignedZero   0x00763c    program     static E:\3.46\pic18-lt\cxx-framework\src\traditional\math\divFP.asm
                jANotZero   0x007646    program     static E:\3.46\pic18-lt\cxx-framework\src\traditional\math\divFP.asm
                    jLoop   0x00766e    program     static E:\3.46\pic18-lt\cxx-framework\src\traditional\math\divFP.asm
                jNoAdjust   0x007692    program     static E:\3.46\pic18-lt\cxx-framework\src\traditional\math\divFP.asm
                    jNext   0x007694    program     static E:\3.46\pic18-lt\cxx-framework\src\traditional\math\divFP.asm
                    FPM32   0x0076ba    program     extern E:\3.46\pic18-lt\cxx-framework\src\traditional\math\mulFP.asm
                 jANotInf   0x0076d8    program     static E:\3.46\pic18-lt\cxx-framework\src\traditional\math\mulFP.asm
              jBothFinite   0x0076e6    program     static E:\3.46\pic18-lt\cxx-framework\src\traditional\math\mulFP.asm
                jHaveZero   0x0076ee    program     static E:\3.46\pic18-lt\cxx-framework\src\traditional\math\mulFP.asm
             jBothNotZero   0x0076f2    program     static E:\3.46\pic18-lt\cxx-framework\src\traditional\math\mulFP.asm
                 FXD3232S   0x007794    program     extern E:\3.46\pic18-lt\cxx-framework\src\traditional\math\fxd3232s.asm
                  DA3232S   0x0077ae    program     static E:\3.46\pic18-lt\cxx-framework\src\traditional\math\fxd3232s.asm
                   D3232S   0x0077c4    program     static E:\3.46\pic18-lt\cxx-framework\src\traditional\math\fxd3232s.asm
                 D3232SOK   0x0077ce    program     static E:\3.46\pic18-lt\cxx-framework\src\traditional\math\fxd3232s.asm
                D3232SNEG   0x0077d2    program     static E:\3.46\pic18-lt\cxx-framework\src\traditional\math\fxd3232s.asm
                  D3232SX   0x0077f2    program     static E:\3.46\pic18-lt\cxx-framework\src\traditional\math\fxd3232s.asm
                  INT3232   0x0077fc    program     extern E:\3.46\pic18-lt\cxx-framework\src\traditional\math\castFP32.asm
                     jMax   0x00780c    program     static E:\3.46\pic18-lt\cxx-framework\src\traditional\math\castFP32.asm
                  jMaxPos   0x007810    program     static E:\3.46\pic18-lt\cxx-framework\src\traditional\math\castFP32.asm
                   jWr123   0x007816    program     static E:\3.46\pic18-lt\cxx-framework\src\traditional\math\castFP32.asm
                  jMaxNeg   0x00781e    program     static E:\3.46\pic18-lt\cxx-framework\src\traditional\math\castFP32.asm
                    jZero   0x007824    program     static E:\3.46\pic18-lt\cxx-framework\src\traditional\math\castFP32.asm
                  jWrZ123   0x007826    program     static E:\3.46\pic18-lt\cxx-framework\src\traditional\math\castFP32.asm
                  jNotInf   0x00782a    program     static E:\3.46\pic18-lt\cxx-framework\src\traditional\math\castFP32.asm
                    jLoop   0x00783c    program     static E:\3.46\pic18-lt\cxx-framework\src\traditional\math\castFP32.asm
                jLoopExit   0x007850    program     static E:\3.46\pic18-lt\cxx-framework\src\traditional\math\castFP32.asm
                    jExit   0x007868    program     static E:\3.46\pic18-lt\cxx-framework\src\traditional\math\castFP32.asm
                  TAGTB32   0x00786a    program     extern E:\3.46\pic18-lt\cxx-framework\src\traditional\math\gtFP.asm
                  TALTB32   0x00787c    program     extern E:\3.46\pic18-lt\cxx-framework\src\traditional\math\ltFP.asm
              __FpCompare   0x00788e    program     extern E:\3.46\pic18-lt\cxx-framework\src\traditional\math\compFP.asm
             jBothNotZero   0x0078ac    program     static E:\3.46\pic18-lt\cxx-framework\src\traditional\math\compFP.asm
                 jSignsEQ   0x0078b0    program     static E:\3.46\pic18-lt\cxx-framework\src\traditional\math\compFP.asm
                      jEQ   0x0078c8    program     static E:\3.46\pic18-lt\cxx-framework\src\traditional\math\compFP.asm
                      jNE   0x0078cc    program     static E:\3.46\pic18-lt\cxx-framework\src\traditional\math\compFP.asm
                    jExch   0x0078d4    program     static E:\3.46\pic18-lt\cxx-framework\src\traditional\math\compFP.asm
                  jNoExch   0x0078f4    program     static E:\3.46\pic18-lt\cxx-framework\src\traditional\math\compFP.asm
                   jFinal   0x0078fe    program     static E:\3.46\pic18-lt\cxx-framework\src\traditional\math\compFP.asm
                  jAisNeg   0x00790a    program     static E:\3.46\pic18-lt\cxx-framework\src\traditional\math\compFP.asm
                   jShift   0x007910    program     static E:\3.46\pic18-lt\cxx-framework\src\traditional\math\compFP.asm
                   jExpEQ   0x00791a    program     static E:\3.46\pic18-lt\cxx-framework\src\traditional\math\compFP.asm
                  jRotate   0x007926    program     static E:\3.46\pic18-lt\cxx-framework\src\traditional\math\compFP.asm
            __FpReturnNaN   0x007938    program     extern E:\3.46\pic18-lt\cxx-framework\src\traditional\math\packFP.asm
                 __FpExit   0x007944    program     extern E:\3.46\pic18-lt\cxx-framework\src\traditional\math\packFP.asm
        __FpReturnSignInf   0x007946    program     extern E:\3.46\pic18-lt\cxx-framework\src\traditional\math\packFP.asm
         __FpReturnNegInf   0x00794a    program     extern E:\3.46\pic18-lt\cxx-framework\src\traditional\math\packFP.asm
         __FpReturnPosInf   0x007950    program     extern E:\3.46\pic18-lt\cxx-framework\src\traditional\math\packFP.asm
           jReturnPosInf0   0x007954    program     static E:\3.46\pic18-lt\cxx-framework\src\traditional\math\packFP.asm
               jZero1and2   0x007958    program     static E:\3.46\pic18-lt\cxx-framework\src\traditional\math\packFP.asm
       __FpReturnSignZero   0x00795e    program     extern E:\3.46\pic18-lt\cxx-framework\src\traditional\math\packFP.asm
        __FpReturnNegZero   0x007962    program     extern E:\3.46\pic18-lt\cxx-framework\src\traditional\math\packFP.asm
        __FpReturnPosZero   0x00796a    program     extern E:\3.46\pic18-lt\cxx-framework\src\traditional\math\packFP.asm
                 __FpPack   0x007970    program     extern E:\3.46\pic18-lt\cxx-framework\src\traditional\math\packFP.asm
                  jPkLoop   0x00797e    program     static E:\3.46\pic18-lt\cxx-framework\src\traditional\math\packFP.asm
             jPkShiftDone   0x00799a    program     static E:\3.46\pic18-lt\cxx-framework\src\traditional\math\packFP.asm
               jPkRoundIt   0x0079b0    program     static E:\3.46\pic18-lt\cxx-framework\src\traditional\math\packFP.asm
              __FpReturnW   0x0079c8    program     extern E:\3.46\pic18-lt\cxx-framework\src\traditional\math\packFP.asm
             jPkRoundDone   0x0079c8    program     static E:\3.46\pic18-lt\cxx-framework\src\traditional\math\packFP.asm
              __FpUnPackA   0x0079e8    program     extern E:\3.46\pic18-lt\cxx-framework\src\traditional\math\UnpackFP.asm
                  jUnpkA1   0x0079f2    program     static E:\3.46\pic18-lt\cxx-framework\src\traditional\math\UnpackFP.asm
                 jUnpkANZ   0x007a00    program     static E:\3.46\pic18-lt\cxx-framework\src\traditional\math\UnpackFP.asm
                  jUnpkA2   0x007a0a    program     static E:\3.46\pic18-lt\cxx-framework\src\traditional\math\UnpackFP.asm
                 jUnpkNaN   0x007a14    program     static E:\3.46\pic18-lt\cxx-framework\src\traditional\math\UnpackFP.asm
              __FpUnPackB   0x007a18    program     extern E:\3.46\pic18-lt\cxx-framework\src\traditional\math\UnpackFP.asm
                  jUnpkB1   0x007a22    program     static E:\3.46\pic18-lt\cxx-framework\src\traditional\math\UnpackFP.asm
                 jUnpkBNZ   0x007a30    program     static E:\3.46\pic18-lt\cxx-framework\src\traditional\math\UnpackFP.asm
                  jUnpkB2   0x007a3a    program     static E:\3.46\pic18-lt\cxx-framework\src\traditional\math\UnpackFP.asm
              __string_30   0x007a44    program     static D:\Projects\EggBot1-GH\EBB_firmware\app.X\source\ebb.c
              __string_29   0x007a68    program     static D:\Projects\EggBot1-GH\EBB_firmware\app.X\source\ebb.c
              __string_28   0x007a8c    program     static D:\Projects\EggBot1-GH\EBB_firmware\app.X\source\ebb.c
              __string_27   0x007ab0    program     static D:\Projects\EggBot1-GH\EBB_firmware\app.X\source\ebb.c
              __string_26   0x007ad4    program     static D:\Projects\EggBot1-GH\EBB_firmware\app.X\source\ebb.c
              __string_25   0x007ada    program     static D:\Projects\EggBot1-GH\EBB_firmware\app.X\source\ebb.c
              __string_24   0x007ae0    program     static D:\Projects\EggBot1-GH\EBB_firmware\app.X\source\ebb.c
              __string_23   0x007aea    program     static D:\Projects\EggBot1-GH\EBB_firmware\app.X\source\ebb.c
              __string_22   0x007b0e    program     static D:\Projects\EggBot1-GH\EBB_firmware\app.X\source\ebb.c
              __string_21   0x007b3c    program     static D:\Projects\EggBot1-GH\EBB_firmware\app.X\source\ebb.c
              __string_20   0x007b68    program     static D:\Projects\EggBot1-GH\EBB_firmware\app.X\source\ebb.c
              __string_19   0x007b8c    program     static D:\Projects\EggBot1-GH\EBB_firmware\app.X\source\ebb.c
              __string_18   0x007bba    program     static D:\Projects\EggBot1-GH\EBB_firmware\app.X\source\ebb.c
              __string_17   0x007be6    program     static D:\Projects\EggBot1-GH\EBB_firmware\app.X\source\ebb.c
              __string_16   0x007c17    program     static D:\Projects\EggBot1-GH\EBB_firmware\app.X\source\ebb.c
              __string_15   0x007c37    program     static D:\Projects\EggBot1-GH\EBB_firmware\app.X\source\ebb.c
              __string_14   0x007c3d    program     static D:\Projects\EggBot1-GH\EBB_firmware\app.X\source\ebb.c
              __string_13   0x007c5f    program     static D:\Projects\EggBot1-GH\EBB_firmware\app.X\source\ebb.c
              __string_12   0x007c6b    program     static D:\Projects\EggBot1-GH\EBB_firmware\app.X\source\ebb.c
              __string_11   0x007c76    program     static D:\Projects\EggBot1-GH\EBB_firmware\app.X\source\ebb.c
              __string_10   0x007c81    program     static D:\Projects\EggBot1-GH\EBB_firmware\app.X\source\ebb.c
               __string_9   0x007c8a    program     static D:\Projects\EggBot1-GH\EBB_firmware\app.X\source\ebb.c
               __string_8   0x007c93    program     static D:\Projects\EggBot1-GH\EBB_firmware\app.X\source\ebb.c
               __string_7   0x007c99    program     static D:\Projects\EggBot1-GH\EBB_firmware\app.X\source\ebb.c
               __string_6   0x007c9e    program     static D:\Projects\EggBot1-GH\EBB_firmware\app.X\source\ebb.c
               __string_5   0x007ca3    program     static D:\Projects\EggBot1-GH\EBB_firmware\app.X\source\ebb.c
               __string_4   0x007ca8    program     static D:\Projects\EggBot1-GH\EBB_firmware\app.X\source\ebb.c
               __string_3   0x007cad    program     static D:\Projects\EggBot1-GH\EBB_firmware\app.X\source\ebb.c
               __string_2   0x007cb2    program     static D:\Projects\EggBot1-GH\EBB_firmware\app.X\source\ebb.c
               __string_1   0x007cb7    program     static D:\Projects\EggBot1-GH\EBB_firmware\app.X\source\ebb.c
               __string_0   0x007cbc    program     static D:\Projects\EggBot1-GH\EBB_firmware\app.X\source\ebb.c
              __string_26   0x007cc0    program     static D:\Projects\EggBot1-GH\EBB_firmware\app.X\source\UBW.c
              __string_25   0x007cc8    program     static D:\Projects\EggBot1-GH\EBB_firmware\app.X\source\UBW.c
              __string_24   0x007cea    program     static D:\Projects\EggBot1-GH\EBB_firmware\app.X\source\UBW.c
              __string_23   0x007cf2    program     static D:\Projects\EggBot1-GH\EBB_firmware\app.X\source\UBW.c
              __string_22   0x007cfa    program     static D:\Projects\EggBot1-GH\EBB_firmware\app.X\source\UBW.c
              __string_21   0x007d02    program     static D:\Projects\EggBot1-GH\EBB_firmware\app.X\source\UBW.c
              __string_20   0x007d0a    program     static D:\Projects\EggBot1-GH\EBB_firmware\app.X\source\UBW.c
              __string_19   0x007d12    program     static D:\Projects\EggBot1-GH\EBB_firmware\app.X\source\UBW.c
              __string_18   0x007d1a    program     static D:\Projects\EggBot1-GH\EBB_firmware\app.X\source\UBW.c
              __string_17   0x007d22    program     static D:\Projects\EggBot1-GH\EBB_firmware\app.X\source\UBW.c
              __string_16   0x007d2a    program     static D:\Projects\EggBot1-GH\EBB_firmware\app.X\source\UBW.c
              __string_15   0x007d2d    program     static D:\Projects\EggBot1-GH\EBB_firmware\app.X\source\UBW.c
              __string_14   0x007d30    program     static D:\Projects\EggBot1-GH\EBB_firmware\app.X\source\UBW.c
              __string_13   0x007d33    program     static D:\Projects\EggBot1-GH\EBB_firmware\app.X\source\UBW.c
              __string_12   0x007d35    program     static D:\Projects\EggBot1-GH\EBB_firmware\app.X\source\UBW.c
              __string_11   0x007d4f    program     static D:\Projects\EggBot1-GH\EBB_firmware\app.X\source\UBW.c
              __string_10   0x007d78    program     static D:\Projects\EggBot1-GH\EBB_firmware\app.X\source\UBW.c
               __string_9   0x007d9e    program     static D:\Projects\EggBot1-GH\EBB_firmware\app.X\source\UBW.c
               __string_8   0x007dbd    program     static D:\Projects\EggBot1-GH\EBB_firmware\app.X\source\UBW.c
               __string_7   0x007dd5    program     static D:\Projects\EggBot1-GH\EBB_firmware\app.X\source\UBW.c
               __string_6   0x007df5    program     static D:\Projects\EggBot1-GH\EBB_firmware\app.X\source\UBW.c
               __string_5   0x007e12    program     static D:\Projects\EggBot1-GH\EBB_firmware\app.X\source\UBW.c
               __string_4   0x007e2c    program     static D:\Projects\EggBot1-GH\EBB_firmware\app.X\source\UBW.c
               __string_3   0x007e46    program     static D:\Projects\EggBot1-GH\EBB_firmware\app.X\source\UBW.c
               __string_2   0x007e63    program     static D:\Projects\EggBot1-GH\EBB_firmware\app.X\source\UBW.c
               __string_1   0x007e67    program     static D:\Projects\EggBot1-GH\EBB_firmware\app.X\source\UBW.c
            RCServo2_Init   0x007e6a    program     extern D:\Projects\EggBot1-GH\EBB_firmware\app.X\source\RCServo2.c
RCServo2_get_channel_from_RPn   0x007f1c    program     extern D:\Projects\EggBot1-GH\EBB_firmware\app.X\source\RCServo2.c
      RCServo2_S2_command   0x007f5a    program     extern D:\Projects\EggBot1-GH\EBB_firmware\app.X\source\RCServo2.c
            RCServo2_Move   0x008004    program     extern D:\Projects\EggBot1-GH\EBB_firmware\app.X\source\RCServo2.c
                   __pa_0   0x0081da    program     static D:\Projects\EggBot1-GH\EBB_firmware\app.X\source\RCServo2.c
                   __pa_1   0x0081e4    program     static D:\Projects\EggBot1-GH\EBB_firmware\app.X\source\RCServo2.c
                   __pa_2   0x0081ee    program     static D:\Projects\EggBot1-GH\EBB_firmware\app.X\source\RCServo2.c
                   __pa_3   0x0081fe    program     static D:\Projects\EggBot1-GH\EBB_firmware\app.X\source\RCServo2.c
                   __pa_4   0x00820a    program     static D:\Projects\EggBot1-GH\EBB_firmware\app.X\source\RCServo2.c
                   __pa_5   0x008214    program     static D:\Projects\EggBot1-GH\EBB_firmware\app.X\source\RCServo2.c
                   __pa_6   0x008220    program     static D:\Projects\EggBot1-GH\EBB_firmware\app.X\source\RCServo2.c
                   __pa_7   0x00822a    program     static D:\Projects\EggBot1-GH\EBB_firmware\app.X\source\RCServo2.c
                   __pa_8   0x008232    program     static D:\Projects\EggBot1-GH\EBB_firmware\app.X\source\RCServo2.c
                   __pa_9   0x00823a    program     static D:\Projects\EggBot1-GH\EBB_firmware\app.X\source\RCServo2.c
                  __pa_10   0x008244    program     static D:\Projects\EggBot1-GH\EBB_firmware\app.X\source\RCServo2.c
                  __pa_11   0x008254    program     static D:\Projects\EggBot1-GH\EBB_firmware\app.X\source\RCServo2.c
       USBCheckCDCRequest   0x008262    program     extern D:\Projects\EggBot1-GH\EBB_firmware\Microchip\USB\CDC Device Driver\usb_function_cdc.c
                CDCInitEP   0x0082fe    program     extern D:\Projects\EggBot1-GH\EBB_firmware\Microchip\USB\CDC Device Driver\usb_function_cdc.c
       USBCDCEventHandler   0x008340    program     extern D:\Projects\EggBot1-GH\EBB_firmware\Microchip\USB\CDC Device Driver\usb_function_cdc.c
             getsUSBUSART   0x00837c    program     extern D:\Projects\EggBot1-GH\EBB_firmware\Microchip\USB\CDC Device Driver\usb_function_cdc.c
              putUSBUSART   0x0083fa    program     extern D:\Projects\EggBot1-GH\EBB_firmware\Microchip\USB\CDC Device Driver\usb_function_cdc.c
             putsUSBUSART   0x008412    program     extern D:\Projects\EggBot1-GH\EBB_firmware\Microchip\USB\CDC Device Driver\usb_function_cdc.c
            putrsUSBUSART   0x008452    program     extern D:\Projects\EggBot1-GH\EBB_firmware\Microchip\USB\CDC Device Driver\usb_function_cdc.c
             CDCTxService   0x008494    program     extern D:\Projects\EggBot1-GH\EBB_firmware\Microchip\USB\CDC Device Driver\usb_function_cdc.c
                   __pa_0   0x00856e    program     static D:\Projects\EggBot1-GH\EBB_firmware\Microchip\USB\CDC Device Driver\usb_function_cdc.c
                   __pa_1   0x008588    program     static D:\Projects\EggBot1-GH\EBB_firmware\Microchip\USB\CDC Device Driver\usb_function_cdc.c
                   __pa_2   0x008598    program     static D:\Projects\EggBot1-GH\EBB_firmware\Microchip\USB\CDC Device Driver\usb_function_cdc.c
                   __pa_3   0x0085aa    program     static D:\Projects\EggBot1-GH\EBB_firmware\Microchip\USB\CDC Device Driver\usb_function_cdc.c
                   __pa_4   0x0085c4    program     static D:\Projects\EggBot1-GH\EBB_firmware\Microchip\USB\CDC Device Driver\usb_function_cdc.c
                   __pa_5   0x0085ce    program     static D:\Projects\EggBot1-GH\EBB_firmware\Microchip\USB\CDC Device Driver\usb_function_cdc.c
                   __pa_6   0x0085d6    program     static D:\Projects\EggBot1-GH\EBB_firmware\Microchip\USB\CDC Device Driver\usb_function_cdc.c
                   __pa_7   0x0085e4    program     static D:\Projects\EggBot1-GH\EBB_firmware\Microchip\USB\CDC Device Driver\usb_function_cdc.c
                   __pa_8   0x0085f2    program     static D:\Projects\EggBot1-GH\EBB_firmware\Microchip\USB\CDC Device Driver\usb_function_cdc.c
                   __pa_9   0x0085fc    program     static D:\Projects\EggBot1-GH\EBB_firmware\Microchip\USB\CDC Device Driver\usb_function_cdc.c
                  __pa_10   0x00860e    program     static D:\Projects\EggBot1-GH\EBB_firmware\Microchip\USB\CDC Device Driver\usb_function_cdc.c
                  __pa_11   0x00861c    program     static D:\Projects\EggBot1-GH\EBB_firmware\Microchip\USB\CDC Device Driver\usb_function_cdc.c
                ebb_print   0x008628    program     extern D:\Projects\EggBot1-GH\EBB_firmware\app.X\source\ebb_print.c
            ebb_print_ram   0x00864a    program     extern D:\Projects\EggBot1-GH\EBB_firmware\app.X\source\ebb_print.c
            ebb_print_hex   0x008662    program     extern D:\Projects\EggBot1-GH\EBB_firmware\app.X\source\ebb_print.c
           ebb_print_uint   0x0086d6    program     extern D:\Projects\EggBot1-GH\EBB_firmware\app.X\source\ebb_print.c
            ebb_print_int   0x00870e    program     extern D:\Projects\EggBot1-GH\EBB_firmware\app.X\source\ebb_print.c
                   __pa_0   0x00877a    program     static D:\Projects\EggBot1-GH\EBB_firmware\app.X\source\ebb_print.c
                   __pa_1   0x008794    program     static D:\Projects\EggBot1-GH\EBB_firmware\app.X\source\ebb_print.c
                   __pa_2   0x0087ae    program     static D:\Projects\EggBot1-GH\EBB_firmware\app.X\source\ebb_print.c
                   __pa_3   0x0087cc    program     static D:\Projects\EggBot1-GH\EBB_firmware\app.X\source\ebb_print.c
                   __pa_4   0x0087e4    program     static D:\Projects\EggBot1-GH\EBB_firmware\app.X\source\ebb_print.c
                   __pa_5   0x0087ee    program     static D:\Projects\EggBot1-GH\EBB_firmware\app.X\source\ebb_print.c
                   __pa_6   0x0087fa    program     static D:\Projects\EggBot1-GH\EBB_firmware\app.X\source\ebb_print.c
                   __pa_7   0x00880a    program     static D:\Projects\EggBot1-GH\EBB_firmware\app.X\source\ebb_print.c
                   __pa_8   0x008818    program     static D:\Projects\EggBot1-GH\EBB_firmware\app.X\source\ebb_print.c
                   __pa_9   0x008822    program     static D:\Projects\EggBot1-GH\EBB_firmware\app.X\source\ebb_print.c
                  __pa_10   0x008838    program     static D:\Projects\EggBot1-GH\EBB_firmware\app.X\source\ebb_print.c
                  __pa_11   0x008840    program     static D:\Projects\EggBot1-GH\EBB_firmware\app.X\source\ebb_print.c
                  __pa_12   0x00884c    program     static D:\Projects\EggBot1-GH\EBB_firmware\app.X\source\ebb_print.c
          WriteBytesFlash   0x008858    program     extern E:\3.46\pic18-lt\cxx-framework\src\pmc_common\Flash\WriteBytesFlash.c
        ___while_lbl00001   0x008942    program     static                          
        ___while_lbl00003   0x008966    program     static                          
           ___if_lbl00005   0x0089a0    program     static                          
        ___while_lbl00004   0x0089a2    program     static                          
           ___if_lbl00006   0x0089c2    program     static                          
           ___if_lbl00007   0x0089da    program     static                          
        ___while_lbl00002   0x008a1e    program     static                          
       ___return_lbl00000   0x008a1e    program     static                          
                     main   0x008a36    program     extern D:\Projects\EggBot1-GH\EBB_firmware\app.X\source\main.c
         InitializeSystem   0x008a46    program     static D:\Projects\EggBot1-GH\EBB_firmware\app.X\source\main.c
             USBCBSuspend   0x008a9a    program     extern D:\Projects\EggBot1-GH\EBB_firmware\app.X\source\main.c
     USBCBWakeFromSuspend   0x008a9c    program     extern D:\Projects\EggBot1-GH\EBB_firmware\app.X\source\main.c
        USBCB_SOF_Handler   0x008a9e    program     extern D:\Projects\EggBot1-GH\EBB_firmware\app.X\source\main.c
        USBCBErrorHandler   0x008aa0    program     extern D:\Projects\EggBot1-GH\EBB_firmware\app.X\source\main.c
       USBCBCheckOtherReq   0x008aa2    program     extern D:\Projects\EggBot1-GH\EBB_firmware\app.X\source\main.c
    USBCBStdSetDscHandler   0x008aa6    program     extern D:\Projects\EggBot1-GH\EBB_firmware\app.X\source\main.c
              USBCBInitEP   0x008aa8    program     extern D:\Projects\EggBot1-GH\EBB_firmware\app.X\source\main.c
          USBCBSendResume   0x008aac    program     extern D:\Projects\EggBot1-GH\EBB_firmware\app.X\source\main.c
USER_USB_CALLBACK_EVENT_HANDLER   0x008af0    program     extern D:\Projects\EggBot1-GH\EBB_firmware\app.X\source\main.c
                     Sqrt   0x008b84    program     extern source\squareroot.s      
                   Sqrt16   0x008bae    program     static source\squareroot.s      
                  Square8   0x008bb6    program     static source\squareroot.s      
                  NextBit   0x008bd6    program     static source\squareroot.s      
                     Done   0x008be6    program     static source\squareroot.s      
                   Sqrt32   0x008bf4    program     static source\squareroot.s      
                  Squar16   0x008c02    program     static source\squareroot.s      
                  NxtBt16   0x008c3e    program     static source\squareroot.s      
                   Done32   0x008c5a    program     static source\squareroot.s      
                     Sq16   0x008c6a    program     static source\squareroot.s      
            __zero_memory   0x008ca4    program     extern E:\3.46\pic18-lt\cxx-framework\src\traditional\proc\p18f46j50.asm
                   loop_h   0x008cb2    program     static E:\3.46\pic18-lt\cxx-framework\src\traditional\proc\p18f46j50.asm
               zero_block   0x008cb2    program     static E:\3.46\pic18-lt\cxx-framework\src\traditional\proc\p18f46j50.asm
                compare_l   0x008cba    program     static E:\3.46\pic18-lt\cxx-framework\src\traditional\proc\p18f46j50.asm
                   loop_l   0x008cbc    program     static E:\3.46\pic18-lt\cxx-framework\src\traditional\proc\p18f46j50.asm
               EraseFlash   0x008cc4    program     extern E:\3.46\pic18-lt\cxx-framework\src\pmc_common\Flash\EraseFlash.c
                   __pa_0   0x008dae    program     static E:\3.46\pic18-lt\cxx-framework\src\pmc_common\Flash\EraseFlash.c
               st_version   0x008dbc    program     extern D:\Projects\EggBot1-GH\EBB_firmware\app.X\source\UBW.c
              RPnTRISPort   0x008deb    program     extern D:\Projects\EggBot1-GH\EBB_firmware\app.X\source\UBW.c
               RPnLATPort   0x008e1d    program     extern D:\Projects\EggBot1-GH\EBB_firmware\app.X\source\UBW.c
                   RPnBit   0x008e4f    program     extern D:\Projects\EggBot1-GH\EBB_firmware\app.X\source\UBW.c
                _do_cinit   0x008e68    program     extern C:\MCC18\src\traditional\startup\c018i.c
                     test   0x008e82    program     static                          
                copy_loop   0x008eda    program     static                          
            copy_one_byte   0x008ee0    program     static                          
             done_copying   0x008eee    program     static                          
                     done   0x008f04    program     static                          
       ___return_lbl00001   0x008f04    program     static                          
                ReadFlash   0x008f06    program     extern E:\3.46\pic18-lt\cxx-framework\src\pmc_common\Flash\ReadFlash.c
        ___while_lbl00001   0x008f4e    program     static                          
        ___while_lbl00002   0x008f80    program     static                          
       ___return_lbl00000   0x008f80    program     static                          
               Open1USART   0x008f98    program     extern E:\3.46\pic18-lt\cxx-framework\src\pmc_common\USART\u1open.c
                  FXM3232   0x00900a    program     extern E:\3.46\pic18-lt\cxx-framework\src\traditional\math\fxm3232.c
       ___return_lbl00000   0x009078    program     static                          
               device_dsc   0x00907a    program     extern D:\Projects\EggBot1-GH\EBB_firmware\app.X\source\usb_descriptors.c
        configDescriptor1   0x00908c    program     extern D:\Projects\EggBot1-GH\EBB_firmware\app.X\source\usb_descriptors.c
               USB_CD_Ptr   0x0090cf    program     extern D:\Projects\EggBot1-GH\EBB_firmware\app.X\source\usb_descriptors.c
                 FXD3232U   0x0090d2    program     extern E:\3.46\pic18-lt\cxx-framework\src\traditional\math\fxd3232u.c
                     loop   0x0090e0    program     static                          
                   _false   0x009114    program     static                          
       ___return_lbl00000   0x009118    program     static                          
                   memset   0x00911a    program     extern E:\3.46\pic18-lt\cxx-framework\src\traditional\stdclib\memset.asm
                    jLoop   0x00912e    program     static E:\3.46\pic18-lt\cxx-framework\src\traditional\stdclib\memset.asm
              _2jContinue   0x00913a    program     static E:\3.46\pic18-lt\cxx-framework\src\traditional\stdclib\memset.asm
                   _3jEnd   0x009144    program     static E:\3.46\pic18-lt\cxx-framework\src\traditional\stdclib\memset.asm
                     jEnd   0x00914c    program     static E:\3.46\pic18-lt\cxx-framework\src\traditional\stdclib\memset.asm
              Write1USART   0x00914e    program     extern E:\3.46\pic18-lt\cxx-framework\src\pmc_common\USART\u1write.c
                  toupper   0x00917c    program     extern E:\3.46\pic18-lt\cxx-framework\src\traditional\stdclib\toupper.asm
                 jNoMatch   0x0091a2    program     static E:\3.46\pic18-lt\cxx-framework\src\traditional\stdclib\toupper.asm
               baud1USART   0x0091a4    program     extern E:\3.46\pic18-lt\cxx-framework\src\pmc_common\USART\u1baud.c
                 _startup   0x0091c6    program     extern C:\MCC18\src\traditional\startup\c018i.c
                     loop   0x0091d6    program     static                          
       ___return_lbl00000   0x0091e0    program     static                          
                  pow2x16   0x0091e2    program     extern E:\3.46\pic18-lt\cxx-framework\src\traditional\math\pow2x16.c
       ___return_lbl00000   0x0091f6    program     static                          
                   __init   0x0091f8    program     extern E:\3.46\pic18-lt\cxx-framework\src\traditional\stdclib\__init.c
                  AllDone   0x000000       data     static D:\Projects\EggBot1-GH\EBB_firmware\app.X\source\ebb.c
                    isr_i   0x000001       data     static D:\Projects\EggBot1-GH\EBB_firmware\app.X\source\ebb.c
               AxisActive   0x000002       data     static D:\Projects\EggBot1-GH\EBB_firmware\app.X\source\ebb.c
      DriverConfiguration   0x000004       data     extern D:\Projects\EggBot1-GH\EBB_firmware\app.X\source\ebb.c
           gUseRCPenServo   0x000005       data     static D:\Projects\EggBot1-GH\EBB_firmware\app.X\source\ebb.c
         gRedLEDEmptyFIFO   0x000006       data     extern D:\Projects\EggBot1-GH\EBB_firmware\app.X\source\ebb.c
             ButtonPushed   0x000007       data     static D:\Projects\EggBot1-GH\EBB_firmware\app.X\source\ebb.c
              UseAltPause   0x000008       data     static D:\Projects\EggBot1-GH\EBB_firmware\app.X\source\ebb.c
                 TestMode   0x000009       data     extern D:\Projects\EggBot1-GH\EBB_firmware\app.X\source\ebb.c
              ISR_Channel   0x00000a       data     static D:\Projects\EggBot1-GH\EBB_firmware\app.X\source\ebb.c
                PortBTemp   0x00000b       data     static D:\Projects\EggBot1-GH\EBB_firmware\app.X\source\ebb.c
         gLimitSwitchMask   0x00000c       data     extern D:\Projects\EggBot1-GH\EBB_firmware\app.X\source\ebb.c
       gLimitSwitchTarget   0x00000d       data     extern D:\Projects\EggBot1-GH\EBB_firmware\app.X\source\ebb.c
    gLimitSwitchTriggered   0x00000e       data     extern D:\Projects\EggBot1-GH\EBB_firmware\app.X\source\ebb.c
              gFIFOLength   0x00000f       data     extern D:\Projects\EggBot1-GH\EBB_firmware\app.X\source\ebb.c
                  gFIFOIn   0x000010       data     extern D:\Projects\EggBot1-GH\EBB_firmware\app.X\source\ebb.c
                 gFIFOOut   0x000011       data     extern D:\Projects\EggBot1-GH\EBB_firmware\app.X\source\ebb.c
             gFIFOCommand   0x000012       data     static D:\Projects\EggBot1-GH\EBB_firmware\app.X\source\ebb.c
       gCurrentFIFOLength   0x000013       data     extern D:\Projects\EggBot1-GH\EBB_firmware\app.X\source\ebb.c
        FIFO_out_ptr_high   0x000014       data     extern D:\Projects\EggBot1-GH\EBB_firmware\app.X\source\ebb.c
         FIFO_out_ptr_low   0x000015       data     extern D:\Projects\EggBot1-GH\EBB_firmware\app.X\source\ebb.c
       globalStepCounter1   0x000016       data     static D:\Projects\EggBot1-GH\EBB_firmware\app.X\source\ebb.c
       globalStepCounter2   0x00001a       data     static D:\Projects\EggBot1-GH\EBB_firmware\app.X\source\ebb.c
                acc_union   0x00001e       data     extern D:\Projects\EggBot1-GH\EBB_firmware\app.X\source\ebb.c
gISRTickCountForThisCommand   0x000026       data     static D:\Projects\EggBot1-GH\EBB_firmware\app.X\source\ebb.c
gISRStepCountForThisCommand   0x00002a       data     static D:\Projects\EggBot1-GH\EBB_firmware\app.X\source\ebb.c
gISRPositionForThisCommand   0x00002e       data     static D:\Projects\EggBot1-GH\EBB_firmware\app.X\source\ebb.c
                     SIGN   0x000032       data     extern E:\3.46\pic18-lt\cxx-framework\src\traditional\math\cmath18.asm
            __FPFLAGSbits   0x000033       data     extern E:\3.46\pic18-lt\cxx-framework\src\traditional\math\cmath18.asm
                __FPFLAGS   0x000033       data     extern E:\3.46\pic18-lt\cxx-framework\src\traditional\math\cmath18.asm
                  __REMB3   0x000034       data     extern E:\3.46\pic18-lt\cxx-framework\src\traditional\math\aarg.asm
                 __AARGB7   0x000034       data     extern E:\3.46\pic18-lt\cxx-framework\src\traditional\math\aarg.asm
                 __AARGB6   0x000035       data     extern E:\3.46\pic18-lt\cxx-framework\src\traditional\math\aarg.asm
                  __REMB2   0x000035       data     extern E:\3.46\pic18-lt\cxx-framework\src\traditional\math\aarg.asm
                 __AARGB5   0x000036       data     extern E:\3.46\pic18-lt\cxx-framework\src\traditional\math\aarg.asm
                  __REMB1   0x000036       data     extern E:\3.46\pic18-lt\cxx-framework\src\traditional\math\aarg.asm
                 __AARGB4   0x000037       data     extern E:\3.46\pic18-lt\cxx-framework\src\traditional\math\aarg.asm
                  __REMB0   0x000037       data     extern E:\3.46\pic18-lt\cxx-framework\src\traditional\math\aarg.asm
                 __AARGB3   0x000038       data     extern E:\3.46\pic18-lt\cxx-framework\src\traditional\math\aarg.asm
                 __AARGB2   0x000039       data     extern E:\3.46\pic18-lt\cxx-framework\src\traditional\math\aarg.asm
                 __AARGB1   0x00003a       data     extern E:\3.46\pic18-lt\cxx-framework\src\traditional\math\aarg.asm
                 __AARGB0   0x00003b       data     extern E:\3.46\pic18-lt\cxx-framework\src\traditional\math\aarg.asm
                   __AEXP   0x00003c       data     extern E:\3.46\pic18-lt\cxx-framework\src\traditional\math\aarg.asm
                 __BARGB3   0x00003d       data     extern E:\3.46\pic18-lt\cxx-framework\src\traditional\math\barg.asm
                 __BARGB2   0x00003e       data     extern E:\3.46\pic18-lt\cxx-framework\src\traditional\math\barg.asm
                 __BARGB1   0x00003f       data     extern E:\3.46\pic18-lt\cxx-framework\src\traditional\math\barg.asm
                 __BARGB0   0x000040       data     extern E:\3.46\pic18-lt\cxx-framework\src\traditional\math\barg.asm
                   __BEXP   0x000041       data     extern E:\3.46\pic18-lt\cxx-framework\src\traditional\math\barg.asm
                 __TEMPB3   0x000042       data     extern E:\3.46\pic18-lt\cxx-framework\src\traditional\math\temparg.asm
                 __TEMPB2   0x000043       data     extern E:\3.46\pic18-lt\cxx-framework\src\traditional\math\temparg.asm
                 __TEMPB1   0x000044       data     extern E:\3.46\pic18-lt\cxx-framework\src\traditional\math\temparg.asm
                 __TEMPB0   0x000045       data     extern E:\3.46\pic18-lt\cxx-framework\src\traditional\math\temparg.asm
                   __TEMP   0x000045       data     extern E:\3.46\pic18-lt\cxx-framework\src\traditional\math\temparg.asm
                  __tmp_0   0x000046       data     static E:\3.46\pic18-lt\cxx-framework\src\pmc_common\Flash\WriteBytesFlash.c
                  __tmp_0   0x000046       data     static E:\3.46\pic18-lt\cxx-framework\src\pmc_common\Flash\ReadFlash.c
                  __tmp_0   0x000046       data     static E:\3.46\pic18-lt\cxx-framework\src\pmc_common\USART\u1open.c
                  __tmp_0   0x000046       data     static E:\3.46\pic18-lt\cxx-framework\src\pmc_common\Flash\EraseFlash.c
                  __tmp_0   0x000046       data     static D:\Projects\EggBot1-GH\EBB_firmware\Microchip\USB\CDC Device Driver\usb_function_cdc.c
                  __tmp_0   0x000046       data     static D:\Projects\EggBot1-GH\EBB_firmware\app.X\source\ebb_print.c
                  __tmp_0   0x000046       data     static D:\Projects\EggBot1-GH\EBB_firmware\app.X\source\UBW.c
                  __tmp_0   0x000046       data     static D:\Projects\EggBot1-GH\EBB_firmware\app.X\source\ebb.c
                  __tmp_0   0x000046       data     static D:\Projects\EggBot1-GH\EBB_firmware\app.X\source\main.c
                  __tmp_0   0x000046       data     static D:\Projects\EggBot1-GH\EBB_firmware\app.X\source\RCServo2.c
                  __tmp_0   0x000046       data     static D:\Projects\EggBot1-GH\EBB_firmware\Microchip\USB\usb_device.c
                  __tmp_1   0x00004e       data     static D:\Projects\EggBot1-GH\EBB_firmware\app.X\source\UBW.c
                  __tmp_1   0x000052       data     static D:\Projects\EggBot1-GH\EBB_firmware\app.X\source\ebb.c
            gRC2msCounter   0x000060       data     extern D:\Projects\EggBot1-GH\EBB_firmware\app.X\source\RCServo2.c
                gRC2Value   0x000061       data     extern D:\Projects\EggBot1-GH\EBB_firmware\app.X\source\RCServo2.c
                  gRC2RPn   0x000069       data     extern D:\Projects\EggBot1-GH\EBB_firmware\app.X\source\RCServo2.c
               gRC2Target   0x00006d       data     extern D:\Projects\EggBot1-GH\EBB_firmware\app.X\source\RCServo2.c
                 gRC2Rate   0x000075       data     extern D:\Projects\EggBot1-GH\EBB_firmware\app.X\source\RCServo2.c
                  gRC2Ptr   0x00007d       data     extern D:\Projects\EggBot1-GH\EBB_firmware\app.X\source\RCServo2.c
                gRC2Slots   0x00007e       data     extern D:\Projects\EggBot1-GH\EBB_firmware\app.X\source\RCServo2.c
               gRC2SlotMS   0x00007f       data     extern D:\Projects\EggBot1-GH\EBB_firmware\app.X\source\RCServo2.c
              gRC2RPORPtr   0x000080       data     extern D:\Projects\EggBot1-GH\EBB_firmware\app.X\source\RCServo2.c
             g_servo2_max   0x000082       data     extern D:\Projects\EggBot1-GH\EBB_firmware\app.X\source\RCServo2.c
             g_servo2_min   0x000084       data     extern D:\Projects\EggBot1-GH\EBB_firmware\app.X\source\RCServo2.c
         g_servo2_rate_up   0x000086       data     extern D:\Projects\EggBot1-GH\EBB_firmware\app.X\source\RCServo2.c
       g_servo2_rate_down   0x000088       data     extern D:\Projects\EggBot1-GH\EBB_firmware\app.X\source\RCServo2.c
             g_servo2_RPn   0x00008a       data     extern D:\Projects\EggBot1-GH\EBB_firmware\app.X\source\RCServo2.c
     time_between_updates   0x00008b       data     extern D:\Projects\EggBot1-GH\EBB_firmware\app.X\source\UBW.c
         ISR_D_RepeatRate   0x00008d       data     extern D:\Projects\EggBot1-GH\EBB_firmware\app.X\source\UBW.c
            ISR_D_FIFO_in   0x00008f       data     extern D:\Projects\EggBot1-GH\EBB_firmware\app.X\source\UBW.c
           ISR_D_FIFO_out   0x000090       data     extern D:\Projects\EggBot1-GH\EBB_firmware\app.X\source\UBW.c
        ISR_D_FIFO_length   0x000091       data     extern D:\Projects\EggBot1-GH\EBB_firmware\app.X\source\UBW.c
         ISR_A_RepeatRate   0x000092       data     extern D:\Projects\EggBot1-GH\EBB_firmware\app.X\source\UBW.c
            ISR_A_FIFO_in   0x000094       data     extern D:\Projects\EggBot1-GH\EBB_firmware\app.X\source\UBW.c
           ISR_A_FIFO_out   0x000095       data     extern D:\Projects\EggBot1-GH\EBB_firmware\app.X\source\UBW.c
        ISR_A_FIFO_length   0x000096       data     extern D:\Projects\EggBot1-GH\EBB_firmware\app.X\source\UBW.c
               error_byte   0x000097       data     extern D:\Projects\EggBot1-GH\EBB_firmware\app.X\source\UBW.c
          g_RC_primed_ptr   0x000098       data     extern D:\Projects\EggBot1-GH\EBB_firmware\app.X\source\UBW.c
            g_RC_next_ptr   0x000099       data     extern D:\Projects\EggBot1-GH\EBB_firmware\app.X\source\UBW.c
          g_RC_timing_ptr   0x00009a       data     extern D:\Projects\EggBot1-GH\EBB_firmware\app.X\source\UBW.c
           D_tick_counter   0x00009b       data     extern D:\Projects\EggBot1-GH\EBB_firmware\app.X\source\UBW.c
           A_tick_counter   0x00009d       data     extern D:\Projects\EggBot1-GH\EBB_firmware\app.X\source\UBW.c
            A_cur_channel   0x00009f       data     extern D:\Projects\EggBot1-GH\EBB_firmware\app.X\source\UBW.c
           AnalogInitiate   0x0000a0       data     extern D:\Projects\EggBot1-GH\EBB_firmware\app.X\source\UBW.c
    AnalogEnabledChannels   0x0000a1       data     extern D:\Projects\EggBot1-GH\EBB_firmware\app.X\source\UBW.c
               ChannelBit   0x0000a3       data     extern D:\Projects\EggBot1-GH\EBB_firmware\app.X\source\UBW.c
g_PowerMonitorThresholdADC   0x0000a5       data     extern D:\Projects\EggBot1-GH\EBB_firmware\app.X\source\UBW.c
      g_PowerDropDetected   0x0000a7       data     extern D:\Projects\EggBot1-GH\EBB_firmware\app.X\source\UBW.c
    g_StepperDisableState   0x0000a8       data     extern D:\Projects\EggBot1-GH\EBB_firmware\app.X\source\UBW.c
 g_StepperDisableTimeoutS   0x0000a9       data     extern D:\Projects\EggBot1-GH\EBB_firmware\app.X\source\UBW.c
g_StepperDisableSecondCounter   0x0000ab       data     extern D:\Projects\EggBot1-GH\EBB_firmware\app.X\source\UBW.c
g_StepperDisableCountdownS   0x0000ad       data     extern D:\Projects\EggBot1-GH\EBB_firmware\app.X\source\UBW.c
           g_USART_RX_buf   0x0000af       data     extern D:\Projects\EggBot1-GH\EBB_firmware\app.X\source\UBW.c
           g_USART_TX_buf   0x0000b9       data     extern D:\Projects\EggBot1-GH\EBB_firmware\app.X\source\UBW.c
                g_BO_init   0x0000c3       data     extern D:\Projects\EggBot1-GH\EBB_firmware\app.X\source\UBW.c
         g_BO_strobe_mask   0x0000c4       data     extern D:\Projects\EggBot1-GH\EBB_firmware\app.X\source\UBW.c
           g_BO_wait_mask   0x0000c5       data     extern D:\Projects\EggBot1-GH\EBB_firmware\app.X\source\UBW.c
          g_BO_wait_delay   0x0000c6       data     extern D:\Projects\EggBot1-GH\EBB_firmware\app.X\source\UBW.c
        g_BO_strobe_delay   0x0000c7       data     extern D:\Projects\EggBot1-GH\EBB_firmware\app.X\source\UBW.c
              g_TX_buf_in   0x0000c8       data     extern D:\Projects\EggBot1-GH\EBB_firmware\app.X\source\UBW.c
             g_TX_buf_out   0x0000c9       data     extern D:\Projects\EggBot1-GH\EBB_firmware\app.X\source\UBW.c
              g_RX_buf_in   0x0000ca       data     extern D:\Projects\EggBot1-GH\EBB_firmware\app.X\source\UBW.c
             g_RX_buf_out   0x0000cb       data     extern D:\Projects\EggBot1-GH\EBB_firmware\app.X\source\UBW.c
        g_USART_RX_buf_in   0x0000cc       data     extern D:\Projects\EggBot1-GH\EBB_firmware\app.X\source\UBW.c
       g_USART_RX_buf_out   0x0000cd       data     extern D:\Projects\EggBot1-GH\EBB_firmware\app.X\source\UBW.c
        g_USART_TX_buf_in   0x0000ce       data     extern D:\Projects\EggBot1-GH\EBB_firmware\app.X\source\UBW.c
       g_USART_TX_buf_out   0x0000cf       data     extern D:\Projects\EggBot1-GH\EBB_firmware\app.X\source\UBW.c
             g_ack_enable   0x0000d0       data     extern D:\Projects\EggBot1-GH\EBB_firmware\app.X\source\UBW.c
gRCServoPoweroffCounterMS   0x0000d1       data     extern D:\Projects\EggBot1-GH\EBB_firmware\app.X\source\UBW.c
gRCServoPoweroffCounterReloadMS   0x0000d5       data     extern D:\Projects\EggBot1-GH\EBB_firmware\app.X\source\UBW.c
    gAutomaticMotorEnable   0x0000d9       data     extern D:\Projects\EggBot1-GH\EBB_firmware\app.X\source\UBW.c
           gCommand_Char1   0x0000da       data     extern D:\Projects\EggBot1-GH\EBB_firmware\app.X\source\UBW.c
           gCommand_Char2   0x0000db       data     extern D:\Projects\EggBot1-GH\EBB_firmware\app.X\source\UBW.c
        gLimitSwitchPortB   0x0000dc       data     extern D:\Projects\EggBot1-GH\EBB_firmware\app.X\source\UBW.c
      gLimitSwitchReplies   0x0000dd       data     extern D:\Projects\EggBot1-GH\EBB_firmware\app.X\source\UBW.c
 gLimitSwitchReplyPrinted   0x0000de       data     extern D:\Projects\EggBot1-GH\EBB_firmware\app.X\source\UBW.c
 gCommandChecksumRequired   0x0000df       data     extern D:\Projects\EggBot1-GH\EBB_firmware\app.X\source\UBW.c
          gStackHighWater   0x0000e0       data     static D:\Projects\EggBot1-GH\EBB_firmware\app.X\source\UBW.c
            RC2Difference   0x0000e2       data     static D:\Projects\EggBot1-GH\EBB_firmware\app.X\source\UBW.c
     tempStackPointerHigh   0x0000e4       data     static D:\Projects\EggBot1-GH\EBB_firmware\app.X\source\UBW.c
      tempStackPointerLow   0x0000e5       data     static D:\Projects\EggBot1-GH\EBB_firmware\app.X\source\UBW.c
         tempStackPointer   0x0000e6       data     static D:\Projects\EggBot1-GH\EBB_firmware\app.X\source\UBW.c
        gDeviceStringName   0x0000e8       data     static D:\Projects\EggBot1-GH\EBB_firmware\app.X\source\UBW.c
           last_fifo_size   0x0000f9       data     static D:\Projects\EggBot1-GH\EBB_firmware\app.X\source\UBW.c
               ISR_A_FIFO   0x000100       data     extern D:\Projects\EggBot1-GH\EBB_firmware\app.X\source\UBW.c
               ISR_D_FIFO   0x000120       data     extern D:\Projects\EggBot1-GH\EBB_firmware\app.X\source\UBW.c
                gMoveTemp   0x000129       data     static D:\Projects\EggBot1-GH\EBB_firmware\app.X\source\ebb.c
              gSL_Storage   0x000158       data     static D:\Projects\EggBot1-GH\EBB_firmware\app.X\source\ebb.c
                    in_cr   0x000178       data     static D:\Projects\EggBot1-GH\EBB_firmware\app.X\source\UBW.c
             button_state   0x000179       data     static D:\Projects\EggBot1-GH\EBB_firmware\app.X\source\UBW.c
               button_ctr   0x00017a       data     static D:\Projects\EggBot1-GH\EBB_firmware\app.X\source\UBW.c
                 LEDCount   0x00017c       data     static D:\Projects\EggBot1-GH\EBB_firmware\app.X\source\UBW.c
                 LEDState   0x00017e       data     static D:\Projects\EggBot1-GH\EBB_firmware\app.X\source\UBW.c
            USART1_Status   0x00017f       data     extern E:\3.46\pic18-lt\cxx-framework\src\pmc_common\USART\u1defs.c
                       xx   0x000180       data     static D:\Projects\EggBot1-GH\EBB_firmware\app.X\source\ebb.c
                      nib   0x000184       data     static D:\Projects\EggBot1-GH\EBB_firmware\app.X\source\ebb.c
           CurrentCommand   0x000185       data     extern D:\Projects\EggBot1-GH\EBB_firmware\app.X\source\ebb.c
           DemoModeActive   0x0001b4       data     extern D:\Projects\EggBot1-GH\EBB_firmware\app.X\source\ebb.c
            SolenoidState   0x0001b6       data     static D:\Projects\EggBot1-GH\EBB_firmware\app.X\source\ebb.c
            SolenoidDelay   0x0001b7       data     static D:\Projects\EggBot1-GH\EBB_firmware\app.X\source\ebb.c
                 PenState   0x0001b9       data     static D:\Projects\EggBot1-GH\EBB_firmware\app.X\source\ebb.c
                NodeCount   0x0001ba       data     static D:\Projects\EggBot1-GH\EBB_firmware\app.X\source\ebb.c
              QC_ms_timer   0x0001be       data     extern D:\Projects\EggBot1-GH\EBB_firmware\app.X\source\ebb.c
      StoredEngraverPower   0x0001bf       data     static D:\Projects\EggBot1-GH\EBB_firmware\app.X\source\ebb.c
             gUseSolenoid   0x0001c1       data     extern D:\Projects\EggBot1-GH\EBB_firmware\app.X\source\ebb.c
             gLimitChecks   0x0001c2       data     extern D:\Projects\EggBot1-GH\EBB_firmware\app.X\source\ebb.c
gStandardizedCommandFormat   0x0001c3       data     extern D:\Projects\EggBot1-GH\EBB_firmware\app.X\source\ebb.c
                gUInt32_1   0x0001c4       data     static D:\Projects\EggBot1-GH\EBB_firmware\app.X\source\ebb.c
                gUInt32_2   0x0001c8       data     static D:\Projects\EggBot1-GH\EBB_firmware\app.X\source\ebb.c
                gUInt32_3   0x0001cc       data     static D:\Projects\EggBot1-GH\EBB_firmware\app.X\source\ebb.c
                 gInt32_1   0x0001d0       data     static D:\Projects\EggBot1-GH\EBB_firmware\app.X\source\ebb.c
                 gInt32_2   0x0001d4       data     static D:\Projects\EggBot1-GH\EBB_firmware\app.X\source\ebb.c
                 gInt32_3   0x0001d8       data     static D:\Projects\EggBot1-GH\EBB_firmware\app.X\source\ebb.c
                 gInt32_4   0x0001dc       data     static D:\Projects\EggBot1-GH\EBB_firmware\app.X\source\ebb.c
                 gInt32_5   0x0001e0       data     static D:\Projects\EggBot1-GH\EBB_firmware\app.X\source\ebb.c
                 gInt32_6   0x0001e4       data     static D:\Projects\EggBot1-GH\EBB_firmware\app.X\source\ebb.c
                 gInt32_7   0x0001e8       data     static D:\Projects\EggBot1-GH\EBB_firmware\app.X\source\ebb.c
                 gInt32_8   0x0001ec       data     static D:\Projects\EggBot1-GH\EBB_firmware\app.X\source\ebb.c
               gOutputStr   0x0001f0       data     static D:\Projects\EggBot1-GH\EBB_firmware\app.X\source\ebb_print.c
                     gPos   0x0001fc       data     static D:\Projects\EggBot1-GH\EBB_firmware\app.X\source\ebb_print.c
                        i   0x0001fd       data     static D:\Projects\EggBot1-GH\EBB_firmware\app.X\source\ebb_print.c
              delay_count   0x0001fe       data     static D:\Projects\EggBot1-GH\EBB_firmware\app.X\source\main.c
                 g_TX_buf   0x000200       data     extern D:\Projects\EggBot1-GH\EBB_firmware\app.X\source\UBW.c
         g_RX_command_buf   0x000240       data     extern D:\Projects\EggBot1-GH\EBB_firmware\app.X\source\UBW.c
                    sd000   0x000280       data     extern D:\Projects\EggBot1-GH\EBB_firmware\app.X\source\usb_descriptors.c
                    sd001   0x000284       data     extern D:\Projects\EggBot1-GH\EBB_firmware\app.X\source\usb_descriptors.c
                    sd002   0x00029c       data     extern D:\Projects\EggBot1-GH\EBB_firmware\app.X\source\usb_descriptors.c
                    sd003   0x0002d4       data     extern D:\Projects\EggBot1-GH\EBB_firmware\app.X\source\usb_descriptors.c
               USB_SD_Ptr   0x0002f6       data     extern D:\Projects\EggBot1-GH\EBB_firmware\app.X\source\usb_descriptors.c
                  FIFOPtr   0x0002fe       data     extern D:\Projects\EggBot1-GH\EBB_firmware\app.X\source\ebb.c
                 g_RX_buf   0x000300       data     extern D:\Projects\EggBot1-GH\EBB_firmware\app.X\source\UBW.c
                      BDT   0x000400       data     extern D:\Projects\EggBot1-GH\EBB_firmware\Microchip\USB\usb_device.c
                 SetupPkt   0x000430       data     extern D:\Projects\EggBot1-GH\EBB_firmware\Microchip\USB\usb_device.c
              CtrlTrfData   0x000438       data     extern D:\Projects\EggBot1-GH\EBB_firmware\Microchip\USB\usb_device.c
                    ARGA0   0x000500       data     extern source\squareroot.s      
                    ARGA1   0x000501       data     extern source\squareroot.s      
                    ARGA2   0x000502       data     extern source\squareroot.s      
                    ARGA3   0x000503       data     extern source\squareroot.s      
                    ARG1H   0x000504       data     extern source\squareroot.s      
                    ARG1L   0x000505       data     extern source\squareroot.s      
                    ARG2H   0x000506       data     extern source\squareroot.s      
                    ARG2L   0x000507       data     extern source\squareroot.s      
                    SARG1   0x000508       data     extern source\squareroot.s      
                    SARG2   0x000509       data     extern source\squareroot.s      
                     RES1   0x00050a       data     extern source\squareroot.s      
                     RES0   0x00050b       data     extern source\squareroot.s      
                   SQRES0   0x00050c       data     extern source\squareroot.s      
                   SQRES1   0x00050d       data     extern source\squareroot.s      
                   SQRES2   0x00050e       data     extern source\squareroot.s      
                   SQRES3   0x00050f       data     extern source\squareroot.s      
                  BITLOC0   0x000510       data     static source\squareroot.s      
                  BITLOC1   0x000511       data     static source\squareroot.s      
                    TEMP0   0x000512       data     static source\squareroot.s      
                    TEMP1   0x000513       data     static source\squareroot.s      
              cdc_data_tx   0x000514       data     extern D:\Projects\EggBot1-GH\EBB_firmware\Microchip\USB\CDC Device Driver\usb_function_cdc.c
              cdc_data_rx   0x000554       data     extern D:\Projects\EggBot1-GH\EBB_firmware\Microchip\USB\CDC Device Driver\usb_function_cdc.c
              line_coding   0x000594       data     extern D:\Projects\EggBot1-GH\EBB_firmware\Microchip\USB\CDC Device Driver\usb_function_cdc.c
               cdc_notice   0x00059b       data     extern D:\Projects\EggBot1-GH\EBB_firmware\Microchip\USB\CDC Device Driver\usb_function_cdc.c
               cdc_rx_len   0x0005a3       data     extern D:\Projects\EggBot1-GH\EBB_firmware\Microchip\USB\CDC Device Driver\usb_function_cdc.c
            cdc_trf_state   0x0005a4       data     extern D:\Projects\EggBot1-GH\EBB_firmware\Microchip\USB\CDC Device Driver\usb_function_cdc.c
                  pCDCSrc   0x0005a5       data     extern D:\Projects\EggBot1-GH\EBB_firmware\Microchip\USB\CDC Device Driver\usb_function_cdc.c
                  pCDCDst   0x0005a7       data     extern D:\Projects\EggBot1-GH\EBB_firmware\Microchip\USB\CDC Device Driver\usb_function_cdc.c
               cdc_tx_len   0x0005a9       data     extern D:\Projects\EggBot1-GH\EBB_firmware\Microchip\USB\CDC Device Driver\usb_function_cdc.c
             cdc_mem_type   0x0005aa       data     extern D:\Projects\EggBot1-GH\EBB_firmware\Microchip\USB\CDC Device Driver\usb_function_cdc.c
         CDCDataOutHandle   0x0005ab       data     extern D:\Projects\EggBot1-GH\EBB_firmware\Microchip\USB\CDC Device Driver\usb_function_cdc.c
          CDCDataInHandle   0x0005ad       data     extern D:\Projects\EggBot1-GH\EBB_firmware\Microchip\USB\CDC Device Driver\usb_function_cdc.c
    control_signal_bitmap   0x0005af       data     extern D:\Projects\EggBot1-GH\EBB_firmware\Microchip\USB\CDC Device Driver\usb_function_cdc.c
              BaudRateGen   0x0005b0       data     extern D:\Projects\EggBot1-GH\EBB_firmware\Microchip\USB\CDC Device Driver\usb_function_cdc.c
dummy_encapsulated_cmd_response   0x0005b4       data     extern D:\Projects\EggBot1-GH\EBB_firmware\Microchip\USB\CDC Device Driver\usb_function_cdc.c
           USBDeviceState   0x0005bc       data     extern D:\Projects\EggBot1-GH\EBB_firmware\Microchip\USB\usb_device.c
   USBActiveConfiguration   0x0005bd       data     extern D:\Projects\EggBot1-GH\EBB_firmware\Microchip\USB\usb_device.c
    USBAlternateInterface   0x0005be       data     extern D:\Projects\EggBot1-GH\EBB_firmware\Microchip\USB\usb_device.c
   pBDTEntryEP0OutCurrent   0x0005bf       data     extern D:\Projects\EggBot1-GH\EBB_firmware\Microchip\USB\usb_device.c
      pBDTEntryEP0OutNext   0x0005c1       data     extern D:\Projects\EggBot1-GH\EBB_firmware\Microchip\USB\usb_device.c
             pBDTEntryOut   0x0005c3       data     extern D:\Projects\EggBot1-GH\EBB_firmware\Microchip\USB\usb_device.c
              pBDTEntryIn   0x0005c9       data     extern D:\Projects\EggBot1-GH\EBB_firmware\Microchip\USB\usb_device.c
        shortPacketStatus   0x0005cf       data     extern D:\Projects\EggBot1-GH\EBB_firmware\Microchip\USB\usb_device.c
     controlTransferState   0x0005d0       data     extern D:\Projects\EggBot1-GH\EBB_firmware\Microchip\USB\usb_device.c
                  inPipes   0x0005d1       data     extern D:\Projects\EggBot1-GH\EBB_firmware\Microchip\USB\usb_device.c
                 outPipes   0x0005d6       data     extern D:\Projects\EggBot1-GH\EBB_firmware\Microchip\USB\usb_device.c
                     pDst   0x0005dd       data     extern D:\Projects\EggBot1-GH\EBB_firmware\Microchip\USB\usb_device.c
             RemoteWakeup   0x0005df       data     extern D:\Projects\EggBot1-GH\EBB_firmware\Microchip\USB\usb_device.c
        USBBusIsSuspended   0x0005e0       data     extern D:\Projects\EggBot1-GH\EBB_firmware\Microchip\USB\usb_device.c
                USTATcopy   0x0005e1       data     extern D:\Projects\EggBot1-GH\EBB_firmware\Microchip\USB\usb_device.c
          endpoint_number   0x0005e2       data     extern D:\Projects\EggBot1-GH\EBB_firmware\Microchip\USB\usb_device.c
       BothEP0OutUOWNsSet   0x0005e3       data     extern D:\Projects\EggBot1-GH\EBB_firmware\Microchip\USB\usb_device.c
               ep_data_in   0x0005e4       data     extern D:\Projects\EggBot1-GH\EBB_firmware\Microchip\USB\usb_device.c
              ep_data_out   0x0005e7       data     extern D:\Projects\EggBot1-GH\EBB_firmware\Microchip\USB\usb_device.c
USBStatusStageTimeoutCounter   0x0005ea       data     extern D:\Projects\EggBot1-GH\EBB_firmware\Microchip\USB\usb_device.c
USBDeferStatusStagePacket   0x0005eb       data     extern D:\Projects\EggBot1-GH\EBB_firmware\Microchip\USB\usb_device.c
USBStatusStageEnabledFlag1   0x0005ec       data     extern D:\Projects\EggBot1-GH\EBB_firmware\Microchip\USB\usb_device.c
USBStatusStageEnabledFlag2   0x0005ed       data     extern D:\Projects\EggBot1-GH\EBB_firmware\Microchip\USB\usb_device.c
USBDeferINDataStagePackets   0x0005ee       data     extern D:\Projects\EggBot1-GH\EBB_firmware\Microchip\USB\usb_device.c
USBDeferOUTDataStagePackets   0x0005ef       data     extern D:\Projects\EggBot1-GH\EBB_firmware\Microchip\USB\usb_device.c
                     prom   0x0005f0       data     static C:\MCC18\src\traditional\startup\c018i.c
                curr_byte   0x0005f3       data     static C:\MCC18\src\traditional\startup\c018i.c
               curr_entry   0x0005f5       data     static C:\MCC18\src\traditional\startup\c018i.c
                 data_ptr   0x0005f7       data     static C:\MCC18\src\traditional\startup\c018i.c
              CommandFIFO   0x000600       data     extern D:\Projects\EggBot1-GH\EBB_firmware\app.X\source\ebb.c
                    RPOR0   0x000ec6       data     extern E:\3.46\pic18-lt\cxx-framework\src\traditional\proc\p18f46j50.asm
                    RPOR1   0x000ec7       data     extern E:\3.46\pic18-lt\cxx-framework\src\traditional\proc\p18f46j50.asm
                    RPOR2   0x000ec8       data     extern E:\3.46\pic18-lt\cxx-framework\src\traditional\proc\p18f46j50.asm
                    RPOR3   0x000ec9       data     extern E:\3.46\pic18-lt\cxx-framework\src\traditional\proc\p18f46j50.asm
                    RPOR4   0x000eca       data     extern E:\3.46\pic18-lt\cxx-framework\src\traditional\proc\p18f46j50.asm
                    RPOR5   0x000ecb       data     extern E:\3.46\pic18-lt\cxx-framework\src\traditional\proc\p18f46j50.asm
                    RPOR6   0x000ecc       data     extern E:\3.46\pic18-lt\cxx-framework\src\traditional\proc\p18f46j50.asm
                    RPOR7   0x000ecd       data     extern E:\3.46\pic18-lt\cxx-framework\src\traditional\proc\p18f46j50.asm
                    RPOR8   0x000ece       data     extern E:\3.46\pic18-lt\cxx-framework\src\traditional\proc\p18f46j50.asm
                    RPOR9   0x000ecf       data     extern E:\3.46\pic18-lt\cxx-framework\src\traditional\proc\p18f46j50.asm
                   RPOR10   0x000ed0       data     extern E:\3.46\pic18-lt\cxx-framework\src\traditional\proc\p18f46j50.asm
                   RPOR11   0x000ed1       data     extern E:\3.46\pic18-lt\cxx-framework\src\traditional\proc\p18f46j50.asm
                   RPOR12   0x000ed2       data     extern E:\3.46\pic18-lt\cxx-framework\src\traditional\proc\p18f46j50.asm
                   RPOR13   0x000ed3       data     extern E:\3.46\pic18-lt\cxx-framework\src\traditional\proc\p18f46j50.asm
                   RPOR17   0x000ed7       data     extern E:\3.46\pic18-lt\cxx-framework\src\traditional\proc\p18f46j50.asm
                   RPOR18   0x000ed8       data     extern E:\3.46\pic18-lt\cxx-framework\src\traditional\proc\p18f46j50.asm
                   RPOR19   0x000ed9       data     extern E:\3.46\pic18-lt\cxx-framework\src\traditional\proc\p18f46j50.asm
                   RPOR20   0x000eda       data     extern E:\3.46\pic18-lt\cxx-framework\src\traditional\proc\p18f46j50.asm
                   RPOR21   0x000edb       data     extern E:\3.46\pic18-lt\cxx-framework\src\traditional\proc\p18f46j50.asm
                   RPOR22   0x000edc       data     extern E:\3.46\pic18-lt\cxx-framework\src\traditional\proc\p18f46j50.asm
                   RPOR23   0x000edd       data     extern E:\3.46\pic18-lt\cxx-framework\src\traditional\proc\p18f46j50.asm
                   RPOR24   0x000ede       data     extern E:\3.46\pic18-lt\cxx-framework\src\traditional\proc\p18f46j50.asm
                   RPINR1   0x000ee7       data     extern E:\3.46\pic18-lt\cxx-framework\src\traditional\proc\p18f46j50.asm
                   RPINR2   0x000ee8       data     extern E:\3.46\pic18-lt\cxx-framework\src\traditional\proc\p18f46j50.asm
                   RPINR3   0x000ee9       data     extern E:\3.46\pic18-lt\cxx-framework\src\traditional\proc\p18f46j50.asm
                   RPINR4   0x000eea       data     extern E:\3.46\pic18-lt\cxx-framework\src\traditional\proc\p18f46j50.asm
                   RPINR6   0x000eec       data     extern E:\3.46\pic18-lt\cxx-framework\src\traditional\proc\p18f46j50.asm
                   RPINR7   0x000eed       data     extern E:\3.46\pic18-lt\cxx-framework\src\traditional\proc\p18f46j50.asm
                   RPINR8   0x000eee       data     extern E:\3.46\pic18-lt\cxx-framework\src\traditional\proc\p18f46j50.asm
                  RPINR12   0x000ef2       data     extern E:\3.46\pic18-lt\cxx-framework\src\traditional\proc\p18f46j50.asm
                  RPINR13   0x000ef3       data     extern E:\3.46\pic18-lt\cxx-framework\src\traditional\proc\p18f46j50.asm
                  RPINR16   0x000ef6       data     extern E:\3.46\pic18-lt\cxx-framework\src\traditional\proc\p18f46j50.asm
                  RPINR17   0x000ef7       data     extern E:\3.46\pic18-lt\cxx-framework\src\traditional\proc\p18f46j50.asm
                  RPINR21   0x000efb       data     extern E:\3.46\pic18-lt\cxx-framework\src\traditional\proc\p18f46j50.asm
                  RPINR22   0x000efc       data     extern E:\3.46\pic18-lt\cxx-framework\src\traditional\proc\p18f46j50.asm
                  RPINR23   0x000efd       data     extern E:\3.46\pic18-lt\cxx-framework\src\traditional\proc\p18f46j50.asm
                  RPINR24   0x000efe       data     extern E:\3.46\pic18-lt\cxx-framework\src\traditional\proc\p18f46j50.asm
                   PPSCON   0x000eff       data     extern E:\3.46\pic18-lt\cxx-framework\src\traditional\proc\p18f46j50.asm
               PPSCONbits   0x000eff       data     extern E:\3.46\pic18-lt\cxx-framework\src\traditional\proc\p18f46j50.asm
                     UEP0   0x000f26       data     extern E:\3.46\pic18-lt\cxx-framework\src\traditional\proc\p18f46j50.asm
                 UEP0bits   0x000f26       data     extern E:\3.46\pic18-lt\cxx-framework\src\traditional\proc\p18f46j50.asm
                 UEP1bits   0x000f27       data     extern E:\3.46\pic18-lt\cxx-framework\src\traditional\proc\p18f46j50.asm
                     UEP1   0x000f27       data     extern E:\3.46\pic18-lt\cxx-framework\src\traditional\proc\p18f46j50.asm
                 UEP2bits   0x000f28       data     extern E:\3.46\pic18-lt\cxx-framework\src\traditional\proc\p18f46j50.asm
                     UEP2   0x000f28       data     extern E:\3.46\pic18-lt\cxx-framework\src\traditional\proc\p18f46j50.asm
                 UEP3bits   0x000f29       data     extern E:\3.46\pic18-lt\cxx-framework\src\traditional\proc\p18f46j50.asm
                     UEP3   0x000f29       data     extern E:\3.46\pic18-lt\cxx-framework\src\traditional\proc\p18f46j50.asm
                 UEP4bits   0x000f2a       data     extern E:\3.46\pic18-lt\cxx-framework\src\traditional\proc\p18f46j50.asm
                     UEP4   0x000f2a       data     extern E:\3.46\pic18-lt\cxx-framework\src\traditional\proc\p18f46j50.asm
                 UEP5bits   0x000f2b       data     extern E:\3.46\pic18-lt\cxx-framework\src\traditional\proc\p18f46j50.asm
                     UEP5   0x000f2b       data     extern E:\3.46\pic18-lt\cxx-framework\src\traditional\proc\p18f46j50.asm
                     UEP6   0x000f2c       data     extern E:\3.46\pic18-lt\cxx-framework\src\traditional\proc\p18f46j50.asm
                 UEP6bits   0x000f2c       data     extern E:\3.46\pic18-lt\cxx-framework\src\traditional\proc\p18f46j50.asm
                     UEP7   0x000f2d       data     extern E:\3.46\pic18-lt\cxx-framework\src\traditional\proc\p18f46j50.asm
                 UEP7bits   0x000f2d       data     extern E:\3.46\pic18-lt\cxx-framework\src\traditional\proc\p18f46j50.asm
                     UEP8   0x000f2e       data     extern E:\3.46\pic18-lt\cxx-framework\src\traditional\proc\p18f46j50.asm
                 UEP8bits   0x000f2e       data     extern E:\3.46\pic18-lt\cxx-framework\src\traditional\proc\p18f46j50.asm
                 UEP9bits   0x000f2f       data     extern E:\3.46\pic18-lt\cxx-framework\src\traditional\proc\p18f46j50.asm
                     UEP9   0x000f2f       data     extern E:\3.46\pic18-lt\cxx-framework\src\traditional\proc\p18f46j50.asm
                UEP10bits   0x000f30       data     extern E:\3.46\pic18-lt\cxx-framework\src\traditional\proc\p18f46j50.asm
                    UEP10   0x000f30       data     extern E:\3.46\pic18-lt\cxx-framework\src\traditional\proc\p18f46j50.asm
                    UEP11   0x000f31       data     extern E:\3.46\pic18-lt\cxx-framework\src\traditional\proc\p18f46j50.asm
                UEP11bits   0x000f31       data     extern E:\3.46\pic18-lt\cxx-framework\src\traditional\proc\p18f46j50.asm
                    UEP12   0x000f32       data     extern E:\3.46\pic18-lt\cxx-framework\src\traditional\proc\p18f46j50.asm
                UEP12bits   0x000f32       data     extern E:\3.46\pic18-lt\cxx-framework\src\traditional\proc\p18f46j50.asm
                UEP13bits   0x000f33       data     extern E:\3.46\pic18-lt\cxx-framework\src\traditional\proc\p18f46j50.asm
                    UEP13   0x000f33       data     extern E:\3.46\pic18-lt\cxx-framework\src\traditional\proc\p18f46j50.asm
                    UEP14   0x000f34       data     extern E:\3.46\pic18-lt\cxx-framework\src\traditional\proc\p18f46j50.asm
                UEP14bits   0x000f34       data     extern E:\3.46\pic18-lt\cxx-framework\src\traditional\proc\p18f46j50.asm
                    UEP15   0x000f35       data     extern E:\3.46\pic18-lt\cxx-framework\src\traditional\proc\p18f46j50.asm
                UEP15bits   0x000f35       data     extern E:\3.46\pic18-lt\cxx-framework\src\traditional\proc\p18f46j50.asm
                  UIEbits   0x000f36       data     extern E:\3.46\pic18-lt\cxx-framework\src\traditional\proc\p18f46j50.asm
                      UIE   0x000f36       data     extern E:\3.46\pic18-lt\cxx-framework\src\traditional\proc\p18f46j50.asm
                 UEIEbits   0x000f37       data     extern E:\3.46\pic18-lt\cxx-framework\src\traditional\proc\p18f46j50.asm
                     UEIE   0x000f37       data     extern E:\3.46\pic18-lt\cxx-framework\src\traditional\proc\p18f46j50.asm
                UADDRbits   0x000f38       data     extern E:\3.46\pic18-lt\cxx-framework\src\traditional\proc\p18f46j50.asm
                    UADDR   0x000f38       data     extern E:\3.46\pic18-lt\cxx-framework\src\traditional\proc\p18f46j50.asm
                 UCFGbits   0x000f39       data     extern E:\3.46\pic18-lt\cxx-framework\src\traditional\proc\p18f46j50.asm
                     UCFG   0x000f39       data     extern E:\3.46\pic18-lt\cxx-framework\src\traditional\proc\p18f46j50.asm
              PADCFG1bits   0x000f3c       data     extern E:\3.46\pic18-lt\cxx-framework\src\traditional\proc\p18f46j50.asm
                  PADCFG1   0x000f3c       data     extern E:\3.46\pic18-lt\cxx-framework\src\traditional\proc\p18f46j50.asm
                  REFOCON   0x000f3d       data     extern E:\3.46\pic18-lt\cxx-framework\src\traditional\proc\p18f46j50.asm
              REFOCONbits   0x000f3d       data     extern E:\3.46\pic18-lt\cxx-framework\src\traditional\proc\p18f46j50.asm
                   RTCCAL   0x000f3e       data     extern E:\3.46\pic18-lt\cxx-framework\src\traditional\proc\p18f46j50.asm
               RTCCALbits   0x000f3e       data     extern E:\3.46\pic18-lt\cxx-framework\src\traditional\proc\p18f46j50.asm
               RTCCFGbits   0x000f3f       data     extern E:\3.46\pic18-lt\cxx-framework\src\traditional\proc\p18f46j50.asm
                   RTCCFG   0x000f3f       data     extern E:\3.46\pic18-lt\cxx-framework\src\traditional\proc\p18f46j50.asm
                   ODCON3   0x000f40       data     extern E:\3.46\pic18-lt\cxx-framework\src\traditional\proc\p18f46j50.asm
               ODCON3bits   0x000f40       data     extern E:\3.46\pic18-lt\cxx-framework\src\traditional\proc\p18f46j50.asm
                   ODCON2   0x000f41       data     extern E:\3.46\pic18-lt\cxx-framework\src\traditional\proc\p18f46j50.asm
               ODCON2bits   0x000f41       data     extern E:\3.46\pic18-lt\cxx-framework\src\traditional\proc\p18f46j50.asm
               ODCON1bits   0x000f42       data     extern E:\3.46\pic18-lt\cxx-framework\src\traditional\proc\p18f46j50.asm
                   ODCON1   0x000f42       data     extern E:\3.46\pic18-lt\cxx-framework\src\traditional\proc\p18f46j50.asm
                   ANCON0   0x000f48       data     extern E:\3.46\pic18-lt\cxx-framework\src\traditional\proc\p18f46j50.asm
               ANCON0bits   0x000f48       data     extern E:\3.46\pic18-lt\cxx-framework\src\traditional\proc\p18f46j50.asm
               ANCON1bits   0x000f49       data     extern E:\3.46\pic18-lt\cxx-framework\src\traditional\proc\p18f46j50.asm
                   ANCON1   0x000f49       data     extern E:\3.46\pic18-lt\cxx-framework\src\traditional\proc\p18f46j50.asm
                  DSWAKEL   0x000f4a       data     extern E:\3.46\pic18-lt\cxx-framework\src\traditional\proc\p18f46j50.asm
              DSWAKELbits   0x000f4a       data     extern E:\3.46\pic18-lt\cxx-framework\src\traditional\proc\p18f46j50.asm
                  DSWAKEH   0x000f4b       data     extern E:\3.46\pic18-lt\cxx-framework\src\traditional\proc\p18f46j50.asm
              DSWAKEHbits   0x000f4b       data     extern E:\3.46\pic18-lt\cxx-framework\src\traditional\proc\p18f46j50.asm
                   DSCONL   0x000f4c       data     extern E:\3.46\pic18-lt\cxx-framework\src\traditional\proc\p18f46j50.asm
               DSCONLbits   0x000f4c       data     extern E:\3.46\pic18-lt\cxx-framework\src\traditional\proc\p18f46j50.asm
                   DSCONH   0x000f4d       data     extern E:\3.46\pic18-lt\cxx-framework\src\traditional\proc\p18f46j50.asm
               DSCONHbits   0x000f4d       data     extern E:\3.46\pic18-lt\cxx-framework\src\traditional\proc\p18f46j50.asm
                   DSGPR0   0x000f4e       data     extern E:\3.46\pic18-lt\cxx-framework\src\traditional\proc\p18f46j50.asm
                   DSGPR1   0x000f4f       data     extern E:\3.46\pic18-lt\cxx-framework\src\traditional\proc\p18f46j50.asm
              TCLKCONbits   0x000f52       data     extern E:\3.46\pic18-lt\cxx-framework\src\traditional\proc\p18f46j50.asm
                  TCLKCON   0x000f52       data     extern E:\3.46\pic18-lt\cxx-framework\src\traditional\proc\p18f46j50.asm
                   CVRCON   0x000f53       data     extern E:\3.46\pic18-lt\cxx-framework\src\traditional\proc\p18f46j50.asm
               CVRCONbits   0x000f53       data     extern E:\3.46\pic18-lt\cxx-framework\src\traditional\proc\p18f46j50.asm
              PMSTATLbits   0x000f54       data     extern E:\3.46\pic18-lt\cxx-framework\src\traditional\proc\p18f46j50.asm
                  PMSTATL   0x000f54       data     extern E:\3.46\pic18-lt\cxx-framework\src\traditional\proc\p18f46j50.asm
                  PMSTATH   0x000f55       data     extern E:\3.46\pic18-lt\cxx-framework\src\traditional\proc\p18f46j50.asm
              PMSTATHbits   0x000f55       data     extern E:\3.46\pic18-lt\cxx-framework\src\traditional\proc\p18f46j50.asm
                     PMEL   0x000f56       data     extern E:\3.46\pic18-lt\cxx-framework\src\traditional\proc\p18f46j50.asm
                 PMELbits   0x000f56       data     extern E:\3.46\pic18-lt\cxx-framework\src\traditional\proc\p18f46j50.asm
                 PMEHbits   0x000f57       data     extern E:\3.46\pic18-lt\cxx-framework\src\traditional\proc\p18f46j50.asm
                     PMEH   0x000f57       data     extern E:\3.46\pic18-lt\cxx-framework\src\traditional\proc\p18f46j50.asm
                  PMDIN2L   0x000f58       data     extern E:\3.46\pic18-lt\cxx-framework\src\traditional\proc\p18f46j50.asm
                  PMDIN2H   0x000f59       data     extern E:\3.46\pic18-lt\cxx-framework\src\traditional\proc\p18f46j50.asm
                 PMDOUT2L   0x000f5a       data     extern E:\3.46\pic18-lt\cxx-framework\src\traditional\proc\p18f46j50.asm
                 PMDOUT2H   0x000f5b       data     extern E:\3.46\pic18-lt\cxx-framework\src\traditional\proc\p18f46j50.asm
              PMMODELbits   0x000f5c       data     extern E:\3.46\pic18-lt\cxx-framework\src\traditional\proc\p18f46j50.asm
                  PMMODEL   0x000f5c       data     extern E:\3.46\pic18-lt\cxx-framework\src\traditional\proc\p18f46j50.asm
                  PMMODEH   0x000f5d       data     extern E:\3.46\pic18-lt\cxx-framework\src\traditional\proc\p18f46j50.asm
              PMMODEHbits   0x000f5d       data     extern E:\3.46\pic18-lt\cxx-framework\src\traditional\proc\p18f46j50.asm
               PMCONLbits   0x000f5e       data     extern E:\3.46\pic18-lt\cxx-framework\src\traditional\proc\p18f46j50.asm
                   PMCONL   0x000f5e       data     extern E:\3.46\pic18-lt\cxx-framework\src\traditional\proc\p18f46j50.asm
                   PMCONH   0x000f5f       data     extern E:\3.46\pic18-lt\cxx-framework\src\traditional\proc\p18f46j50.asm
               PMCONHbits   0x000f5f       data     extern E:\3.46\pic18-lt\cxx-framework\src\traditional\proc\p18f46j50.asm
                     UFRM   0x000f60       data     extern E:\3.46\pic18-lt\cxx-framework\src\traditional\proc\p18f46j50.asm
                UFRMLbits   0x000f60       data     extern E:\3.46\pic18-lt\cxx-framework\src\traditional\proc\p18f46j50.asm
                    UFRML   0x000f60       data     extern E:\3.46\pic18-lt\cxx-framework\src\traditional\proc\p18f46j50.asm
                UFRMHbits   0x000f61       data     extern E:\3.46\pic18-lt\cxx-framework\src\traditional\proc\p18f46j50.asm
                    UFRMH   0x000f61       data     extern E:\3.46\pic18-lt\cxx-framework\src\traditional\proc\p18f46j50.asm
                      UIR   0x000f62       data     extern E:\3.46\pic18-lt\cxx-framework\src\traditional\proc\p18f46j50.asm
                  UIRbits   0x000f62       data     extern E:\3.46\pic18-lt\cxx-framework\src\traditional\proc\p18f46j50.asm
                     UEIR   0x000f63       data     extern E:\3.46\pic18-lt\cxx-framework\src\traditional\proc\p18f46j50.asm
                 UEIRbits   0x000f63       data     extern E:\3.46\pic18-lt\cxx-framework\src\traditional\proc\p18f46j50.asm
                USTATbits   0x000f64       data     extern E:\3.46\pic18-lt\cxx-framework\src\traditional\proc\p18f46j50.asm
                    USTAT   0x000f64       data     extern E:\3.46\pic18-lt\cxx-framework\src\traditional\proc\p18f46j50.asm
                     UCON   0x000f65       data     extern E:\3.46\pic18-lt\cxx-framework\src\traditional\proc\p18f46j50.asm
                 UCONbits   0x000f65       data     extern E:\3.46\pic18-lt\cxx-framework\src\traditional\proc\p18f46j50.asm
                   DMABCH   0x000f66       data     extern E:\3.46\pic18-lt\cxx-framework\src\traditional\proc\p18f46j50.asm
               DMABCHbits   0x000f66       data     extern E:\3.46\pic18-lt\cxx-framework\src\traditional\proc\p18f46j50.asm
                   DMABCL   0x000f67       data     extern E:\3.46\pic18-lt\cxx-framework\src\traditional\proc\p18f46j50.asm
                  RXADDRH   0x000f68       data     extern E:\3.46\pic18-lt\cxx-framework\src\traditional\proc\p18f46j50.asm
              RXADDRHbits   0x000f68       data     extern E:\3.46\pic18-lt\cxx-framework\src\traditional\proc\p18f46j50.asm
                  RXADDRL   0x000f69       data     extern E:\3.46\pic18-lt\cxx-framework\src\traditional\proc\p18f46j50.asm
                  TXADDRH   0x000f6a       data     extern E:\3.46\pic18-lt\cxx-framework\src\traditional\proc\p18f46j50.asm
              TXADDRHbits   0x000f6a       data     extern E:\3.46\pic18-lt\cxx-framework\src\traditional\proc\p18f46j50.asm
                  TXADDRL   0x000f6b       data     extern E:\3.46\pic18-lt\cxx-framework\src\traditional\proc\p18f46j50.asm
                  PMDIN1L   0x000f6c       data     extern E:\3.46\pic18-lt\cxx-framework\src\traditional\proc\p18f46j50.asm
                  PMDIN1H   0x000f6d       data     extern E:\3.46\pic18-lt\cxx-framework\src\traditional\proc\p18f46j50.asm
                 PMDOUT1L   0x000f6e       data     extern E:\3.46\pic18-lt\cxx-framework\src\traditional\proc\p18f46j50.asm
                  PMADDRL   0x000f6e       data     extern E:\3.46\pic18-lt\cxx-framework\src\traditional\proc\p18f46j50.asm
                  PMADDRH   0x000f6f       data     extern E:\3.46\pic18-lt\cxx-framework\src\traditional\proc\p18f46j50.asm
              PMADDRHbits   0x000f6f       data     extern E:\3.46\pic18-lt\cxx-framework\src\traditional\proc\p18f46j50.asm
                 PMDOUT1H   0x000f6f       data     extern E:\3.46\pic18-lt\cxx-framework\src\traditional\proc\p18f46j50.asm
               CMSTATbits   0x000f70       data     extern E:\3.46\pic18-lt\cxx-framework\src\traditional\proc\p18f46j50.asm
             CMSTATUSbits   0x000f70       data     extern E:\3.46\pic18-lt\cxx-framework\src\traditional\proc\p18f46j50.asm
                 CMSTATUS   0x000f70       data     extern E:\3.46\pic18-lt\cxx-framework\src\traditional\proc\p18f46j50.asm
                   CMSTAT   0x000f70       data     extern E:\3.46\pic18-lt\cxx-framework\src\traditional\proc\p18f46j50.asm
                 SSP2CON2   0x000f71       data     extern E:\3.46\pic18-lt\cxx-framework\src\traditional\proc\p18f46j50.asm
             SSP2CON2bits   0x000f71       data     extern E:\3.46\pic18-lt\cxx-framework\src\traditional\proc\p18f46j50.asm
                 SSP2CON1   0x000f72       data     extern E:\3.46\pic18-lt\cxx-framework\src\traditional\proc\p18f46j50.asm
             SSP2CON1bits   0x000f72       data     extern E:\3.46\pic18-lt\cxx-framework\src\traditional\proc\p18f46j50.asm
             SSP2STATbits   0x000f73       data     extern E:\3.46\pic18-lt\cxx-framework\src\traditional\proc\p18f46j50.asm
                 SSP2STAT   0x000f73       data     extern E:\3.46\pic18-lt\cxx-framework\src\traditional\proc\p18f46j50.asm
              SSP2ADDbits   0x000f74       data     extern E:\3.46\pic18-lt\cxx-framework\src\traditional\proc\p18f46j50.asm
                  SSP2ADD   0x000f74       data     extern E:\3.46\pic18-lt\cxx-framework\src\traditional\proc\p18f46j50.asm
                  SSP2BUF   0x000f75       data     extern E:\3.46\pic18-lt\cxx-framework\src\traditional\proc\p18f46j50.asm
                T4CONbits   0x000f76       data     extern E:\3.46\pic18-lt\cxx-framework\src\traditional\proc\p18f46j50.asm
                    T4CON   0x000f76       data     extern E:\3.46\pic18-lt\cxx-framework\src\traditional\proc\p18f46j50.asm
                      PR4   0x000f77       data     extern E:\3.46\pic18-lt\cxx-framework\src\traditional\proc\p18f46j50.asm
                     TMR4   0x000f78       data     extern E:\3.46\pic18-lt\cxx-framework\src\traditional\proc\p18f46j50.asm
                T3CONbits   0x000f79       data     extern E:\3.46\pic18-lt\cxx-framework\src\traditional\proc\p18f46j50.asm
                    T3CON   0x000f79       data     extern E:\3.46\pic18-lt\cxx-framework\src\traditional\proc\p18f46j50.asm
                    TMR3L   0x000f7a       data     extern E:\3.46\pic18-lt\cxx-framework\src\traditional\proc\p18f46j50.asm
                    TMR3H   0x000f7b       data     extern E:\3.46\pic18-lt\cxx-framework\src\traditional\proc\p18f46j50.asm
             BAUDCON2bits   0x000f7c       data     extern E:\3.46\pic18-lt\cxx-framework\src\traditional\proc\p18f46j50.asm
                 BAUDCON2   0x000f7c       data     extern E:\3.46\pic18-lt\cxx-framework\src\traditional\proc\p18f46j50.asm
                  SPBRGH2   0x000f7d       data     extern E:\3.46\pic18-lt\cxx-framework\src\traditional\proc\p18f46j50.asm
              BAUDCONbits   0x000f7e       data     extern E:\3.46\pic18-lt\cxx-framework\src\traditional\proc\p18f46j50.asm
             BAUDCON1bits   0x000f7e       data     extern E:\3.46\pic18-lt\cxx-framework\src\traditional\proc\p18f46j50.asm
                 BAUDCON1   0x000f7e       data     extern E:\3.46\pic18-lt\cxx-framework\src\traditional\proc\p18f46j50.asm
                  BAUDCON   0x000f7e       data     extern E:\3.46\pic18-lt\cxx-framework\src\traditional\proc\p18f46j50.asm
                  BAUDCTL   0x000f7e       data     extern E:\3.46\pic18-lt\cxx-framework\src\traditional\proc\p18f46j50.asm
              BAUDCTLbits   0x000f7e       data     extern E:\3.46\pic18-lt\cxx-framework\src\traditional\proc\p18f46j50.asm
                  SPBRGH1   0x000f7f       data     extern E:\3.46\pic18-lt\cxx-framework\src\traditional\proc\p18f46j50.asm
                   SPBRGH   0x000f7f       data     extern E:\3.46\pic18-lt\cxx-framework\src\traditional\proc\p18f46j50.asm
                    PORTA   0x000f80       data     extern E:\3.46\pic18-lt\cxx-framework\src\traditional\proc\p18f46j50.asm
                PORTAbits   0x000f80       data     extern E:\3.46\pic18-lt\cxx-framework\src\traditional\proc\p18f46j50.asm
                PORTBbits   0x000f81       data     extern E:\3.46\pic18-lt\cxx-framework\src\traditional\proc\p18f46j50.asm
                    PORTB   0x000f81       data     extern E:\3.46\pic18-lt\cxx-framework\src\traditional\proc\p18f46j50.asm
                    PORTC   0x000f82       data     extern E:\3.46\pic18-lt\cxx-framework\src\traditional\proc\p18f46j50.asm
                PORTCbits   0x000f82       data     extern E:\3.46\pic18-lt\cxx-framework\src\traditional\proc\p18f46j50.asm
                    PORTD   0x000f83       data     extern E:\3.46\pic18-lt\cxx-framework\src\traditional\proc\p18f46j50.asm
                PORTDbits   0x000f83       data     extern E:\3.46\pic18-lt\cxx-framework\src\traditional\proc\p18f46j50.asm
                    PORTE   0x000f84       data     extern E:\3.46\pic18-lt\cxx-framework\src\traditional\proc\p18f46j50.asm
                PORTEbits   0x000f84       data     extern E:\3.46\pic18-lt\cxx-framework\src\traditional\proc\p18f46j50.asm
              HLVDCONbits   0x000f85       data     extern E:\3.46\pic18-lt\cxx-framework\src\traditional\proc\p18f46j50.asm
                  HLVDCON   0x000f85       data     extern E:\3.46\pic18-lt\cxx-framework\src\traditional\proc\p18f46j50.asm
              DMACON2bits   0x000f86       data     extern E:\3.46\pic18-lt\cxx-framework\src\traditional\proc\p18f46j50.asm
                  DMACON2   0x000f86       data     extern E:\3.46\pic18-lt\cxx-framework\src\traditional\proc\p18f46j50.asm
                  DMACON1   0x000f88       data     extern E:\3.46\pic18-lt\cxx-framework\src\traditional\proc\p18f46j50.asm
              DMACON1bits   0x000f88       data     extern E:\3.46\pic18-lt\cxx-framework\src\traditional\proc\p18f46j50.asm
                     LATA   0x000f89       data     extern E:\3.46\pic18-lt\cxx-framework\src\traditional\proc\p18f46j50.asm
                 LATAbits   0x000f89       data     extern E:\3.46\pic18-lt\cxx-framework\src\traditional\proc\p18f46j50.asm
                 LATBbits   0x000f8a       data     extern E:\3.46\pic18-lt\cxx-framework\src\traditional\proc\p18f46j50.asm
                     LATB   0x000f8a       data     extern E:\3.46\pic18-lt\cxx-framework\src\traditional\proc\p18f46j50.asm
                 LATCbits   0x000f8b       data     extern E:\3.46\pic18-lt\cxx-framework\src\traditional\proc\p18f46j50.asm
                     LATC   0x000f8b       data     extern E:\3.46\pic18-lt\cxx-framework\src\traditional\proc\p18f46j50.asm
                 LATDbits   0x000f8c       data     extern E:\3.46\pic18-lt\cxx-framework\src\traditional\proc\p18f46j50.asm
                     LATD   0x000f8c       data     extern E:\3.46\pic18-lt\cxx-framework\src\traditional\proc\p18f46j50.asm
                 LATEbits   0x000f8d       data     extern E:\3.46\pic18-lt\cxx-framework\src\traditional\proc\p18f46j50.asm
                     LATE   0x000f8d       data     extern E:\3.46\pic18-lt\cxx-framework\src\traditional\proc\p18f46j50.asm
                 ALRMVALL   0x000f8e       data     extern E:\3.46\pic18-lt\cxx-framework\src\traditional\proc\p18f46j50.asm
                 ALRMVALH   0x000f8f       data     extern E:\3.46\pic18-lt\cxx-framework\src\traditional\proc\p18f46j50.asm
                  ALRMRPT   0x000f90       data     extern E:\3.46\pic18-lt\cxx-framework\src\traditional\proc\p18f46j50.asm
              ALRMRPTbits   0x000f90       data     extern E:\3.46\pic18-lt\cxx-framework\src\traditional\proc\p18f46j50.asm
                  ALRMCFG   0x000f91       data     extern E:\3.46\pic18-lt\cxx-framework\src\traditional\proc\p18f46j50.asm
              ALRMCFGbits   0x000f91       data     extern E:\3.46\pic18-lt\cxx-framework\src\traditional\proc\p18f46j50.asm
                    TRISA   0x000f92       data     extern E:\3.46\pic18-lt\cxx-framework\src\traditional\proc\p18f46j50.asm
                TRISAbits   0x000f92       data     extern E:\3.46\pic18-lt\cxx-framework\src\traditional\proc\p18f46j50.asm
                    TRISB   0x000f93       data     extern E:\3.46\pic18-lt\cxx-framework\src\traditional\proc\p18f46j50.asm
                TRISBbits   0x000f93       data     extern E:\3.46\pic18-lt\cxx-framework\src\traditional\proc\p18f46j50.asm
                    TRISC   0x000f94       data     extern E:\3.46\pic18-lt\cxx-framework\src\traditional\proc\p18f46j50.asm
                TRISCbits   0x000f94       data     extern E:\3.46\pic18-lt\cxx-framework\src\traditional\proc\p18f46j50.asm
                    TRISD   0x000f95       data     extern E:\3.46\pic18-lt\cxx-framework\src\traditional\proc\p18f46j50.asm
                TRISDbits   0x000f95       data     extern E:\3.46\pic18-lt\cxx-framework\src\traditional\proc\p18f46j50.asm
                TRISEbits   0x000f96       data     extern E:\3.46\pic18-lt\cxx-framework\src\traditional\proc\p18f46j50.asm
                    TRISE   0x000f96       data     extern E:\3.46\pic18-lt\cxx-framework\src\traditional\proc\p18f46j50.asm
               T3GCONbits   0x000f97       data     extern E:\3.46\pic18-lt\cxx-framework\src\traditional\proc\p18f46j50.asm
                   T3GCON   0x000f97       data     extern E:\3.46\pic18-lt\cxx-framework\src\traditional\proc\p18f46j50.asm
                  RTCVALL   0x000f98       data     extern E:\3.46\pic18-lt\cxx-framework\src\traditional\proc\p18f46j50.asm
                  RTCVALH   0x000f99       data     extern E:\3.46\pic18-lt\cxx-framework\src\traditional\proc\p18f46j50.asm
                   T1GCON   0x000f9a       data     extern E:\3.46\pic18-lt\cxx-framework\src\traditional\proc\p18f46j50.asm
               T1GCONbits   0x000f9a       data     extern E:\3.46\pic18-lt\cxx-framework\src\traditional\proc\p18f46j50.asm
                  OSCTUNE   0x000f9b       data     extern E:\3.46\pic18-lt\cxx-framework\src\traditional\proc\p18f46j50.asm
              OSCTUNEbits   0x000f9b       data     extern E:\3.46\pic18-lt\cxx-framework\src\traditional\proc\p18f46j50.asm
                   RCSTA2   0x000f9c       data     extern E:\3.46\pic18-lt\cxx-framework\src\traditional\proc\p18f46j50.asm
               RCSTA2bits   0x000f9c       data     extern E:\3.46\pic18-lt\cxx-framework\src\traditional\proc\p18f46j50.asm
                 PIE1bits   0x000f9d       data     extern E:\3.46\pic18-lt\cxx-framework\src\traditional\proc\p18f46j50.asm
                     PIE1   0x000f9d       data     extern E:\3.46\pic18-lt\cxx-framework\src\traditional\proc\p18f46j50.asm
                 PIR1bits   0x000f9e       data     extern E:\3.46\pic18-lt\cxx-framework\src\traditional\proc\p18f46j50.asm
                     PIR1   0x000f9e       data     extern E:\3.46\pic18-lt\cxx-framework\src\traditional\proc\p18f46j50.asm
                 IPR1bits   0x000f9f       data     extern E:\3.46\pic18-lt\cxx-framework\src\traditional\proc\p18f46j50.asm
                     IPR1   0x000f9f       data     extern E:\3.46\pic18-lt\cxx-framework\src\traditional\proc\p18f46j50.asm
                     PIE2   0x000fa0       data     extern E:\3.46\pic18-lt\cxx-framework\src\traditional\proc\p18f46j50.asm
                 PIE2bits   0x000fa0       data     extern E:\3.46\pic18-lt\cxx-framework\src\traditional\proc\p18f46j50.asm
                     PIR2   0x000fa1       data     extern E:\3.46\pic18-lt\cxx-framework\src\traditional\proc\p18f46j50.asm
                 PIR2bits   0x000fa1       data     extern E:\3.46\pic18-lt\cxx-framework\src\traditional\proc\p18f46j50.asm
                     IPR2   0x000fa2       data     extern E:\3.46\pic18-lt\cxx-framework\src\traditional\proc\p18f46j50.asm
                 IPR2bits   0x000fa2       data     extern E:\3.46\pic18-lt\cxx-framework\src\traditional\proc\p18f46j50.asm
                 PIE3bits   0x000fa3       data     extern E:\3.46\pic18-lt\cxx-framework\src\traditional\proc\p18f46j50.asm
                     PIE3   0x000fa3       data     extern E:\3.46\pic18-lt\cxx-framework\src\traditional\proc\p18f46j50.asm
                     PIR3   0x000fa4       data     extern E:\3.46\pic18-lt\cxx-framework\src\traditional\proc\p18f46j50.asm
                 PIR3bits   0x000fa4       data     extern E:\3.46\pic18-lt\cxx-framework\src\traditional\proc\p18f46j50.asm
                     IPR3   0x000fa5       data     extern E:\3.46\pic18-lt\cxx-framework\src\traditional\proc\p18f46j50.asm
                 IPR3bits   0x000fa5       data     extern E:\3.46\pic18-lt\cxx-framework\src\traditional\proc\p18f46j50.asm
               EECON1bits   0x000fa6       data     extern E:\3.46\pic18-lt\cxx-framework\src\traditional\proc\p18f46j50.asm
                   EECON1   0x000fa6       data     extern E:\3.46\pic18-lt\cxx-framework\src\traditional\proc\p18f46j50.asm
                   EECON2   0x000fa7       data     extern E:\3.46\pic18-lt\cxx-framework\src\traditional\proc\p18f46j50.asm
                   TXSTA2   0x000fa8       data     extern E:\3.46\pic18-lt\cxx-framework\src\traditional\proc\p18f46j50.asm
               TXSTA2bits   0x000fa8       data     extern E:\3.46\pic18-lt\cxx-framework\src\traditional\proc\p18f46j50.asm
                   TXREG2   0x000fa9       data     extern E:\3.46\pic18-lt\cxx-framework\src\traditional\proc\p18f46j50.asm
                   RCREG2   0x000faa       data     extern E:\3.46\pic18-lt\cxx-framework\src\traditional\proc\p18f46j50.asm
                   SPBRG2   0x000fab       data     extern E:\3.46\pic18-lt\cxx-framework\src\traditional\proc\p18f46j50.asm
                RCSTAbits   0x000fac       data     extern E:\3.46\pic18-lt\cxx-framework\src\traditional\proc\p18f46j50.asm
                    RCSTA   0x000fac       data     extern E:\3.46\pic18-lt\cxx-framework\src\traditional\proc\p18f46j50.asm
                   RCSTA1   0x000fac       data     extern E:\3.46\pic18-lt\cxx-framework\src\traditional\proc\p18f46j50.asm
               RCSTA1bits   0x000fac       data     extern E:\3.46\pic18-lt\cxx-framework\src\traditional\proc\p18f46j50.asm
                TXSTAbits   0x000fad       data     extern E:\3.46\pic18-lt\cxx-framework\src\traditional\proc\p18f46j50.asm
               TXSTA1bits   0x000fad       data     extern E:\3.46\pic18-lt\cxx-framework\src\traditional\proc\p18f46j50.asm
                   TXSTA1   0x000fad       data     extern E:\3.46\pic18-lt\cxx-framework\src\traditional\proc\p18f46j50.asm
                    TXSTA   0x000fad       data     extern E:\3.46\pic18-lt\cxx-framework\src\traditional\proc\p18f46j50.asm
                   TXREG1   0x000fae       data     extern E:\3.46\pic18-lt\cxx-framework\src\traditional\proc\p18f46j50.asm
                    TXREG   0x000fae       data     extern E:\3.46\pic18-lt\cxx-framework\src\traditional\proc\p18f46j50.asm
                    RCREG   0x000faf       data     extern E:\3.46\pic18-lt\cxx-framework\src\traditional\proc\p18f46j50.asm
                   RCREG1   0x000faf       data     extern E:\3.46\pic18-lt\cxx-framework\src\traditional\proc\p18f46j50.asm
                   SPBRG1   0x000fb0       data     extern E:\3.46\pic18-lt\cxx-framework\src\traditional\proc\p18f46j50.asm
                    SPBRG   0x000fb0       data     extern E:\3.46\pic18-lt\cxx-framework\src\traditional\proc\p18f46j50.asm
             CTMUICONbits   0x000fb1       data     extern E:\3.46\pic18-lt\cxx-framework\src\traditional\proc\p18f46j50.asm
                 CTMUICON   0x000fb1       data     extern E:\3.46\pic18-lt\cxx-framework\src\traditional\proc\p18f46j50.asm
             CTMUCONLbits   0x000fb2       data     extern E:\3.46\pic18-lt\cxx-framework\src\traditional\proc\p18f46j50.asm
                 CTMUCONL   0x000fb2       data     extern E:\3.46\pic18-lt\cxx-framework\src\traditional\proc\p18f46j50.asm
             CTMUCONHbits   0x000fb3       data     extern E:\3.46\pic18-lt\cxx-framework\src\traditional\proc\p18f46j50.asm
                 CTMUCONH   0x000fb3       data     extern E:\3.46\pic18-lt\cxx-framework\src\traditional\proc\p18f46j50.asm
              CCP2CONbits   0x000fb4       data     extern E:\3.46\pic18-lt\cxx-framework\src\traditional\proc\p18f46j50.asm
                  CCP2CON   0x000fb4       data     extern E:\3.46\pic18-lt\cxx-framework\src\traditional\proc\p18f46j50.asm
                 ECCP2CON   0x000fb4       data     extern E:\3.46\pic18-lt\cxx-framework\src\traditional\proc\p18f46j50.asm
             ECCP2CONbits   0x000fb4       data     extern E:\3.46\pic18-lt\cxx-framework\src\traditional\proc\p18f46j50.asm
                   CCPR2L   0x000fb5       data     extern E:\3.46\pic18-lt\cxx-framework\src\traditional\proc\p18f46j50.asm
                    CCPR2   0x000fb5       data     extern E:\3.46\pic18-lt\cxx-framework\src\traditional\proc\p18f46j50.asm
                   CCPR2H   0x000fb6       data     extern E:\3.46\pic18-lt\cxx-framework\src\traditional\proc\p18f46j50.asm
                 ECCP2DEL   0x000fb7       data     extern E:\3.46\pic18-lt\cxx-framework\src\traditional\proc\p18f46j50.asm
             ECCP2DELbits   0x000fb7       data     extern E:\3.46\pic18-lt\cxx-framework\src\traditional\proc\p18f46j50.asm
                  PWM2CON   0x000fb7       data     extern E:\3.46\pic18-lt\cxx-framework\src\traditional\proc\p18f46j50.asm
              PWM2CONbits   0x000fb7       data     extern E:\3.46\pic18-lt\cxx-framework\src\traditional\proc\p18f46j50.asm
                  ECCP2AS   0x000fb8       data     extern E:\3.46\pic18-lt\cxx-framework\src\traditional\proc\p18f46j50.asm
              ECCP2ASbits   0x000fb8       data     extern E:\3.46\pic18-lt\cxx-framework\src\traditional\proc\p18f46j50.asm
             PSTR2CONbits   0x000fb9       data     extern E:\3.46\pic18-lt\cxx-framework\src\traditional\proc\p18f46j50.asm
                 PSTR2CON   0x000fb9       data     extern E:\3.46\pic18-lt\cxx-framework\src\traditional\proc\p18f46j50.asm
             ECCP1CONbits   0x000fba       data     extern E:\3.46\pic18-lt\cxx-framework\src\traditional\proc\p18f46j50.asm
                 ECCP1CON   0x000fba       data     extern E:\3.46\pic18-lt\cxx-framework\src\traditional\proc\p18f46j50.asm
              CCP1CONbits   0x000fba       data     extern E:\3.46\pic18-lt\cxx-framework\src\traditional\proc\p18f46j50.asm
                  CCP1CON   0x000fba       data     extern E:\3.46\pic18-lt\cxx-framework\src\traditional\proc\p18f46j50.asm
                   CCPR1L   0x000fbb       data     extern E:\3.46\pic18-lt\cxx-framework\src\traditional\proc\p18f46j50.asm
                    CCPR1   0x000fbb       data     extern E:\3.46\pic18-lt\cxx-framework\src\traditional\proc\p18f46j50.asm
                   CCPR1H   0x000fbc       data     extern E:\3.46\pic18-lt\cxx-framework\src\traditional\proc\p18f46j50.asm
                 ECCP1DEL   0x000fbd       data     extern E:\3.46\pic18-lt\cxx-framework\src\traditional\proc\p18f46j50.asm
             ECCP1DELbits   0x000fbd       data     extern E:\3.46\pic18-lt\cxx-framework\src\traditional\proc\p18f46j50.asm
              PWM1CONbits   0x000fbd       data     extern E:\3.46\pic18-lt\cxx-framework\src\traditional\proc\p18f46j50.asm
                  PWM1CON   0x000fbd       data     extern E:\3.46\pic18-lt\cxx-framework\src\traditional\proc\p18f46j50.asm
              ECCP1ASbits   0x000fbe       data     extern E:\3.46\pic18-lt\cxx-framework\src\traditional\proc\p18f46j50.asm
                  ECCP1AS   0x000fbe       data     extern E:\3.46\pic18-lt\cxx-framework\src\traditional\proc\p18f46j50.asm
             PSTR1CONbits   0x000fbf       data     extern E:\3.46\pic18-lt\cxx-framework\src\traditional\proc\p18f46j50.asm
                 PSTR1CON   0x000fbf       data     extern E:\3.46\pic18-lt\cxx-framework\src\traditional\proc\p18f46j50.asm
               WDTCONbits   0x000fc0       data     extern E:\3.46\pic18-lt\cxx-framework\src\traditional\proc\p18f46j50.asm
                   WDTCON   0x000fc0       data     extern E:\3.46\pic18-lt\cxx-framework\src\traditional\proc\p18f46j50.asm
               ADCON1bits   0x000fc1       data     extern E:\3.46\pic18-lt\cxx-framework\src\traditional\proc\p18f46j50.asm
                   ADCON1   0x000fc1       data     extern E:\3.46\pic18-lt\cxx-framework\src\traditional\proc\p18f46j50.asm
               ADCON0bits   0x000fc2       data     extern E:\3.46\pic18-lt\cxx-framework\src\traditional\proc\p18f46j50.asm
                   ADCON0   0x000fc2       data     extern E:\3.46\pic18-lt\cxx-framework\src\traditional\proc\p18f46j50.asm
                    ADRES   0x000fc3       data     extern E:\3.46\pic18-lt\cxx-framework\src\traditional\proc\p18f46j50.asm
                   ADRESL   0x000fc3       data     extern E:\3.46\pic18-lt\cxx-framework\src\traditional\proc\p18f46j50.asm
                   ADRESH   0x000fc4       data     extern E:\3.46\pic18-lt\cxx-framework\src\traditional\proc\p18f46j50.asm
                  SSPCON2   0x000fc5       data     extern E:\3.46\pic18-lt\cxx-framework\src\traditional\proc\p18f46j50.asm
              SSPCON2bits   0x000fc5       data     extern E:\3.46\pic18-lt\cxx-framework\src\traditional\proc\p18f46j50.asm
             SSP1CON2bits   0x000fc5       data     extern E:\3.46\pic18-lt\cxx-framework\src\traditional\proc\p18f46j50.asm
                 SSP1CON2   0x000fc5       data     extern E:\3.46\pic18-lt\cxx-framework\src\traditional\proc\p18f46j50.asm
              SSPCON1bits   0x000fc6       data     extern E:\3.46\pic18-lt\cxx-framework\src\traditional\proc\p18f46j50.asm
                  SSPCON1   0x000fc6       data     extern E:\3.46\pic18-lt\cxx-framework\src\traditional\proc\p18f46j50.asm
             SSP1CON1bits   0x000fc6       data     extern E:\3.46\pic18-lt\cxx-framework\src\traditional\proc\p18f46j50.asm
                 SSP1CON1   0x000fc6       data     extern E:\3.46\pic18-lt\cxx-framework\src\traditional\proc\p18f46j50.asm
              SSPSTATbits   0x000fc7       data     extern E:\3.46\pic18-lt\cxx-framework\src\traditional\proc\p18f46j50.asm
                 SSP1STAT   0x000fc7       data     extern E:\3.46\pic18-lt\cxx-framework\src\traditional\proc\p18f46j50.asm
                  SSPSTAT   0x000fc7       data     extern E:\3.46\pic18-lt\cxx-framework\src\traditional\proc\p18f46j50.asm
             SSP1STATbits   0x000fc7       data     extern E:\3.46\pic18-lt\cxx-framework\src\traditional\proc\p18f46j50.asm
              SSP1ADDbits   0x000fc8       data     extern E:\3.46\pic18-lt\cxx-framework\src\traditional\proc\p18f46j50.asm
                  SSP1ADD   0x000fc8       data     extern E:\3.46\pic18-lt\cxx-framework\src\traditional\proc\p18f46j50.asm
                   SSPADD   0x000fc8       data     extern E:\3.46\pic18-lt\cxx-framework\src\traditional\proc\p18f46j50.asm
               SSPADDbits   0x000fc8       data     extern E:\3.46\pic18-lt\cxx-framework\src\traditional\proc\p18f46j50.asm
                  SSP1BUF   0x000fc9       data     extern E:\3.46\pic18-lt\cxx-framework\src\traditional\proc\p18f46j50.asm
                   SSPBUF   0x000fc9       data     extern E:\3.46\pic18-lt\cxx-framework\src\traditional\proc\p18f46j50.asm
                T2CONbits   0x000fca       data     extern E:\3.46\pic18-lt\cxx-framework\src\traditional\proc\p18f46j50.asm
                    T2CON   0x000fca       data     extern E:\3.46\pic18-lt\cxx-framework\src\traditional\proc\p18f46j50.asm
                      PR2   0x000fcb       data     extern E:\3.46\pic18-lt\cxx-framework\src\traditional\proc\p18f46j50.asm
                     TMR2   0x000fcc       data     extern E:\3.46\pic18-lt\cxx-framework\src\traditional\proc\p18f46j50.asm
                T1CONbits   0x000fcd       data     extern E:\3.46\pic18-lt\cxx-framework\src\traditional\proc\p18f46j50.asm
                    T1CON   0x000fcd       data     extern E:\3.46\pic18-lt\cxx-framework\src\traditional\proc\p18f46j50.asm
                    TMR1L   0x000fce       data     extern E:\3.46\pic18-lt\cxx-framework\src\traditional\proc\p18f46j50.asm
                    TMR1H   0x000fcf       data     extern E:\3.46\pic18-lt\cxx-framework\src\traditional\proc\p18f46j50.asm
                     RCON   0x000fd0       data     extern E:\3.46\pic18-lt\cxx-framework\src\traditional\proc\p18f46j50.asm
                 RCONbits   0x000fd0       data     extern E:\3.46\pic18-lt\cxx-framework\src\traditional\proc\p18f46j50.asm
               CM2CONbits   0x000fd1       data     extern E:\3.46\pic18-lt\cxx-framework\src\traditional\proc\p18f46j50.asm
              CM2CON1bits   0x000fd1       data     extern E:\3.46\pic18-lt\cxx-framework\src\traditional\proc\p18f46j50.asm
                  CM2CON1   0x000fd1       data     extern E:\3.46\pic18-lt\cxx-framework\src\traditional\proc\p18f46j50.asm
                   CM2CON   0x000fd1       data     extern E:\3.46\pic18-lt\cxx-framework\src\traditional\proc\p18f46j50.asm
                   CM1CON   0x000fd2       data     extern E:\3.46\pic18-lt\cxx-framework\src\traditional\proc\p18f46j50.asm
                  CM1CON1   0x000fd2       data     extern E:\3.46\pic18-lt\cxx-framework\src\traditional\proc\p18f46j50.asm
              CM1CON1bits   0x000fd2       data     extern E:\3.46\pic18-lt\cxx-framework\src\traditional\proc\p18f46j50.asm
               CM1CONbits   0x000fd2       data     extern E:\3.46\pic18-lt\cxx-framework\src\traditional\proc\p18f46j50.asm
                   OSCCON   0x000fd3       data     extern E:\3.46\pic18-lt\cxx-framework\src\traditional\proc\p18f46j50.asm
               OSCCONbits   0x000fd3       data     extern E:\3.46\pic18-lt\cxx-framework\src\traditional\proc\p18f46j50.asm
                    T0CON   0x000fd5       data     extern E:\3.46\pic18-lt\cxx-framework\src\traditional\proc\p18f46j50.asm
                T0CONbits   0x000fd5       data     extern E:\3.46\pic18-lt\cxx-framework\src\traditional\proc\p18f46j50.asm
                    TMR0L   0x000fd6       data     extern E:\3.46\pic18-lt\cxx-framework\src\traditional\proc\p18f46j50.asm
                    TMR0H   0x000fd7       data     extern E:\3.46\pic18-lt\cxx-framework\src\traditional\proc\p18f46j50.asm
                   STATUS   0x000fd8       data     extern E:\3.46\pic18-lt\cxx-framework\src\traditional\proc\p18f46j50.asm
               STATUSbits   0x000fd8       data     extern E:\3.46\pic18-lt\cxx-framework\src\traditional\proc\p18f46j50.asm
                    FSR2L   0x000fd9       data     extern E:\3.46\pic18-lt\cxx-framework\src\traditional\proc\p18f46j50.asm
                     FSR2   0x000fd9       data     extern E:\3.46\pic18-lt\cxx-framework\src\traditional\proc\p18f46j50.asm
                    FSR2H   0x000fda       data     extern E:\3.46\pic18-lt\cxx-framework\src\traditional\proc\p18f46j50.asm
                   PLUSW2   0x000fdb       data     extern E:\3.46\pic18-lt\cxx-framework\src\traditional\proc\p18f46j50.asm
                  PREINC2   0x000fdc       data     extern E:\3.46\pic18-lt\cxx-framework\src\traditional\proc\p18f46j50.asm
                 POSTDEC2   0x000fdd       data     extern E:\3.46\pic18-lt\cxx-framework\src\traditional\proc\p18f46j50.asm
                 POSTINC2   0x000fde       data     extern E:\3.46\pic18-lt\cxx-framework\src\traditional\proc\p18f46j50.asm
                    INDF2   0x000fdf       data     extern E:\3.46\pic18-lt\cxx-framework\src\traditional\proc\p18f46j50.asm
                      BSR   0x000fe0       data     extern E:\3.46\pic18-lt\cxx-framework\src\traditional\proc\p18f46j50.asm
                     FSR1   0x000fe1       data     extern E:\3.46\pic18-lt\cxx-framework\src\traditional\proc\p18f46j50.asm
                    FSR1L   0x000fe1       data     extern E:\3.46\pic18-lt\cxx-framework\src\traditional\proc\p18f46j50.asm
                    FSR1H   0x000fe2       data     extern E:\3.46\pic18-lt\cxx-framework\src\traditional\proc\p18f46j50.asm
                   PLUSW1   0x000fe3       data     extern E:\3.46\pic18-lt\cxx-framework\src\traditional\proc\p18f46j50.asm
                  PREINC1   0x000fe4       data     extern E:\3.46\pic18-lt\cxx-framework\src\traditional\proc\p18f46j50.asm
                 POSTDEC1   0x000fe5       data     extern E:\3.46\pic18-lt\cxx-framework\src\traditional\proc\p18f46j50.asm
                 POSTINC1   0x000fe6       data     extern E:\3.46\pic18-lt\cxx-framework\src\traditional\proc\p18f46j50.asm
                    INDF1   0x000fe7       data     extern E:\3.46\pic18-lt\cxx-framework\src\traditional\proc\p18f46j50.asm
                     WREG   0x000fe8       data     extern E:\3.46\pic18-lt\cxx-framework\src\traditional\proc\p18f46j50.asm
                     FSR0   0x000fe9       data     extern E:\3.46\pic18-lt\cxx-framework\src\traditional\proc\p18f46j50.asm
                    FSR0L   0x000fe9       data     extern E:\3.46\pic18-lt\cxx-framework\src\traditional\proc\p18f46j50.asm
                    FSR0H   0x000fea       data     extern E:\3.46\pic18-lt\cxx-framework\src\traditional\proc\p18f46j50.asm
                   PLUSW0   0x000feb       data     extern E:\3.46\pic18-lt\cxx-framework\src\traditional\proc\p18f46j50.asm
                  PREINC0   0x000fec       data     extern E:\3.46\pic18-lt\cxx-framework\src\traditional\proc\p18f46j50.asm
                 POSTDEC0   0x000fed       data     extern E:\3.46\pic18-lt\cxx-framework\src\traditional\proc\p18f46j50.asm
                 POSTINC0   0x000fee       data     extern E:\3.46\pic18-lt\cxx-framework\src\traditional\proc\p18f46j50.asm
                    INDF0   0x000fef       data     extern E:\3.46\pic18-lt\cxx-framework\src\traditional\proc\p18f46j50.asm
              INTCON3bits   0x000ff0       data     extern E:\3.46\pic18-lt\cxx-framework\src\traditional\proc\p18f46j50.asm
                  INTCON3   0x000ff0       data     extern E:\3.46\pic18-lt\cxx-framework\src\traditional\proc\p18f46j50.asm
              INTCON2bits   0x000ff1       data     extern E:\3.46\pic18-lt\cxx-framework\src\traditional\proc\p18f46j50.asm
                  INTCON2   0x000ff1       data     extern E:\3.46\pic18-lt\cxx-framework\src\traditional\proc\p18f46j50.asm
               INTCONbits   0x000ff2       data     extern E:\3.46\pic18-lt\cxx-framework\src\traditional\proc\p18f46j50.asm
                   INTCON   0x000ff2       data     extern E:\3.46\pic18-lt\cxx-framework\src\traditional\proc\p18f46j50.asm
                    PRODL   0x000ff3       data     extern E:\3.46\pic18-lt\cxx-framework\src\traditional\proc\p18f46j50.asm
                     PROD   0x000ff3       data     extern E:\3.46\pic18-lt\cxx-framework\src\traditional\proc\p18f46j50.asm
                    PRODH   0x000ff4       data     extern E:\3.46\pic18-lt\cxx-framework\src\traditional\proc\p18f46j50.asm
                   TABLAT   0x000ff5       data     extern E:\3.46\pic18-lt\cxx-framework\src\traditional\proc\p18f46j50.asm
                  TBLPTRL   0x000ff6       data     extern E:\3.46\pic18-lt\cxx-framework\src\traditional\proc\p18f46j50.asm
                   TBLPTR   0x000ff6       data     extern E:\3.46\pic18-lt\cxx-framework\src\traditional\proc\p18f46j50.asm
                  TBLPTRH   0x000ff7       data     extern E:\3.46\pic18-lt\cxx-framework\src\traditional\proc\p18f46j50.asm
                  TBLPTRU   0x000ff8       data     extern E:\3.46\pic18-lt\cxx-framework\src\traditional\proc\p18f46j50.asm
                      PCL   0x000ff9       data     extern E:\3.46\pic18-lt\cxx-framework\src\traditional\proc\p18f46j50.asm
                       PC   0x000ff9       data     extern E:\3.46\pic18-lt\cxx-framework\src\traditional\proc\p18f46j50.asm
                   PCLATH   0x000ffa       data     extern E:\3.46\pic18-lt\cxx-framework\src\traditional\proc\p18f46j50.asm
                   PCLATU   0x000ffb       data     extern E:\3.46\pic18-lt\cxx-framework\src\traditional\proc\p18f46j50.asm
                   STKPTR   0x000ffc       data     extern E:\3.46\pic18-lt\cxx-framework\src\traditional\proc\p18f46j50.asm
               STKPTRbits   0x000ffc       data     extern E:\3.46\pic18-lt\cxx-framework\src\traditional\proc\p18f46j50.asm
                     TOSL   0x000ffd       data     extern E:\3.46\pic18-lt\cxx-framework\src\traditional\proc\p18f46j50.asm
                      TOS   0x000ffd       data     extern E:\3.46\pic18-lt\cxx-framework\src\traditional\proc\p18f46j50.asm
                     TOSH   0x000ffe       data     extern E:\3.46\pic18-lt\cxx-framework\src\traditional\proc\p18f46j50.asm
                     TOSU   0x000fff       data     extern E:\3.46\pic18-lt\cxx-framework\src\traditional\proc\p18f46j50.asm


