MPLINK 4.48, Linker
Linker Map File - Created Wed May 13 20:45:30 2020

                                 Section Info
                  Section       Type    Address   Location Size(Bytes)
                ---------  ---------  ---------  ---------  ---------
    REMAPPED_RESET_VECTOR       code   0x001000    program   0x000006
REMAPPED_HIGH_INTERRUPT_VECTOR       code   0x001008    program   0x000006
REMAPPED_LOW_INTERRUPT_VECTOR       code   0x001018    program   0x000006
                   .cinit    romdata   0x00102a    program   0x000032
              .code_ebb.o       code   0x00105c    program   0x003192
              .code_UBW.o       code   0x0041ee    program   0x00278e
       .code_usb_device.o       code   0x00697c    program   0x000da4
         .code_vfprintf.o       code   0x007720    program   0x000c22
             .stringtable    romdata   0x008342    program   0x000605
.romdata_WriteBytesFlash.o    romdata   0x008947    program   0x000000
         .romdata_ldexp.o    romdata   0x008947    program   0x000000
.romdata_usb_function_cdc.o    romdata   0x008947    program   0x000000
        .idata___init.o_i    romdata   0x008947    program   0x000000
         .romdata_errno.o    romdata   0x008947    program   0x000000
    .idata_usb_device.o_i    romdata   0x008947    program   0x000000
      .idata_fxd3232u.o_i    romdata   0x008947    program   0x000000
       .idata_pow2x16.o_i    romdata   0x008947    program   0x000000
      .romdata_PackMath.o    romdata   0x008947    program   0x000000
      .idata_RCServo2.o_i    romdata   0x008947    program   0x000000
          .romdata_putc.o    romdata   0x008947    program   0x000000
                     PROG       code   0x008948    program   0x0005ea
           .code_stdout.o       code   0x008948    program   0x000000
             .code_sqrt.o       code   0x008f32    program   0x000442
 .code_usb_function_cdc.o       code   0x009374    program   0x0003fc
         .code_RCServo2.o       code   0x009770    program   0x0003b0
  .code_WriteBytesFlash.o       code   0x009b20    program   0x0001de
             .code_main.o       code   0x009cfe    program   0x000148
            .code_ldexp.o       code   0x009e46    program   0x000138
         .code_UnpkMath.o       code   0x009f7e    program   0x00011c
         .code_PackMath.o       code   0x00a09a    program   0x00011a
       .code_EraseFlash.o       code   0x00a1b4    program   0x0000f8
               _cinit_scn       code   0x00a2ac    program   0x00009e
                   STRING       code   0x00a34a    program   0x00009a
           .code_printf.o       code   0x00a3e4    program   0x000098
        .code_ReadFlash.o       code   0x00a47c    program   0x000092
             .code_putc.o       code   0x00a50e    program   0x000084
          .code_fxm3232.o       code   0x00a592    program   0x000070
.romdata_usb_descriptors.o    romdata   0x00a602    program   0x000057
          .idata_sqrt.o_i    romdata   0x00a659    program   0x000000
        .romdata_printf.o    romdata   0x00a659    program   0x000000
      .idata_fxd1616u.o_i    romdata   0x00a659    program   0x000000
      .idata_PackMath.o_i    romdata   0x00a659    program   0x000000
    .romdata_usb_device.o    romdata   0x00a659    program   0x000000
          .idata_main.o_i    romdata   0x00a659    program   0x000000
.idata_WriteBytesFlash.o_i    romdata   0x00a659    program   0x000000
      .romdata_UnpkMath.o    romdata   0x00a659    program   0x000000
           .romdata_ebb.o    romdata   0x00a659    program   0x000000
       .romdata_fxm3232.o    romdata   0x00a659    program   0x000000
    .romdata_EraseFlash.o    romdata   0x00a659    program   0x000000
            .code_errno.o       code   0x00a65a    program   0x000000
                    CTYPE       code   0x00a65a    program   0x00004c
         .code_fxd3232u.o       code   0x00a6a6    program   0x000048
           .romdata_UBW.o    romdata   0x00a6ee    program   0x000035
      .idata_UnpkMath.o_i    romdata   0x00a723    program   0x000000
         .idata_errno.o_i    romdata   0x00a723    program   0x000000
        .romdata_stdout.o    romdata   0x00a723    program   0x000000
         .idata_ldexp.o_i    romdata   0x00a723    program   0x000000
      .idata_vfprintf.o_i    romdata   0x00a723    program   0x000000
       .romdata_pow2x16.o    romdata   0x00a723    program   0x000000
          .idata_putc.o_i    romdata   0x00a723    program   0x000000
         .romdata_c018i.o    romdata   0x00a723    program   0x000000
    .idata_EraseFlash.o_i    romdata   0x00a723    program   0x000000
     .romdata_ReadFlash.o    romdata   0x00a723    program   0x000000
      .romdata_fxd3232u.o    romdata   0x00a723    program   0x000000
         .code_fxd1616u.o       code   0x00a724    program   0x00002c
            .code_c018i.o       code   0x00a724    program   0x000000
                    .code       code   0x00a750    program   0x000020
             _startup_scn       code   0x00a770    program   0x00001c
                    STDIO       code   0x00a78c    program   0x00001c
          .code_pow2x16.o       code   0x00a7a8    program   0x000016
      .romdata_vfprintf.o    romdata   0x00a7be    program   0x000011
.idata_usb_function_cdc.o_i    romdata   0x00a7cf    program   0x000000
         .idata_c018i.o_i    romdata   0x00a7cf    program   0x000000
          .romdata_main.o    romdata   0x00a7cf    program   0x000000
      .romdata_fxd1616u.o    romdata   0x00a7cf    program   0x000000
      .romdata_RCServo2.o    romdata   0x00a7cf    program   0x000000
          .romdata_sqrt.o    romdata   0x00a7cf    program   0x000000
        .idata_printf.o_i    romdata   0x00a7cf    program   0x000000
        .romdata___init.o    romdata   0x00a7cf    program   0x000000
     .idata_ReadFlash.o_i    romdata   0x00a7cf    program   0x000000
       .idata_fxm3232.o_i    romdata   0x00a7cf    program   0x000000
           .code___init.o       code   0x00a7d0    program   0x000002
  .code_usb_descriptors.o       code   0x00a7d0    program   0x000000
.idata_usb_descriptors.o_i    romdata   0x00a7d2    program   0x00007e
        .idata_stdout.o_i    romdata   0x00a850    program   0x000002
           .idata_ebb.o_i    romdata   0x00a852    program   0x00000d
           .idata_UBW.o_i    romdata   0x00a85f    program   0x0000e9
                 .tmpdata      udata   0x000000       data   0x000034
                MATH_DATA      udata   0x000034       data   0x000014
             high_ISR_tmp      udata   0x000048       data   0x000008
              low_ISR_tmp      udata   0x000050       data   0x000004
                  ISR_buf      udata   0x000100       data   0x000071
               com_tx_buf      udata   0x000200       data   0x000080
 .idata_usb_descriptors.o      idata   0x000280       data   0x00007e
            .udata_main.o      udata   0x0002fe       data   0x000002
               com_rx_buf      udata   0x000300       data   0x000100
                  USB_BDT      udata   0x000400       data   0x000078
      .udata_usb_device.o      udata   0x000478       data   0x000034
             .idata_UBW.o      idata   0x000500       data   0x0000e9
                     FIFO      udata   0x000800       data   0x0000fa
          .idata_stdout.o      idata   0x0008fa       data   0x000002
         .udata_fxm3232.o      udata   0x0008fc       data   0x000000
         .idata_fxm3232.o      idata   0x0008fc       data   0x000000
       .udata_ReadFlash.o      udata   0x0008fc       data   0x000000
        .idata_fxd3232u.o      idata   0x0008fc       data   0x000000
        .udata_fxd3232u.o      udata   0x0008fc       data   0x000000
      .idata_EraseFlash.o      idata   0x0008fc       data   0x000000
      .udata_EraseFlash.o      udata   0x0008fc       data   0x000000
        .udata_UnpkMath.o      udata   0x0008fc       data   0x000000
        .idata_UnpkMath.o      idata   0x0008fc       data   0x000000
       .idata_ReadFlash.o      idata   0x0008fc       data   0x000000
 .udata_WriteBytesFlash.o      udata   0x0008fc       data   0x000000
 .idata_WriteBytesFlash.o      idata   0x0008fc       data   0x000000
          .udata___init.o      udata   0x0008fc       data   0x000000
          .idata___init.o      idata   0x0008fc       data   0x000000
         .udata_pow2x16.o      udata   0x0008fc       data   0x000000
         .idata_pow2x16.o      idata   0x0008fc       data   0x000000
          .udata_printf.o      udata   0x0008fc       data   0x000000
          .idata_printf.o      idata   0x0008fc       data   0x000000
            .udata_sqrt.o      udata   0x0008fc       data   0x000000
            .idata_sqrt.o      idata   0x0008fc       data   0x000000
        .udata_fxd1616u.o      udata   0x0008fc       data   0x000000
        .idata_fxd1616u.o      idata   0x0008fc       data   0x000000
        .udata_PackMath.o      udata   0x0008fc       data   0x000000
        .idata_PackMath.o      idata   0x0008fc       data   0x000000
           .idata_errno.o      idata   0x0008fc       data   0x000000
           .udata_ldexp.o      udata   0x0008fc       data   0x000000
           .idata_ldexp.o      idata   0x0008fc       data   0x000000
          .udata_stdout.o      udata   0x0008fc       data   0x000000
        .udata_vfprintf.o      udata   0x0008fc       data   0x000000
        .idata_vfprintf.o      idata   0x0008fc       data   0x000000
            .udata_putc.o      udata   0x0008fc       data   0x000000
            .idata_putc.o      idata   0x0008fc       data   0x000000
 .udata_usb_descriptors.o      udata   0x0008fc       data   0x000000
.idata_usb_function_cdc.o      idata   0x0008fc       data   0x000000
        .idata_RCServo2.o      idata   0x0008fc       data   0x000000
           .idata_c018i.o      idata   0x0008fc       data   0x000000
            .idata_main.o      idata   0x0008fc       data   0x000000
      .idata_usb_device.o      idata   0x0008fc       data   0x000000
                    FIFO2      udata   0x000900       data   0x0000fa
                    FIFO3      udata   0x000a00       data   0x000096
             .udata_UBW.o      udata   0x000a96       data   0x00003d
             .udata_ebb.o      udata   0x000ad3       data   0x000021
           .udata_c018i.o      udata   0x000af4       data   0x00000a
           .udata_errno.o      udata   0x000afe       data   0x000002
                    FIFO4      udata   0x000b00       data   0x0000fa
                    FIFO5      udata   0x000c00       data   0x00004b
.udata_usb_function_cdc.o      udata   0x000c4b       data   0x0000a8
             .idata_ebb.o      idata   0x000cf3       data   0x00000d
                   .stack      udata   0x000d00       data   0x000100
        .udata_RCServo2.o      udata   0x000e00       data   0x0000b7
              SFR_BANKED0      udata   0x000ec6       data   0x00000e
              SFR_BANKED1      udata   0x000ed7       data   0x000008
              SFR_BANKED2      udata   0x000ee7       data   0x000004
              SFR_BANKED3      udata   0x000eec       data   0x000003
              SFR_BANKED4      udata   0x000ef2       data   0x000002
              SFR_BANKED5      udata   0x000ef6       data   0x000002
              SFR_BANKED6      udata   0x000efb       data   0x000005
              SFR_BANKED7      udata   0x000f26       data   0x000014
              SFR_BANKED8      udata   0x000f3c       data   0x000007
              SFR_BANKED9      udata   0x000f48       data   0x000008
             SFR_BANKED10      udata   0x000f52       data   0x00000e
            SFR_UNBANKED0      udata   0x000f60       data   0x0000a0



                              Program Memory Usage 
                               Start         End      
                           ---------   ---------      
                            0x001000    0x001005      
                            0x001008    0x00100d      
                            0x001018    0x00101d      
                            0x00102a    0x008946      
                            0x008948    0x00a658      
                            0x00a65a    0x00a722      
                            0x00a724    0x00a7ce      
                            0x00a7d0    0x00a947      
            39212 out of 63498 program addresses used, program memory utilization is 61%



                              Symbols - Sorted by Name
                     Name    Address   Location    Storage File                     
                ---------  ---------  ---------  --------- ---------                
          AnalogConfigure   0x0052ec    program     extern C:\Projects\EggBot2-GH\EBB_firmware\app.X\source\UBW.c
           BlinkUSBStatus   0x0062fa    program     extern C:\Projects\EggBot2-GH\EBB_firmware\app.X\source\UBW.c
                CDCInitEP   0x009410    program     extern C:\Projects\EggBot2-GH\EBB_firmware\Microchip\USB\CDC Device Driver\usb_function_cdc.c
             CDCTxService   0x0095b2    program     extern C:\Projects\EggBot2-GH\EBB_firmware\Microchip\USB\CDC Device Driver\usb_function_cdc.c
                   D1616S   0x008df2    program     static E:\c18v3.46\pic18-lt\cxx-framework\src\traditional\math\fxd1616s.asm
                D1616SNEG   0x008e00    program     static E:\c18v3.46\pic18-lt\cxx-framework\src\traditional\math\fxd1616s.asm
                 D1616SOK   0x008dfc    program     static E:\c18v3.46\pic18-lt\cxx-framework\src\traditional\math\fxd1616s.asm
                  D1616SX   0x008e12    program     static E:\c18v3.46\pic18-lt\cxx-framework\src\traditional\math\fxd1616s.asm
                  DA1616S   0x008de2    program     static E:\c18v3.46\pic18-lt\cxx-framework\src\traditional\math\fxd1616s.asm
                 EBB_Init   0x0018c8    program     extern C:\Projects\EggBot2-GH\EBB_firmware\app.X\source\ebb.c
               EraseFlash   0x00a1b4    program     extern E:\c18v3.46\pic18-lt\cxx-framework\src\pmc_common\Flash\EraseFlash.c
                  FIFOInc   0x001bd0    program     extern C:\Projects\EggBot2-GH\EBB_firmware\app.X\source\ebb.c
                 FLO1632S   0x00894c    program     extern E:\c18v3.46\pic18-lt\cxx-framework\src\traditional\math\cast16FP.asm
                 FLO1632U   0x008948    program     extern E:\c18v3.46\pic18-lt\cxx-framework\src\traditional\math\cast16FP.asm
                 FLO3232S   0x008976    program     extern E:\c18v3.46\pic18-lt\cxx-framework\src\traditional\math\cast32FP.asm
                 FLO3232U   0x008972    program     extern E:\c18v3.46\pic18-lt\cxx-framework\src\traditional\math\cast32FP.asm
                    FPA32   0x008b2a    program     extern E:\c18v3.46\pic18-lt\cxx-framework\src\traditional\math\addFP.asm
                    FPD32   0x0089a8    program     extern E:\c18v3.46\pic18-lt\cxx-framework\src\traditional\math\divFP.asm
                    FPM32   0x008a4e    program     extern E:\c18v3.46\pic18-lt\cxx-framework\src\traditional\math\mulFP.asm
                    FPS32   0x008b28    program     extern E:\c18v3.46\pic18-lt\cxx-framework\src\traditional\math\addFP.asm
                 FXD1616S   0x008dd0    program     extern E:\c18v3.46\pic18-lt\cxx-framework\src\traditional\math\fxd1616s.asm
                 FXD1616U   0x00a724    program     extern E:\c18v3.46\pic18-lt\cxx-framework\src\traditional\math\fxd1616u.c
                 FXD3232U   0x00a6a6    program     extern E:\c18v3.46\pic18-lt\cxx-framework\src\traditional\math\fxd3232u.c
                 FXM1616S   0x008ed8    program     extern E:\c18v3.46\pic18-lt\cxx-framework\src\traditional\math\fxm1616s.asm
                  FXM3232   0x00a592    program     extern E:\c18v3.46\pic18-lt\cxx-framework\src\traditional\math\fxm3232.c
                  INT3232   0x008c56    program     extern E:\c18v3.46\pic18-lt\cxx-framework\src\traditional\math\castFP32.asm
         InitializeSystem   0x009d0a    program     static C:\Projects\EggBot2-GH\EBB_firmware\app.X\source\main.c
                LongDelay   0x005ac6    program     extern C:\Projects\EggBot2-GH\EBB_firmware\app.X\source\UBW.c
                ProcessIO   0x004836    program     extern C:\Projects\EggBot2-GH\EBB_firmware\app.X\source\UBW.c
            RCServo2_Init   0x009770    program     extern C:\Projects\EggBot2-GH\EBB_firmware\app.X\source\RCServo2.c
            RCServo2_Move   0x00990a    program     extern C:\Projects\EggBot2-GH\EBB_firmware\app.X\source\RCServo2.c
      RCServo2_S2_command   0x009860    program     extern C:\Projects\EggBot2-GH\EBB_firmware\app.X\source\RCServo2.c
RCServo2_get_channel_from_RPn   0x009822    program     extern C:\Projects\EggBot2-GH\EBB_firmware\app.X\source\RCServo2.c
                ReadFlash   0x00a47c    program     extern E:\c18v3.46\pic18-lt\cxx-framework\src\pmc_common\Flash\ReadFlash.c
        Remapped_High_ISR   0x001008    program     extern C:\Projects\EggBot2-GH\EBB_firmware\app.X\source\main.c
         Remapped_Low_ISR   0x001018    program     extern C:\Projects\EggBot2-GH\EBB_firmware\app.X\source\main.c
         SetPinLATFromRPn   0x0063d6    program     extern C:\Projects\EggBot2-GH\EBB_firmware\app.X\source\UBW.c
        SetPinTRISFromRPn   0x006432    program     extern C:\Projects\EggBot2-GH\EBB_firmware\app.X\source\UBW.c
                  TALTB32   0x008e1c    program     extern E:\c18v3.46\pic18-lt\cxx-framework\src\traditional\math\ltFP.asm
               TSIGN1616A   0x008f24    program     static E:\c18v3.46\pic18-lt\cxx-framework\src\traditional\math\fxm1616s.asm
       USBCBCheckOtherReq   0x009d52    program     extern C:\Projects\EggBot2-GH\EBB_firmware\app.X\source\main.c
        USBCBErrorHandler   0x009d50    program     extern C:\Projects\EggBot2-GH\EBB_firmware\app.X\source\main.c
              USBCBInitEP   0x009d58    program     extern C:\Projects\EggBot2-GH\EBB_firmware\app.X\source\main.c
          USBCBSendResume   0x009d5c    program     extern C:\Projects\EggBot2-GH\EBB_firmware\app.X\source\main.c
    USBCBStdSetDscHandler   0x009d56    program     extern C:\Projects\EggBot2-GH\EBB_firmware\app.X\source\main.c
             USBCBSuspend   0x009d4a    program     extern C:\Projects\EggBot2-GH\EBB_firmware\app.X\source\main.c
     USBCBWakeFromSuspend   0x009d4c    program     extern C:\Projects\EggBot2-GH\EBB_firmware\app.X\source\main.c
        USBCB_SOF_Handler   0x009d4e    program     extern C:\Projects\EggBot2-GH\EBB_firmware\app.X\source\main.c
       USBCDCEventHandler   0x00945a    program     extern C:\Projects\EggBot2-GH\EBB_firmware\Microchip\USB\CDC Device Driver\usb_function_cdc.c
              USBCancelIO   0x006cb4    program     extern C:\Projects\EggBot2-GH\EBB_firmware\Microchip\USB\usb_device.c
       USBCheckCDCRequest   0x009374    program     extern C:\Projects\EggBot2-GH\EBB_firmware\Microchip\USB\CDC Device Driver\usb_function_cdc.c
       USBCheckStdRequest   0x0072e4    program     static C:\Projects\EggBot2-GH\EBB_firmware\Microchip\USB\usb_device.c
     USBConfigureEndpoint   0x006d84    program     static C:\Projects\EggBot2-GH\EBB_firmware\Microchip\USB\usb_device.c
  USBCtrlEPAllowDataStage   0x006d44    program     extern C:\Projects\EggBot2-GH\EBB_firmware\Microchip\USB\usb_device.c
USBCtrlEPAllowStatusStage   0x006cee    program     extern C:\Projects\EggBot2-GH\EBB_firmware\Microchip\USB\usb_device.c
         USBCtrlEPService   0x007182    program     static C:\Projects\EggBot2-GH\EBB_firmware\Microchip\USB\usb_device.c
 USBCtrlEPServiceComplete   0x006dd6    program     static C:\Projects\EggBot2-GH\EBB_firmware\Microchip\USB\usb_device.c
      USBCtrlTrfInHandler   0x00726c    program     static C:\Projects\EggBot2-GH\EBB_firmware\Microchip\USB\usb_device.c
     USBCtrlTrfOutHandler   0x00724e    program     static C:\Projects\EggBot2-GH\EBB_firmware\Microchip\USB\usb_device.c
      USBCtrlTrfRxService   0x006eac    program     static C:\Projects\EggBot2-GH\EBB_firmware\Microchip\USB\usb_device.c
   USBCtrlTrfSetupHandler   0x00720e    program     static C:\Projects\EggBot2-GH\EBB_firmware\Microchip\USB\usb_device.c
      USBCtrlTrfTxService   0x006e30    program     static C:\Projects\EggBot2-GH\EBB_firmware\Microchip\USB\usb_device.c
            USBDeviceInit   0x00697c    program     extern C:\Projects\EggBot2-GH\EBB_firmware\Microchip\USB\usb_device.c
           USBDeviceTasks   0x006a50    program     extern C:\Projects\EggBot2-GH\EBB_firmware\Microchip\USB\usb_device.c
        USBEnableEndpoint   0x006bcc    program     extern C:\Projects\EggBot2-GH\EBB_firmware\Microchip\USB\usb_device.c
         USBStallEndpoint   0x006c8c    program     extern C:\Projects\EggBot2-GH\EBB_firmware\Microchip\USB\usb_device.c
          USBStallHandler   0x00711c    program     static C:\Projects\EggBot2-GH\EBB_firmware\Microchip\USB\usb_device.c
  USBStdFeatureReqHandler   0x007396    program     static C:\Projects\EggBot2-GH\EBB_firmware\Microchip\USB\usb_device.c
      USBStdGetDscHandler   0x00700a    program     static C:\Projects\EggBot2-GH\EBB_firmware\Microchip\USB\usb_device.c
   USBStdGetStatusHandler   0x0070b0    program     static C:\Projects\EggBot2-GH\EBB_firmware\Microchip\USB\usb_device.c
      USBStdSetCfgHandler   0x006f6c    program     static C:\Projects\EggBot2-GH\EBB_firmware\Microchip\USB\usb_device.c
               USBSuspend   0x00713e    program     static C:\Projects\EggBot2-GH\EBB_firmware\Microchip\USB\usb_device.c
     USBTransferOnePacket   0x006c0a    program     extern C:\Projects\EggBot2-GH\EBB_firmware\Microchip\USB\usb_device.c
       USBWakeFromSuspend   0x00715e    program     static C:\Projects\EggBot2-GH\EBB_firmware\Microchip\USB\usb_device.c
               USB_CD_Ptr   0x00a657    program     extern C:\Projects\EggBot2-GH\EBB_firmware\app.X\source\usb_descriptors.c
USER_USB_CALLBACK_EVENT_HANDLER   0x009da0    program     extern C:\Projects\EggBot2-GH\EBB_firmware\app.X\source\main.c
                 UserInit   0x0046a2    program     extern C:\Projects\EggBot2-GH\EBB_firmware\app.X\source\UBW.c
         WaitForEmptyFIFO   0x001bc8    program     extern C:\Projects\EggBot2-GH\EBB_firmware\app.X\source\ebb.c
        WaitForRoomInFIFO   0x001bbe    program     extern C:\Projects\EggBot2-GH\EBB_firmware\app.X\source\ebb.c
          WriteBytesFlash   0x009b20    program     extern E:\c18v3.46\pic18-lt\cxx-framework\src\pmc_common\Flash\WriteBytesFlash.c
              _2jContinue   0x00a36a    program     static E:\c18v3.46\pic18-lt\cxx-framework\src\traditional\stdclib\memset.asm
                   _2jEnd   0x00a3ce    program     static E:\c18v3.46\pic18-lt\cxx-framework\src\traditional\stdclib\slenpgm.asm
                   _3jEnd   0x00a374    program     static E:\c18v3.46\pic18-lt\cxx-framework\src\traditional\stdclib\memset.asm
                _PackMath   0x00a09a    program     extern E:\c18v3.46\pic18-lt\cxx-framework\src\traditional\stdclib\PackMath.c
                _UnpkMath   0x009f7e    program     extern E:\c18v3.46\pic18-lt\cxx-framework\src\traditional\stdclib\UnpkMath.c
              __FpCompare   0x008e2e    program     extern E:\c18v3.46\pic18-lt\cxx-framework\src\traditional\math\compFP.asm
                 __FpExit   0x008cd0    program     extern E:\c18v3.46\pic18-lt\cxx-framework\src\traditional\math\packFP.asm
                 __FpPack   0x008cfc    program     extern E:\c18v3.46\pic18-lt\cxx-framework\src\traditional\math\packFP.asm
            __FpReturnNaN   0x008cc4    program     extern E:\c18v3.46\pic18-lt\cxx-framework\src\traditional\math\packFP.asm
         __FpReturnNegInf   0x008cd6    program     extern E:\c18v3.46\pic18-lt\cxx-framework\src\traditional\math\packFP.asm
        __FpReturnNegZero   0x008cee    program     extern E:\c18v3.46\pic18-lt\cxx-framework\src\traditional\math\packFP.asm
         __FpReturnPosInf   0x008cdc    program     extern E:\c18v3.46\pic18-lt\cxx-framework\src\traditional\math\packFP.asm
        __FpReturnPosZero   0x008cf6    program     extern E:\c18v3.46\pic18-lt\cxx-framework\src\traditional\math\packFP.asm
        __FpReturnSignInf   0x008cd2    program     extern E:\c18v3.46\pic18-lt\cxx-framework\src\traditional\math\packFP.asm
       __FpReturnSignZero   0x008cea    program     extern E:\c18v3.46\pic18-lt\cxx-framework\src\traditional\math\packFP.asm
              __FpReturnW   0x008d54    program     extern E:\c18v3.46\pic18-lt\cxx-framework\src\traditional\math\packFP.asm
              __FpUnPackA   0x008d74    program     extern E:\c18v3.46\pic18-lt\cxx-framework\src\traditional\math\UnpackFP.asm
              __FpUnPackB   0x008da4    program     extern E:\c18v3.46\pic18-lt\cxx-framework\src\traditional\math\UnpackFP.asm
         ___else_lbl00002   0x001132    program     static                          
         ___else_lbl00007   0x00121a    program     static                          
         ___else_lbl00009   0x001234    program     static                          
         ___else_lbl00011   0x001256    program     static                          
         ___else_lbl00013   0x001270    program     static                          
         ___else_lbl00016   0x001238    program     static                          
         ___else_lbl00018   0x00136c    program     static                          
         ___else_lbl00022   0x0014c2    program     static                          
         ___else_lbl00031   0x001538    program     static                          
         ___else_lbl00034   0x00158c    program     static                          
         ___else_lbl00039   0x001652    program     static                          
         ___else_lbl00044   0x00178c    program     static                          
         ___else_lbl00047   0x001824    program     static                          
         ___else_lbl00050   0x0017a0    program     static                          
         ___else_lbl00052   0x001598    program     static                          
          ___for_lbl00062   0x001abc    program     static                          
          ___for_lbl00063   0x001ac0    program     static                          
          ___for_lbl00064   0x0018dc    program     static                          
          ___for_lbl00384   0x005af0    program     static                          
          ___for_lbl00385   0x005af4    program     static                          
          ___for_lbl00388   0x005ada    program     static                          
           ___if_lbl00001   0x001152    program     static                          
           ___if_lbl00003   0x001152    program     static                          
           ___if_lbl00004   0x001186    program     static                          
           ___if_lbl00005   0x009c68    program     static                          
           ___if_lbl00006   0x00121c    program     static                          
           ___if_lbl00006   0x009c8a    program     static                          
           ___if_lbl00007   0x009ca2    program     static                          
           ___if_lbl00008   0x001236    program     static                          
           ___if_lbl00010   0x001258    program     static                          
           ___if_lbl00012   0x001272    program     static                          
           ___if_lbl00014   0x001272    program     static                          
           ___if_lbl00015   0x001272    program     static                          
           ___if_lbl00017   0x001378    program     static                          
           ___if_lbl00019   0x001378    program     static                          
           ___if_lbl00020   0x0013c8    program     static                          
           ___if_lbl00021   0x0014ce    program     static                          
           ___if_lbl00023   0x0014ce    program     static                          
           ___if_lbl00024   0x00151e    program     static                          
           ___if_lbl00025   0x001530    program     static                          
           ___if_lbl00026   0x001536    program     static                          
           ___if_lbl00027   0x001544    program     static                          
           ___if_lbl00028   0x00154a    program     static                          
           ___if_lbl00029   0x00154a    program     static                          
           ___if_lbl00030   0x00154a    program     static                          
           ___if_lbl00032   0x001596    program     static                          
           ___if_lbl00033   0x001596    program     static                          
           ___if_lbl00035   0x001596    program     static                          
           ___if_lbl00036   0x001596    program     static                          
           ___if_lbl00037   0x001736    program     static                          
           ___if_lbl00038   0x001736    program     static                          
           ___if_lbl00040   0x001736    program     static                          
           ___if_lbl00041   0x00178a    program     static                          
           ___if_lbl00042   0x00179e    program     static                          
           ___if_lbl00043   0x00179e    program     static                          
           ___if_lbl00045   0x00179e    program     static                          
           ___if_lbl00046   0x00182c    program     static                          
           ___if_lbl00048   0x001832    program     static                          
           ___if_lbl00049   0x001832    program     static                          
           ___if_lbl00051   0x001832    program     static                          
           ___if_lbl00054   0x001888    program     static                          
           ___if_lbl00055   0x00188c    program     static                          
           ___if_lbl00056   0x00188c    program     static                          
           ___if_lbl00059   0x0018a4    program     static                          
           ___if_lbl00060   0x0018a4    program     static                          
       ___return_lbl00000   0x00a74e    program     static                          
       ___return_lbl00000   0x00a7bc    program     static                          
       ___return_lbl00000   0x009ce6    program     static                          
       ___return_lbl00000   0x00a4f6    program     static                          
       ___return_lbl00000   0x00a78a    program     static                          
       ___return_lbl00000   0x0018a8    program     static                          
       ___return_lbl00000   0x001004    program     static                          
       ___return_lbl00000   0x00a600    program     static                          
       ___return_lbl00000   0x00a6ec    program     static                          
       ___return_lbl00001   0x00a348    program     static                          
       ___return_lbl00001   0x00100c    program     static                          
       ___return_lbl00002   0x00101c    program     static                          
       ___return_lbl00061   0x001bb0    program     static                          
       ___return_lbl00383   0x005af4    program     static                          
       ___return_lbl00389   0x005b10    program     static                          
       ___return_lbl00390   0x005b1e    program     static                          
        ___while_lbl00001   0x009c0a    program     static                          
        ___while_lbl00001   0x00a4c4    program     static                          
        ___while_lbl00002   0x009ce6    program     static                          
        ___while_lbl00002   0x00a4f6    program     static                          
        ___while_lbl00003   0x009c2e    program     static                          
        ___while_lbl00004   0x009c6a    program     static                          
        ___while_lbl00386   0x005ae2    program     static                          
        ___while_lbl00387   0x005af0    program     static                          
                   __init   0x00a7d0    program     extern E:\c18v3.46\pic18-lt\cxx-framework\src\traditional\stdclib\__init.c
                   __pa_0   0x0035ba    program     static C:\Projects\EggBot2-GH\EBB_firmware\app.X\source\ebb.c
                   __pa_0   0x009e28    program     static C:\Projects\EggBot2-GH\EBB_firmware\app.X\source\main.c
                   __pa_0   0x009694    program     static C:\Projects\EggBot2-GH\EBB_firmware\Microchip\USB\CDC Device Driver\usb_function_cdc.c
                   __pa_0   0x00a08c    program     static E:\c18v3.46\pic18-lt\cxx-framework\src\traditional\stdclib\UnpkMath.c
                   __pa_0   0x009f74    program     static E:\c18v3.46\pic18-lt\cxx-framework\src\traditional\stdclib\ldexp.c
                   __pa_0   0x008060    program     static E:\c18v3.46\pic18-lt\cxx-framework\src\traditional\stdclib\vfprintf.c
                   __pa_0   0x0074d8    program     static C:\Projects\EggBot2-GH\EBB_firmware\Microchip\USB\usb_device.c
                   __pa_0   0x009aa8    program     static C:\Projects\EggBot2-GH\EBB_firmware\app.X\source\RCServo2.c
                   __pa_0   0x00a29e    program     static E:\c18v3.46\pic18-lt\cxx-framework\src\pmc_common\Flash\EraseFlash.c
                   __pa_0   0x00a162    program     static E:\c18v3.46\pic18-lt\cxx-framework\src\traditional\stdclib\PackMath.c
                   __pa_0   0x00648e    program     static C:\Projects\EggBot2-GH\EBB_firmware\app.X\source\UBW.c
                   __pa_0   0x0092d0    program     static E:\c18v3.46\pic18-lt\cxx-framework\src\traditional\stdclib\sqrt.c
                   __pa_1   0x0074e0    program     static C:\Projects\EggBot2-GH\EBB_firmware\Microchip\USB\usb_device.c
                   __pa_1   0x008068    program     static E:\c18v3.46\pic18-lt\cxx-framework\src\traditional\stdclib\vfprintf.c
                   __pa_1   0x009aba    program     static C:\Projects\EggBot2-GH\EBB_firmware\app.X\source\RCServo2.c
                   __pa_1   0x0096a6    program     static C:\Projects\EggBot2-GH\EBB_firmware\Microchip\USB\CDC Device Driver\usb_function_cdc.c
                   __pa_1   0x00a172    program     static E:\c18v3.46\pic18-lt\cxx-framework\src\traditional\stdclib\PackMath.c
                   __pa_1   0x009e3a    program     static C:\Projects\EggBot2-GH\EBB_firmware\app.X\source\main.c
                   __pa_1   0x0035e6    program     static C:\Projects\EggBot2-GH\EBB_firmware\app.X\source\ebb.c
                   __pa_1   0x0064a0    program     static C:\Projects\EggBot2-GH\EBB_firmware\app.X\source\UBW.c
                   __pa_1   0x0092da    program     static E:\c18v3.46\pic18-lt\cxx-framework\src\traditional\stdclib\sqrt.c
                  __pa_10   0x00972c    program     static C:\Projects\EggBot2-GH\EBB_firmware\Microchip\USB\CDC Device Driver\usb_function_cdc.c
                  __pa_10   0x00811c    program     static E:\c18v3.46\pic18-lt\cxx-framework\src\traditional\stdclib\vfprintf.c
                  __pa_10   0x009b14    program     static C:\Projects\EggBot2-GH\EBB_firmware\app.X\source\RCServo2.c
                  __pa_10   0x003668    program     static C:\Projects\EggBot2-GH\EBB_firmware\app.X\source\ebb.c
                  __pa_10   0x0064f4    program     static C:\Projects\EggBot2-GH\EBB_firmware\app.X\source\UBW.c
                  __pa_10   0x00753e    program     static C:\Projects\EggBot2-GH\EBB_firmware\Microchip\USB\usb_device.c
                 __pa_100   0x003d18    program     static C:\Projects\EggBot2-GH\EBB_firmware\app.X\source\ebb.c
                 __pa_100   0x0068fa    program     static C:\Projects\EggBot2-GH\EBB_firmware\app.X\source\UBW.c
                 __pa_101   0x003d26    program     static C:\Projects\EggBot2-GH\EBB_firmware\app.X\source\ebb.c
                 __pa_101   0x00690a    program     static C:\Projects\EggBot2-GH\EBB_firmware\app.X\source\UBW.c
                 __pa_102   0x003d34    program     static C:\Projects\EggBot2-GH\EBB_firmware\app.X\source\ebb.c
                 __pa_102   0x006916    program     static C:\Projects\EggBot2-GH\EBB_firmware\app.X\source\UBW.c
                 __pa_103   0x003d42    program     static C:\Projects\EggBot2-GH\EBB_firmware\app.X\source\ebb.c
                 __pa_103   0x00691e    program     static C:\Projects\EggBot2-GH\EBB_firmware\app.X\source\UBW.c
                 __pa_104   0x006926    program     static C:\Projects\EggBot2-GH\EBB_firmware\app.X\source\UBW.c
                 __pa_104   0x003d50    program     static C:\Projects\EggBot2-GH\EBB_firmware\app.X\source\ebb.c
                 __pa_105   0x003d54    program     static C:\Projects\EggBot2-GH\EBB_firmware\app.X\source\ebb.c
                 __pa_105   0x006932    program     static C:\Projects\EggBot2-GH\EBB_firmware\app.X\source\UBW.c
                 __pa_106   0x003d5e    program     static C:\Projects\EggBot2-GH\EBB_firmware\app.X\source\ebb.c
                 __pa_106   0x00693e    program     static C:\Projects\EggBot2-GH\EBB_firmware\app.X\source\UBW.c
                 __pa_107   0x003d68    program     static C:\Projects\EggBot2-GH\EBB_firmware\app.X\source\ebb.c
                 __pa_107   0x006946    program     static C:\Projects\EggBot2-GH\EBB_firmware\app.X\source\UBW.c
                 __pa_108   0x006952    program     static C:\Projects\EggBot2-GH\EBB_firmware\app.X\source\UBW.c
                 __pa_108   0x003d72    program     static C:\Projects\EggBot2-GH\EBB_firmware\app.X\source\ebb.c
                 __pa_109   0x006958    program     static C:\Projects\EggBot2-GH\EBB_firmware\app.X\source\UBW.c
                 __pa_109   0x003d7a    program     static C:\Projects\EggBot2-GH\EBB_firmware\app.X\source\ebb.c
                  __pa_11   0x006502    program     static C:\Projects\EggBot2-GH\EBB_firmware\app.X\source\UBW.c
                  __pa_11   0x007548    program     static C:\Projects\EggBot2-GH\EBB_firmware\Microchip\USB\usb_device.c
                  __pa_11   0x003676    program     static C:\Projects\EggBot2-GH\EBB_firmware\app.X\source\ebb.c
                  __pa_11   0x00973a    program     static C:\Projects\EggBot2-GH\EBB_firmware\Microchip\USB\CDC Device Driver\usb_function_cdc.c
                  __pa_11   0x00812a    program     static E:\c18v3.46\pic18-lt\cxx-framework\src\traditional\stdclib\vfprintf.c
                 __pa_110   0x006960    program     static C:\Projects\EggBot2-GH\EBB_firmware\app.X\source\UBW.c
                 __pa_110   0x003d82    program     static C:\Projects\EggBot2-GH\EBB_firmware\app.X\source\ebb.c
                 __pa_111   0x003d9a    program     static C:\Projects\EggBot2-GH\EBB_firmware\app.X\source\ebb.c
                 __pa_111   0x006966    program     static C:\Projects\EggBot2-GH\EBB_firmware\app.X\source\UBW.c
                 __pa_112   0x003da4    program     static C:\Projects\EggBot2-GH\EBB_firmware\app.X\source\ebb.c
                 __pa_112   0x00696c    program     static C:\Projects\EggBot2-GH\EBB_firmware\app.X\source\UBW.c
                 __pa_113   0x003dbc    program     static C:\Projects\EggBot2-GH\EBB_firmware\app.X\source\ebb.c
                 __pa_113   0x006974    program     static C:\Projects\EggBot2-GH\EBB_firmware\app.X\source\UBW.c
                 __pa_114   0x003dce    program     static C:\Projects\EggBot2-GH\EBB_firmware\app.X\source\ebb.c
                 __pa_115   0x003dd6    program     static C:\Projects\EggBot2-GH\EBB_firmware\app.X\source\ebb.c
                 __pa_116   0x003dec    program     static C:\Projects\EggBot2-GH\EBB_firmware\app.X\source\ebb.c
                 __pa_117   0x003e02    program     static C:\Projects\EggBot2-GH\EBB_firmware\app.X\source\ebb.c
                 __pa_118   0x003e0a    program     static C:\Projects\EggBot2-GH\EBB_firmware\app.X\source\ebb.c
                 __pa_119   0x003e1c    program     static C:\Projects\EggBot2-GH\EBB_firmware\app.X\source\ebb.c
                  __pa_12   0x00650c    program     static C:\Projects\EggBot2-GH\EBB_firmware\app.X\source\UBW.c
                  __pa_12   0x00755c    program     static C:\Projects\EggBot2-GH\EBB_firmware\Microchip\USB\usb_device.c
                  __pa_12   0x00367c    program     static C:\Projects\EggBot2-GH\EBB_firmware\app.X\source\ebb.c
                  __pa_12   0x008140    program     static E:\c18v3.46\pic18-lt\cxx-framework\src\traditional\stdclib\vfprintf.c
                  __pa_12   0x009744    program     static C:\Projects\EggBot2-GH\EBB_firmware\Microchip\USB\CDC Device Driver\usb_function_cdc.c
                 __pa_120   0x003e2e    program     static C:\Projects\EggBot2-GH\EBB_firmware\app.X\source\ebb.c
                 __pa_121   0x003e3a    program     static C:\Projects\EggBot2-GH\EBB_firmware\app.X\source\ebb.c
                 __pa_122   0x003e44    program     static C:\Projects\EggBot2-GH\EBB_firmware\app.X\source\ebb.c
                 __pa_123   0x003e52    program     static C:\Projects\EggBot2-GH\EBB_firmware\app.X\source\ebb.c
                 __pa_124   0x003e6e    program     static C:\Projects\EggBot2-GH\EBB_firmware\app.X\source\ebb.c
                 __pa_125   0x003e7a    program     static C:\Projects\EggBot2-GH\EBB_firmware\app.X\source\ebb.c
                 __pa_126   0x003e8c    program     static C:\Projects\EggBot2-GH\EBB_firmware\app.X\source\ebb.c
                 __pa_127   0x003e9e    program     static C:\Projects\EggBot2-GH\EBB_firmware\app.X\source\ebb.c
                 __pa_128   0x003eb0    program     static C:\Projects\EggBot2-GH\EBB_firmware\app.X\source\ebb.c
                 __pa_129   0x003ebc    program     static C:\Projects\EggBot2-GH\EBB_firmware\app.X\source\ebb.c
                  __pa_13   0x003694    program     static C:\Projects\EggBot2-GH\EBB_firmware\app.X\source\ebb.c
                  __pa_13   0x00815a    program     static E:\c18v3.46\pic18-lt\cxx-framework\src\traditional\stdclib\vfprintf.c
                  __pa_13   0x009754    program     static C:\Projects\EggBot2-GH\EBB_firmware\Microchip\USB\CDC Device Driver\usb_function_cdc.c
                  __pa_13   0x007570    program     static C:\Projects\EggBot2-GH\EBB_firmware\Microchip\USB\usb_device.c
                  __pa_13   0x006514    program     static C:\Projects\EggBot2-GH\EBB_firmware\app.X\source\UBW.c
                 __pa_130   0x003ec4    program     static C:\Projects\EggBot2-GH\EBB_firmware\app.X\source\ebb.c
                 __pa_131   0x003ece    program     static C:\Projects\EggBot2-GH\EBB_firmware\app.X\source\ebb.c
                 __pa_132   0x003ed6    program     static C:\Projects\EggBot2-GH\EBB_firmware\app.X\source\ebb.c
                 __pa_133   0x003eec    program     static C:\Projects\EggBot2-GH\EBB_firmware\app.X\source\ebb.c
                 __pa_134   0x003f06    program     static C:\Projects\EggBot2-GH\EBB_firmware\app.X\source\ebb.c
                 __pa_135   0x003f1e    program     static C:\Projects\EggBot2-GH\EBB_firmware\app.X\source\ebb.c
                 __pa_136   0x003f36    program     static C:\Projects\EggBot2-GH\EBB_firmware\app.X\source\ebb.c
                 __pa_137   0x003f3e    program     static C:\Projects\EggBot2-GH\EBB_firmware\app.X\source\ebb.c
                 __pa_138   0x003f4a    program     static C:\Projects\EggBot2-GH\EBB_firmware\app.X\source\ebb.c
                 __pa_139   0x003f52    program     static C:\Projects\EggBot2-GH\EBB_firmware\app.X\source\ebb.c
                  __pa_14   0x0036a0    program     static C:\Projects\EggBot2-GH\EBB_firmware\app.X\source\ebb.c
                  __pa_14   0x008172    program     static E:\c18v3.46\pic18-lt\cxx-framework\src\traditional\stdclib\vfprintf.c
                  __pa_14   0x009762    program     static C:\Projects\EggBot2-GH\EBB_firmware\Microchip\USB\CDC Device Driver\usb_function_cdc.c
                  __pa_14   0x00651c    program     static C:\Projects\EggBot2-GH\EBB_firmware\app.X\source\UBW.c
                  __pa_14   0x00757e    program     static C:\Projects\EggBot2-GH\EBB_firmware\Microchip\USB\usb_device.c
                 __pa_140   0x003f5a    program     static C:\Projects\EggBot2-GH\EBB_firmware\app.X\source\ebb.c
                 __pa_141   0x003f70    program     static C:\Projects\EggBot2-GH\EBB_firmware\app.X\source\ebb.c
                 __pa_142   0x003f86    program     static C:\Projects\EggBot2-GH\EBB_firmware\app.X\source\ebb.c
                 __pa_143   0x003f90    program     static C:\Projects\EggBot2-GH\EBB_firmware\app.X\source\ebb.c
                 __pa_144   0x003f9e    program     static C:\Projects\EggBot2-GH\EBB_firmware\app.X\source\ebb.c
                 __pa_145   0x003faa    program     static C:\Projects\EggBot2-GH\EBB_firmware\app.X\source\ebb.c
                 __pa_146   0x003fb6    program     static C:\Projects\EggBot2-GH\EBB_firmware\app.X\source\ebb.c
                 __pa_147   0x003fc2    program     static C:\Projects\EggBot2-GH\EBB_firmware\app.X\source\ebb.c
                 __pa_148   0x003fca    program     static C:\Projects\EggBot2-GH\EBB_firmware\app.X\source\ebb.c
                 __pa_149   0x003fd2    program     static C:\Projects\EggBot2-GH\EBB_firmware\app.X\source\ebb.c
                  __pa_15   0x006528    program     static C:\Projects\EggBot2-GH\EBB_firmware\app.X\source\UBW.c
                  __pa_15   0x0036a8    program     static C:\Projects\EggBot2-GH\EBB_firmware\app.X\source\ebb.c
                  __pa_15   0x008182    program     static E:\c18v3.46\pic18-lt\cxx-framework\src\traditional\stdclib\vfprintf.c
                  __pa_15   0x00758a    program     static C:\Projects\EggBot2-GH\EBB_firmware\Microchip\USB\usb_device.c
                 __pa_150   0x003fda    program     static C:\Projects\EggBot2-GH\EBB_firmware\app.X\source\ebb.c
                 __pa_151   0x003fee    program     static C:\Projects\EggBot2-GH\EBB_firmware\app.X\source\ebb.c
                 __pa_152   0x004000    program     static C:\Projects\EggBot2-GH\EBB_firmware\app.X\source\ebb.c
                 __pa_153   0x004012    program     static C:\Projects\EggBot2-GH\EBB_firmware\app.X\source\ebb.c
                 __pa_154   0x004024    program     static C:\Projects\EggBot2-GH\EBB_firmware\app.X\source\ebb.c
                 __pa_155   0x004030    program     static C:\Projects\EggBot2-GH\EBB_firmware\app.X\source\ebb.c
                 __pa_156   0x00403a    program     static C:\Projects\EggBot2-GH\EBB_firmware\app.X\source\ebb.c
                 __pa_157   0x004046    program     static C:\Projects\EggBot2-GH\EBB_firmware\app.X\source\ebb.c
                 __pa_158   0x004050    program     static C:\Projects\EggBot2-GH\EBB_firmware\app.X\source\ebb.c
                 __pa_159   0x004060    program     static C:\Projects\EggBot2-GH\EBB_firmware\app.X\source\ebb.c
                  __pa_16   0x006532    program     static C:\Projects\EggBot2-GH\EBB_firmware\app.X\source\UBW.c
                  __pa_16   0x0075a4    program     static C:\Projects\EggBot2-GH\EBB_firmware\Microchip\USB\usb_device.c
                  __pa_16   0x0036b4    program     static C:\Projects\EggBot2-GH\EBB_firmware\app.X\source\ebb.c
                  __pa_16   0x008198    program     static E:\c18v3.46\pic18-lt\cxx-framework\src\traditional\stdclib\vfprintf.c
                 __pa_160   0x00406e    program     static C:\Projects\EggBot2-GH\EBB_firmware\app.X\source\ebb.c
                 __pa_161   0x00407c    program     static C:\Projects\EggBot2-GH\EBB_firmware\app.X\source\ebb.c
                 __pa_162   0x00408a    program     static C:\Projects\EggBot2-GH\EBB_firmware\app.X\source\ebb.c
                 __pa_163   0x004094    program     static C:\Projects\EggBot2-GH\EBB_firmware\app.X\source\ebb.c
                 __pa_164   0x0040a0    program     static C:\Projects\EggBot2-GH\EBB_firmware\app.X\source\ebb.c
                 __pa_165   0x0040ac    program     static C:\Projects\EggBot2-GH\EBB_firmware\app.X\source\ebb.c
                 __pa_166   0x0040ba    program     static C:\Projects\EggBot2-GH\EBB_firmware\app.X\source\ebb.c
                 __pa_167   0x0040c6    program     static C:\Projects\EggBot2-GH\EBB_firmware\app.X\source\ebb.c
                 __pa_168   0x0040ce    program     static C:\Projects\EggBot2-GH\EBB_firmware\app.X\source\ebb.c
                 __pa_169   0x0040d4    program     static C:\Projects\EggBot2-GH\EBB_firmware\app.X\source\ebb.c
                  __pa_17   0x0075b0    program     static C:\Projects\EggBot2-GH\EBB_firmware\Microchip\USB\usb_device.c
                  __pa_17   0x0081aa    program     static E:\c18v3.46\pic18-lt\cxx-framework\src\traditional\stdclib\vfprintf.c
                  __pa_17   0x00653a    program     static C:\Projects\EggBot2-GH\EBB_firmware\app.X\source\UBW.c
                  __pa_17   0x0036c0    program     static C:\Projects\EggBot2-GH\EBB_firmware\app.X\source\ebb.c
                 __pa_170   0x0040dc    program     static C:\Projects\EggBot2-GH\EBB_firmware\app.X\source\ebb.c
                 __pa_171   0x0040e6    program     static C:\Projects\EggBot2-GH\EBB_firmware\app.X\source\ebb.c
                 __pa_172   0x0040f0    program     static C:\Projects\EggBot2-GH\EBB_firmware\app.X\source\ebb.c
                 __pa_173   0x0040fa    program     static C:\Projects\EggBot2-GH\EBB_firmware\app.X\source\ebb.c
                 __pa_174   0x004104    program     static C:\Projects\EggBot2-GH\EBB_firmware\app.X\source\ebb.c
                 __pa_175   0x00410e    program     static C:\Projects\EggBot2-GH\EBB_firmware\app.X\source\ebb.c
                 __pa_176   0x004116    program     static C:\Projects\EggBot2-GH\EBB_firmware\app.X\source\ebb.c
                 __pa_177   0x004128    program     static C:\Projects\EggBot2-GH\EBB_firmware\app.X\source\ebb.c
                 __pa_178   0x004130    program     static C:\Projects\EggBot2-GH\EBB_firmware\app.X\source\ebb.c
                 __pa_179   0x004138    program     static C:\Projects\EggBot2-GH\EBB_firmware\app.X\source\ebb.c
                  __pa_18   0x0081bc    program     static E:\c18v3.46\pic18-lt\cxx-framework\src\traditional\stdclib\vfprintf.c
                  __pa_18   0x0075bc    program     static C:\Projects\EggBot2-GH\EBB_firmware\Microchip\USB\usb_device.c
                  __pa_18   0x0036d6    program     static C:\Projects\EggBot2-GH\EBB_firmware\app.X\source\ebb.c
                  __pa_18   0x00654c    program     static C:\Projects\EggBot2-GH\EBB_firmware\app.X\source\UBW.c
                 __pa_180   0x004146    program     static C:\Projects\EggBot2-GH\EBB_firmware\app.X\source\ebb.c
                 __pa_181   0x004156    program     static C:\Projects\EggBot2-GH\EBB_firmware\app.X\source\ebb.c
                 __pa_182   0x004160    program     static C:\Projects\EggBot2-GH\EBB_firmware\app.X\source\ebb.c
                 __pa_183   0x00416c    program     static C:\Projects\EggBot2-GH\EBB_firmware\app.X\source\ebb.c
                 __pa_184   0x004178    program     static C:\Projects\EggBot2-GH\EBB_firmware\app.X\source\ebb.c
                 __pa_185   0x004180    program     static C:\Projects\EggBot2-GH\EBB_firmware\app.X\source\ebb.c
                 __pa_186   0x004188    program     static C:\Projects\EggBot2-GH\EBB_firmware\app.X\source\ebb.c
                 __pa_187   0x004194    program     static C:\Projects\EggBot2-GH\EBB_firmware\app.X\source\ebb.c
                 __pa_188   0x0041a2    program     static C:\Projects\EggBot2-GH\EBB_firmware\app.X\source\ebb.c
                 __pa_189   0x0041b0    program     static C:\Projects\EggBot2-GH\EBB_firmware\app.X\source\ebb.c
                  __pa_19   0x006552    program     static C:\Projects\EggBot2-GH\EBB_firmware\app.X\source\UBW.c
                  __pa_19   0x0075c4    program     static C:\Projects\EggBot2-GH\EBB_firmware\Microchip\USB\usb_device.c
                  __pa_19   0x0081c6    program     static E:\c18v3.46\pic18-lt\cxx-framework\src\traditional\stdclib\vfprintf.c
                  __pa_19   0x0036ea    program     static C:\Projects\EggBot2-GH\EBB_firmware\app.X\source\ebb.c
                 __pa_190   0x0041ba    program     static C:\Projects\EggBot2-GH\EBB_firmware\app.X\source\ebb.c
                 __pa_191   0x0041c2    program     static C:\Projects\EggBot2-GH\EBB_firmware\app.X\source\ebb.c
                 __pa_192   0x0041d0    program     static C:\Projects\EggBot2-GH\EBB_firmware\app.X\source\ebb.c
                 __pa_193   0x0041d8    program     static C:\Projects\EggBot2-GH\EBB_firmware\app.X\source\ebb.c
                 __pa_194   0x0041e0    program     static C:\Projects\EggBot2-GH\EBB_firmware\app.X\source\ebb.c
                 __pa_195   0x0041e6    program     static C:\Projects\EggBot2-GH\EBB_firmware\app.X\source\ebb.c
                   __pa_2   0x0096b6    program     static C:\Projects\EggBot2-GH\EBB_firmware\Microchip\USB\CDC Device Driver\usb_function_cdc.c
                   __pa_2   0x00a180    program     static E:\c18v3.46\pic18-lt\cxx-framework\src\traditional\stdclib\PackMath.c
                   __pa_2   0x0092f4    program     static E:\c18v3.46\pic18-lt\cxx-framework\src\traditional\stdclib\sqrt.c
                   __pa_2   0x0035ec    program     static C:\Projects\EggBot2-GH\EBB_firmware\app.X\source\ebb.c
                   __pa_2   0x0074e6    program     static C:\Projects\EggBot2-GH\EBB_firmware\Microchip\USB\usb_device.c
                   __pa_2   0x008072    program     static E:\c18v3.46\pic18-lt\cxx-framework\src\traditional\stdclib\vfprintf.c
                   __pa_2   0x009ac4    program     static C:\Projects\EggBot2-GH\EBB_firmware\app.X\source\RCServo2.c
                   __pa_2   0x0064a6    program     static C:\Projects\EggBot2-GH\EBB_firmware\app.X\source\UBW.c
                  __pa_20   0x0081d6    program     static E:\c18v3.46\pic18-lt\cxx-framework\src\traditional\stdclib\vfprintf.c
                  __pa_20   0x0075cc    program     static C:\Projects\EggBot2-GH\EBB_firmware\Microchip\USB\usb_device.c
                  __pa_20   0x00655e    program     static C:\Projects\EggBot2-GH\EBB_firmware\app.X\source\UBW.c
                  __pa_20   0x0036fe    program     static C:\Projects\EggBot2-GH\EBB_firmware\app.X\source\ebb.c
                  __pa_21   0x00657a    program     static C:\Projects\EggBot2-GH\EBB_firmware\app.X\source\UBW.c
                  __pa_21   0x0081e6    program     static E:\c18v3.46\pic18-lt\cxx-framework\src\traditional\stdclib\vfprintf.c
                  __pa_21   0x003740    program     static C:\Projects\EggBot2-GH\EBB_firmware\app.X\source\ebb.c
                  __pa_21   0x0075d8    program     static C:\Projects\EggBot2-GH\EBB_firmware\Microchip\USB\usb_device.c
                  __pa_22   0x006588    program     static C:\Projects\EggBot2-GH\EBB_firmware\app.X\source\UBW.c
                  __pa_22   0x0081f6    program     static E:\c18v3.46\pic18-lt\cxx-framework\src\traditional\stdclib\vfprintf.c
                  __pa_22   0x0075e8    program     static C:\Projects\EggBot2-GH\EBB_firmware\Microchip\USB\usb_device.c
                  __pa_22   0x003754    program     static C:\Projects\EggBot2-GH\EBB_firmware\app.X\source\ebb.c
                  __pa_23   0x008202    program     static E:\c18v3.46\pic18-lt\cxx-framework\src\traditional\stdclib\vfprintf.c
                  __pa_23   0x003766    program     static C:\Projects\EggBot2-GH\EBB_firmware\app.X\source\ebb.c
                  __pa_23   0x006596    program     static C:\Projects\EggBot2-GH\EBB_firmware\app.X\source\UBW.c
                  __pa_23   0x0075f8    program     static C:\Projects\EggBot2-GH\EBB_firmware\Microchip\USB\usb_device.c
                  __pa_24   0x008210    program     static E:\c18v3.46\pic18-lt\cxx-framework\src\traditional\stdclib\vfprintf.c
                  __pa_24   0x007606    program     static C:\Projects\EggBot2-GH\EBB_firmware\Microchip\USB\usb_device.c
                  __pa_24   0x00376c    program     static C:\Projects\EggBot2-GH\EBB_firmware\app.X\source\ebb.c
                  __pa_24   0x0065a4    program     static C:\Projects\EggBot2-GH\EBB_firmware\app.X\source\UBW.c
                  __pa_25   0x008218    program     static E:\c18v3.46\pic18-lt\cxx-framework\src\traditional\stdclib\vfprintf.c
                  __pa_25   0x0065b0    program     static C:\Projects\EggBot2-GH\EBB_firmware\app.X\source\UBW.c
                  __pa_25   0x007614    program     static C:\Projects\EggBot2-GH\EBB_firmware\Microchip\USB\usb_device.c
                  __pa_25   0x003782    program     static C:\Projects\EggBot2-GH\EBB_firmware\app.X\source\ebb.c
                  __pa_26   0x008222    program     static E:\c18v3.46\pic18-lt\cxx-framework\src\traditional\stdclib\vfprintf.c
                  __pa_26   0x007622    program     static C:\Projects\EggBot2-GH\EBB_firmware\Microchip\USB\usb_device.c
                  __pa_26   0x0065b6    program     static C:\Projects\EggBot2-GH\EBB_firmware\app.X\source\UBW.c
                  __pa_26   0x003796    program     static C:\Projects\EggBot2-GH\EBB_firmware\app.X\source\ebb.c
                  __pa_27   0x00762c    program     static C:\Projects\EggBot2-GH\EBB_firmware\Microchip\USB\usb_device.c
                  __pa_27   0x00822c    program     static E:\c18v3.46\pic18-lt\cxx-framework\src\traditional\stdclib\vfprintf.c
                  __pa_27   0x0065c0    program     static C:\Projects\EggBot2-GH\EBB_firmware\app.X\source\UBW.c
                  __pa_27   0x0037a0    program     static C:\Projects\EggBot2-GH\EBB_firmware\app.X\source\ebb.c
                  __pa_28   0x0037ae    program     static C:\Projects\EggBot2-GH\EBB_firmware\app.X\source\ebb.c
                  __pa_28   0x0065ca    program     static C:\Projects\EggBot2-GH\EBB_firmware\app.X\source\UBW.c
                  __pa_28   0x008234    program     static E:\c18v3.46\pic18-lt\cxx-framework\src\traditional\stdclib\vfprintf.c
                  __pa_28   0x007644    program     static C:\Projects\EggBot2-GH\EBB_firmware\Microchip\USB\usb_device.c
                  __pa_29   0x0065d2    program     static C:\Projects\EggBot2-GH\EBB_firmware\app.X\source\UBW.c
                  __pa_29   0x0037bc    program     static C:\Projects\EggBot2-GH\EBB_firmware\app.X\source\ebb.c
                  __pa_29   0x008242    program     static E:\c18v3.46\pic18-lt\cxx-framework\src\traditional\stdclib\vfprintf.c
                  __pa_29   0x007650    program     static C:\Projects\EggBot2-GH\EBB_firmware\Microchip\USB\usb_device.c
                   __pa_3   0x00807c    program     static E:\c18v3.46\pic18-lt\cxx-framework\src\traditional\stdclib\vfprintf.c
                   __pa_3   0x009aca    program     static C:\Projects\EggBot2-GH\EBB_firmware\app.X\source\RCServo2.c
                   __pa_3   0x0035fa    program     static C:\Projects\EggBot2-GH\EBB_firmware\app.X\source\ebb.c
                   __pa_3   0x0096c2    program     static C:\Projects\EggBot2-GH\EBB_firmware\Microchip\USB\CDC Device Driver\usb_function_cdc.c
                   __pa_3   0x0064b2    program     static C:\Projects\EggBot2-GH\EBB_firmware\app.X\source\UBW.c
                   __pa_3   0x00930e    program     static E:\c18v3.46\pic18-lt\cxx-framework\src\traditional\stdclib\sqrt.c
                   __pa_3   0x0074ea    program     static C:\Projects\EggBot2-GH\EBB_firmware\Microchip\USB\usb_device.c
                   __pa_3   0x00a18a    program     static E:\c18v3.46\pic18-lt\cxx-framework\src\traditional\stdclib\PackMath.c
                  __pa_30   0x0065d8    program     static C:\Projects\EggBot2-GH\EBB_firmware\app.X\source\UBW.c
                  __pa_30   0x007664    program     static C:\Projects\EggBot2-GH\EBB_firmware\Microchip\USB\usb_device.c
                  __pa_30   0x0037d2    program     static C:\Projects\EggBot2-GH\EBB_firmware\app.X\source\ebb.c
                  __pa_30   0x00825e    program     static E:\c18v3.46\pic18-lt\cxx-framework\src\traditional\stdclib\vfprintf.c
                  __pa_31   0x007670    program     static C:\Projects\EggBot2-GH\EBB_firmware\Microchip\USB\usb_device.c
                  __pa_31   0x0037e8    program     static C:\Projects\EggBot2-GH\EBB_firmware\app.X\source\ebb.c
                  __pa_31   0x008278    program     static E:\c18v3.46\pic18-lt\cxx-framework\src\traditional\stdclib\vfprintf.c
                  __pa_31   0x0065e6    program     static C:\Projects\EggBot2-GH\EBB_firmware\app.X\source\UBW.c
                  __pa_32   0x003802    program     static C:\Projects\EggBot2-GH\EBB_firmware\app.X\source\ebb.c
                  __pa_32   0x0065f4    program     static C:\Projects\EggBot2-GH\EBB_firmware\app.X\source\UBW.c
                  __pa_32   0x008292    program     static E:\c18v3.46\pic18-lt\cxx-framework\src\traditional\stdclib\vfprintf.c
                  __pa_32   0x007682    program     static C:\Projects\EggBot2-GH\EBB_firmware\Microchip\USB\usb_device.c
                  __pa_33   0x0065fc    program     static C:\Projects\EggBot2-GH\EBB_firmware\app.X\source\UBW.c
                  __pa_33   0x0082aa    program     static E:\c18v3.46\pic18-lt\cxx-framework\src\traditional\stdclib\vfprintf.c
                  __pa_33   0x00381c    program     static C:\Projects\EggBot2-GH\EBB_firmware\app.X\source\ebb.c
                  __pa_33   0x007690    program     static C:\Projects\EggBot2-GH\EBB_firmware\Microchip\USB\usb_device.c
                  __pa_34   0x0082b4    program     static E:\c18v3.46\pic18-lt\cxx-framework\src\traditional\stdclib\vfprintf.c
                  __pa_34   0x006618    program     static C:\Projects\EggBot2-GH\EBB_firmware\app.X\source\UBW.c
                  __pa_34   0x003836    program     static C:\Projects\EggBot2-GH\EBB_firmware\app.X\source\ebb.c
                  __pa_34   0x0076a2    program     static C:\Projects\EggBot2-GH\EBB_firmware\Microchip\USB\usb_device.c
                  __pa_35   0x0082c2    program     static E:\c18v3.46\pic18-lt\cxx-framework\src\traditional\stdclib\vfprintf.c
                  __pa_35   0x006634    program     static C:\Projects\EggBot2-GH\EBB_firmware\app.X\source\UBW.c
                  __pa_35   0x0076ac    program     static C:\Projects\EggBot2-GH\EBB_firmware\Microchip\USB\usb_device.c
                  __pa_35   0x003852    program     static C:\Projects\EggBot2-GH\EBB_firmware\app.X\source\ebb.c
                  __pa_36   0x00386e    program     static C:\Projects\EggBot2-GH\EBB_firmware\app.X\source\ebb.c
                  __pa_36   0x0082ca    program     static E:\c18v3.46\pic18-lt\cxx-framework\src\traditional\stdclib\vfprintf.c
                  __pa_36   0x0076b6    program     static C:\Projects\EggBot2-GH\EBB_firmware\Microchip\USB\usb_device.c
                  __pa_36   0x00664e    program     static C:\Projects\EggBot2-GH\EBB_firmware\app.X\source\UBW.c
                  __pa_37   0x00387c    program     static C:\Projects\EggBot2-GH\EBB_firmware\app.X\source\ebb.c
                  __pa_37   0x0076bc    program     static C:\Projects\EggBot2-GH\EBB_firmware\Microchip\USB\usb_device.c
                  __pa_37   0x0082d4    program     static E:\c18v3.46\pic18-lt\cxx-framework\src\traditional\stdclib\vfprintf.c
                  __pa_37   0x00665a    program     static C:\Projects\EggBot2-GH\EBB_firmware\app.X\source\UBW.c
                  __pa_38   0x0076c4    program     static C:\Projects\EggBot2-GH\EBB_firmware\Microchip\USB\usb_device.c
                  __pa_38   0x0082e4    program     static E:\c18v3.46\pic18-lt\cxx-framework\src\traditional\stdclib\vfprintf.c
                  __pa_38   0x006664    program     static C:\Projects\EggBot2-GH\EBB_firmware\app.X\source\UBW.c
                  __pa_38   0x003898    program     static C:\Projects\EggBot2-GH\EBB_firmware\app.X\source\ebb.c
                  __pa_39   0x0082f2    program     static E:\c18v3.46\pic18-lt\cxx-framework\src\traditional\stdclib\vfprintf.c
                  __pa_39   0x006670    program     static C:\Projects\EggBot2-GH\EBB_firmware\app.X\source\UBW.c
                  __pa_39   0x0076ca    program     static C:\Projects\EggBot2-GH\EBB_firmware\Microchip\USB\usb_device.c
                  __pa_39   0x0038b8    program     static C:\Projects\EggBot2-GH\EBB_firmware\app.X\source\ebb.c
                   __pa_4   0x009320    program     static E:\c18v3.46\pic18-lt\cxx-framework\src\traditional\stdclib\sqrt.c
                   __pa_4   0x0064be    program     static C:\Projects\EggBot2-GH\EBB_firmware\app.X\source\UBW.c
                   __pa_4   0x0074f4    program     static C:\Projects\EggBot2-GH\EBB_firmware\Microchip\USB\usb_device.c
                   __pa_4   0x00a198    program     static E:\c18v3.46\pic18-lt\cxx-framework\src\traditional\stdclib\PackMath.c
                   __pa_4   0x0096d4    program     static C:\Projects\EggBot2-GH\EBB_firmware\Microchip\USB\CDC Device Driver\usb_function_cdc.c
                   __pa_4   0x003608    program     static C:\Projects\EggBot2-GH\EBB_firmware\app.X\source\ebb.c
                   __pa_4   0x008094    program     static E:\c18v3.46\pic18-lt\cxx-framework\src\traditional\stdclib\vfprintf.c
                   __pa_4   0x009ad6    program     static C:\Projects\EggBot2-GH\EBB_firmware\app.X\source\RCServo2.c
                  __pa_40   0x0076d8    program     static C:\Projects\EggBot2-GH\EBB_firmware\Microchip\USB\usb_device.c
                  __pa_40   0x0082fe    program     static E:\c18v3.46\pic18-lt\cxx-framework\src\traditional\stdclib\vfprintf.c
                  __pa_40   0x006678    program     static C:\Projects\EggBot2-GH\EBB_firmware\app.X\source\UBW.c
                  __pa_40   0x0038ce    program     static C:\Projects\EggBot2-GH\EBB_firmware\app.X\source\ebb.c
                  __pa_41   0x00668e    program     static C:\Projects\EggBot2-GH\EBB_firmware\app.X\source\UBW.c
                  __pa_41   0x00830a    program     static E:\c18v3.46\pic18-lt\cxx-framework\src\traditional\stdclib\vfprintf.c
                  __pa_41   0x0076e6    program     static C:\Projects\EggBot2-GH\EBB_firmware\Microchip\USB\usb_device.c
                  __pa_41   0x0038e0    program     static C:\Projects\EggBot2-GH\EBB_firmware\app.X\source\ebb.c
                  __pa_42   0x0038e6    program     static C:\Projects\EggBot2-GH\EBB_firmware\app.X\source\ebb.c
                  __pa_42   0x008312    program     static E:\c18v3.46\pic18-lt\cxx-framework\src\traditional\stdclib\vfprintf.c
                  __pa_42   0x00669c    program     static C:\Projects\EggBot2-GH\EBB_firmware\app.X\source\UBW.c
                  __pa_42   0x0076f0    program     static C:\Projects\EggBot2-GH\EBB_firmware\Microchip\USB\usb_device.c
                  __pa_43   0x0076fa    program     static C:\Projects\EggBot2-GH\EBB_firmware\Microchip\USB\usb_device.c
                  __pa_43   0x00831c    program     static E:\c18v3.46\pic18-lt\cxx-framework\src\traditional\stdclib\vfprintf.c
                  __pa_43   0x0066a6    program     static C:\Projects\EggBot2-GH\EBB_firmware\app.X\source\UBW.c
                  __pa_43   0x003904    program     static C:\Projects\EggBot2-GH\EBB_firmware\app.X\source\ebb.c
                  __pa_44   0x008322    program     static E:\c18v3.46\pic18-lt\cxx-framework\src\traditional\stdclib\vfprintf.c
                  __pa_44   0x003918    program     static C:\Projects\EggBot2-GH\EBB_firmware\app.X\source\ebb.c
                  __pa_44   0x007702    program     static C:\Projects\EggBot2-GH\EBB_firmware\Microchip\USB\usb_device.c
                  __pa_44   0x0066b8    program     static C:\Projects\EggBot2-GH\EBB_firmware\app.X\source\UBW.c
                  __pa_45   0x00770e    program     static C:\Projects\EggBot2-GH\EBB_firmware\Microchip\USB\usb_device.c
                  __pa_45   0x00832c    program     static E:\c18v3.46\pic18-lt\cxx-framework\src\traditional\stdclib\vfprintf.c
                  __pa_45   0x003932    program     static C:\Projects\EggBot2-GH\EBB_firmware\app.X\source\ebb.c
                  __pa_45   0x0066ca    program     static C:\Projects\EggBot2-GH\EBB_firmware\app.X\source\UBW.c
                  __pa_46   0x007718    program     static C:\Projects\EggBot2-GH\EBB_firmware\Microchip\USB\usb_device.c
                  __pa_46   0x00394c    program     static C:\Projects\EggBot2-GH\EBB_firmware\app.X\source\ebb.c
                  __pa_46   0x0066d6    program     static C:\Projects\EggBot2-GH\EBB_firmware\app.X\source\UBW.c
                  __pa_46   0x008338    program     static E:\c18v3.46\pic18-lt\cxx-framework\src\traditional\stdclib\vfprintf.c
                  __pa_47   0x003966    program     static C:\Projects\EggBot2-GH\EBB_firmware\app.X\source\ebb.c
                  __pa_47   0x0066e2    program     static C:\Projects\EggBot2-GH\EBB_firmware\app.X\source\UBW.c
                  __pa_48   0x003978    program     static C:\Projects\EggBot2-GH\EBB_firmware\app.X\source\ebb.c
                  __pa_48   0x0066ec    program     static C:\Projects\EggBot2-GH\EBB_firmware\app.X\source\UBW.c
                  __pa_49   0x003984    program     static C:\Projects\EggBot2-GH\EBB_firmware\app.X\source\ebb.c
                  __pa_49   0x0066f6    program     static C:\Projects\EggBot2-GH\EBB_firmware\app.X\source\UBW.c
                   __pa_5   0x00a1a0    program     static E:\c18v3.46\pic18-lt\cxx-framework\src\traditional\stdclib\PackMath.c
                   __pa_5   0x0064c6    program     static C:\Projects\EggBot2-GH\EBB_firmware\app.X\source\UBW.c
                   __pa_5   0x003620    program     static C:\Projects\EggBot2-GH\EBB_firmware\app.X\source\ebb.c
                   __pa_5   0x009332    program     static E:\c18v3.46\pic18-lt\cxx-framework\src\traditional\stdclib\sqrt.c
                   __pa_5   0x0096ee    program     static C:\Projects\EggBot2-GH\EBB_firmware\Microchip\USB\CDC Device Driver\usb_function_cdc.c
                   __pa_5   0x0080a8    program     static E:\c18v3.46\pic18-lt\cxx-framework\src\traditional\stdclib\vfprintf.c
                   __pa_5   0x007504    program     static C:\Projects\EggBot2-GH\EBB_firmware\Microchip\USB\usb_device.c
                   __pa_5   0x009ae2    program     static C:\Projects\EggBot2-GH\EBB_firmware\app.X\source\RCServo2.c
                  __pa_50   0x0039a4    program     static C:\Projects\EggBot2-GH\EBB_firmware\app.X\source\ebb.c
                  __pa_50   0x006700    program     static C:\Projects\EggBot2-GH\EBB_firmware\app.X\source\UBW.c
                  __pa_51   0x0039ba    program     static C:\Projects\EggBot2-GH\EBB_firmware\app.X\source\ebb.c
                  __pa_51   0x00670c    program     static C:\Projects\EggBot2-GH\EBB_firmware\app.X\source\UBW.c
                  __pa_52   0x0039c4    program     static C:\Projects\EggBot2-GH\EBB_firmware\app.X\source\ebb.c
                  __pa_52   0x006718    program     static C:\Projects\EggBot2-GH\EBB_firmware\app.X\source\UBW.c
                  __pa_53   0x0039e0    program     static C:\Projects\EggBot2-GH\EBB_firmware\app.X\source\ebb.c
                  __pa_53   0x006726    program     static C:\Projects\EggBot2-GH\EBB_firmware\app.X\source\UBW.c
                  __pa_54   0x0039ec    program     static C:\Projects\EggBot2-GH\EBB_firmware\app.X\source\ebb.c
                  __pa_54   0x006734    program     static C:\Projects\EggBot2-GH\EBB_firmware\app.X\source\UBW.c
                  __pa_55   0x0039f6    program     static C:\Projects\EggBot2-GH\EBB_firmware\app.X\source\ebb.c
                  __pa_55   0x006742    program     static C:\Projects\EggBot2-GH\EBB_firmware\app.X\source\UBW.c
                  __pa_56   0x006750    program     static C:\Projects\EggBot2-GH\EBB_firmware\app.X\source\UBW.c
                  __pa_56   0x003a0c    program     static C:\Projects\EggBot2-GH\EBB_firmware\app.X\source\ebb.c
                  __pa_57   0x00675e    program     static C:\Projects\EggBot2-GH\EBB_firmware\app.X\source\UBW.c
                  __pa_57   0x003a26    program     static C:\Projects\EggBot2-GH\EBB_firmware\app.X\source\ebb.c
                  __pa_58   0x003a44    program     static C:\Projects\EggBot2-GH\EBB_firmware\app.X\source\ebb.c
                  __pa_58   0x006768    program     static C:\Projects\EggBot2-GH\EBB_firmware\app.X\source\UBW.c
                  __pa_59   0x003a62    program     static C:\Projects\EggBot2-GH\EBB_firmware\app.X\source\ebb.c
                  __pa_59   0x006772    program     static C:\Projects\EggBot2-GH\EBB_firmware\app.X\source\UBW.c
                   __pa_6   0x003632    program     static C:\Projects\EggBot2-GH\EBB_firmware\app.X\source\ebb.c
                   __pa_6   0x0096fc    program     static C:\Projects\EggBot2-GH\EBB_firmware\Microchip\USB\CDC Device Driver\usb_function_cdc.c
                   __pa_6   0x00750e    program     static C:\Projects\EggBot2-GH\EBB_firmware\Microchip\USB\usb_device.c
                   __pa_6   0x0080c4    program     static E:\c18v3.46\pic18-lt\cxx-framework\src\traditional\stdclib\vfprintf.c
                   __pa_6   0x00a1a8    program     static E:\c18v3.46\pic18-lt\cxx-framework\src\traditional\stdclib\PackMath.c
                   __pa_6   0x0064d0    program     static C:\Projects\EggBot2-GH\EBB_firmware\app.X\source\UBW.c
                   __pa_6   0x009344    program     static E:\c18v3.46\pic18-lt\cxx-framework\src\traditional\stdclib\sqrt.c
                   __pa_6   0x009aee    program     static C:\Projects\EggBot2-GH\EBB_firmware\app.X\source\RCServo2.c
                  __pa_60   0x00677e    program     static C:\Projects\EggBot2-GH\EBB_firmware\app.X\source\UBW.c
                  __pa_60   0x003a7a    program     static C:\Projects\EggBot2-GH\EBB_firmware\app.X\source\ebb.c
                  __pa_61   0x003a82    program     static C:\Projects\EggBot2-GH\EBB_firmware\app.X\source\ebb.c
                  __pa_61   0x006784    program     static C:\Projects\EggBot2-GH\EBB_firmware\app.X\source\UBW.c
                  __pa_62   0x003a92    program     static C:\Projects\EggBot2-GH\EBB_firmware\app.X\source\ebb.c
                  __pa_62   0x00678e    program     static C:\Projects\EggBot2-GH\EBB_firmware\app.X\source\UBW.c
                  __pa_63   0x003aa4    program     static C:\Projects\EggBot2-GH\EBB_firmware\app.X\source\ebb.c
                  __pa_63   0x006794    program     static C:\Projects\EggBot2-GH\EBB_firmware\app.X\source\UBW.c
                  __pa_64   0x00679e    program     static C:\Projects\EggBot2-GH\EBB_firmware\app.X\source\UBW.c
                  __pa_64   0x003ab2    program     static C:\Projects\EggBot2-GH\EBB_firmware\app.X\source\ebb.c
                  __pa_65   0x003ac0    program     static C:\Projects\EggBot2-GH\EBB_firmware\app.X\source\ebb.c
                  __pa_65   0x0067a4    program     static C:\Projects\EggBot2-GH\EBB_firmware\app.X\source\UBW.c
                  __pa_66   0x003acc    program     static C:\Projects\EggBot2-GH\EBB_firmware\app.X\source\ebb.c
                  __pa_66   0x0067ae    program     static C:\Projects\EggBot2-GH\EBB_firmware\app.X\source\UBW.c
                  __pa_67   0x003ad8    program     static C:\Projects\EggBot2-GH\EBB_firmware\app.X\source\ebb.c
                  __pa_67   0x0067b6    program     static C:\Projects\EggBot2-GH\EBB_firmware\app.X\source\UBW.c
                  __pa_68   0x003af4    program     static C:\Projects\EggBot2-GH\EBB_firmware\app.X\source\ebb.c
                  __pa_68   0x0067ba    program     static C:\Projects\EggBot2-GH\EBB_firmware\app.X\source\UBW.c
                  __pa_69   0x003b10    program     static C:\Projects\EggBot2-GH\EBB_firmware\app.X\source\ebb.c
                  __pa_69   0x0067c4    program     static C:\Projects\EggBot2-GH\EBB_firmware\app.X\source\UBW.c
                   __pa_7   0x007518    program     static C:\Projects\EggBot2-GH\EBB_firmware\Microchip\USB\usb_device.c
                   __pa_7   0x009af6    program     static C:\Projects\EggBot2-GH\EBB_firmware\app.X\source\RCServo2.c
                   __pa_7   0x009352    program     static E:\c18v3.46\pic18-lt\cxx-framework\src\traditional\stdclib\sqrt.c
                   __pa_7   0x0080ce    program     static E:\c18v3.46\pic18-lt\cxx-framework\src\traditional\stdclib\vfprintf.c
                   __pa_7   0x0064da    program     static C:\Projects\EggBot2-GH\EBB_firmware\app.X\source\UBW.c
                   __pa_7   0x003640    program     static C:\Projects\EggBot2-GH\EBB_firmware\app.X\source\ebb.c
                   __pa_7   0x00970a    program     static C:\Projects\EggBot2-GH\EBB_firmware\Microchip\USB\CDC Device Driver\usb_function_cdc.c
                  __pa_70   0x003b2c    program     static C:\Projects\EggBot2-GH\EBB_firmware\app.X\source\ebb.c
                  __pa_70   0x0067ca    program     static C:\Projects\EggBot2-GH\EBB_firmware\app.X\source\UBW.c
                  __pa_71   0x003b42    program     static C:\Projects\EggBot2-GH\EBB_firmware\app.X\source\ebb.c
                  __pa_71   0x0067d6    program     static C:\Projects\EggBot2-GH\EBB_firmware\app.X\source\UBW.c
                  __pa_72   0x003b4e    program     static C:\Projects\EggBot2-GH\EBB_firmware\app.X\source\ebb.c
                  __pa_72   0x0067e0    program     static C:\Projects\EggBot2-GH\EBB_firmware\app.X\source\UBW.c
                  __pa_73   0x003b68    program     static C:\Projects\EggBot2-GH\EBB_firmware\app.X\source\ebb.c
                  __pa_73   0x0067ec    program     static C:\Projects\EggBot2-GH\EBB_firmware\app.X\source\UBW.c
                  __pa_74   0x003b82    program     static C:\Projects\EggBot2-GH\EBB_firmware\app.X\source\ebb.c
                  __pa_74   0x0067f4    program     static C:\Projects\EggBot2-GH\EBB_firmware\app.X\source\UBW.c
                  __pa_75   0x006800    program     static C:\Projects\EggBot2-GH\EBB_firmware\app.X\source\UBW.c
                  __pa_75   0x003b9c    program     static C:\Projects\EggBot2-GH\EBB_firmware\app.X\source\ebb.c
                  __pa_76   0x00680a    program     static C:\Projects\EggBot2-GH\EBB_firmware\app.X\source\UBW.c
                  __pa_76   0x003bb6    program     static C:\Projects\EggBot2-GH\EBB_firmware\app.X\source\ebb.c
                  __pa_77   0x003bd0    program     static C:\Projects\EggBot2-GH\EBB_firmware\app.X\source\ebb.c
                  __pa_77   0x006812    program     static C:\Projects\EggBot2-GH\EBB_firmware\app.X\source\UBW.c
                  __pa_78   0x006820    program     static C:\Projects\EggBot2-GH\EBB_firmware\app.X\source\UBW.c
                  __pa_78   0x003bea    program     static C:\Projects\EggBot2-GH\EBB_firmware\app.X\source\ebb.c
                  __pa_79   0x003bf4    program     static C:\Projects\EggBot2-GH\EBB_firmware\app.X\source\ebb.c
                  __pa_79   0x00682a    program     static C:\Projects\EggBot2-GH\EBB_firmware\app.X\source\UBW.c
                   __pa_8   0x0064e4    program     static C:\Projects\EggBot2-GH\EBB_firmware\app.X\source\UBW.c
                   __pa_8   0x00935a    program     static E:\c18v3.46\pic18-lt\cxx-framework\src\traditional\stdclib\sqrt.c
                   __pa_8   0x0080da    program     static E:\c18v3.46\pic18-lt\cxx-framework\src\traditional\stdclib\vfprintf.c
                   __pa_8   0x009710    program     static C:\Projects\EggBot2-GH\EBB_firmware\Microchip\USB\CDC Device Driver\usb_function_cdc.c
                   __pa_8   0x009afa    program     static C:\Projects\EggBot2-GH\EBB_firmware\app.X\source\RCServo2.c
                   __pa_8   0x007528    program     static C:\Projects\EggBot2-GH\EBB_firmware\Microchip\USB\usb_device.c
                   __pa_8   0x00365a    program     static C:\Projects\EggBot2-GH\EBB_firmware\app.X\source\ebb.c
                  __pa_80   0x003c00    program     static C:\Projects\EggBot2-GH\EBB_firmware\app.X\source\ebb.c
                  __pa_80   0x006834    program     static C:\Projects\EggBot2-GH\EBB_firmware\app.X\source\UBW.c
                  __pa_81   0x003c0c    program     static C:\Projects\EggBot2-GH\EBB_firmware\app.X\source\ebb.c
                  __pa_81   0x00683c    program     static C:\Projects\EggBot2-GH\EBB_firmware\app.X\source\UBW.c
                  __pa_82   0x006846    program     static C:\Projects\EggBot2-GH\EBB_firmware\app.X\source\UBW.c
                  __pa_82   0x003c1a    program     static C:\Projects\EggBot2-GH\EBB_firmware\app.X\source\ebb.c
                  __pa_83   0x003c28    program     static C:\Projects\EggBot2-GH\EBB_firmware\app.X\source\ebb.c
                  __pa_83   0x006854    program     static C:\Projects\EggBot2-GH\EBB_firmware\app.X\source\UBW.c
                  __pa_84   0x003c3c    program     static C:\Projects\EggBot2-GH\EBB_firmware\app.X\source\ebb.c
                  __pa_84   0x006860    program     static C:\Projects\EggBot2-GH\EBB_firmware\app.X\source\UBW.c
                  __pa_85   0x00686a    program     static C:\Projects\EggBot2-GH\EBB_firmware\app.X\source\UBW.c
                  __pa_85   0x003c50    program     static C:\Projects\EggBot2-GH\EBB_firmware\app.X\source\ebb.c
                  __pa_86   0x006876    program     static C:\Projects\EggBot2-GH\EBB_firmware\app.X\source\UBW.c
                  __pa_86   0x003c64    program     static C:\Projects\EggBot2-GH\EBB_firmware\app.X\source\ebb.c
                  __pa_87   0x006880    program     static C:\Projects\EggBot2-GH\EBB_firmware\app.X\source\UBW.c
                  __pa_87   0x003c78    program     static C:\Projects\EggBot2-GH\EBB_firmware\app.X\source\ebb.c
                  __pa_88   0x00688e    program     static C:\Projects\EggBot2-GH\EBB_firmware\app.X\source\UBW.c
                  __pa_88   0x003c86    program     static C:\Projects\EggBot2-GH\EBB_firmware\app.X\source\ebb.c
                  __pa_89   0x00689a    program     static C:\Projects\EggBot2-GH\EBB_firmware\app.X\source\UBW.c
                  __pa_89   0x003c8e    program     static C:\Projects\EggBot2-GH\EBB_firmware\app.X\source\ebb.c
                   __pa_9   0x009364    program     static E:\c18v3.46\pic18-lt\cxx-framework\src\traditional\stdclib\sqrt.c
                   __pa_9   0x009b04    program     static C:\Projects\EggBot2-GH\EBB_firmware\app.X\source\RCServo2.c
                   __pa_9   0x0080fc    program     static E:\c18v3.46\pic18-lt\cxx-framework\src\traditional\stdclib\vfprintf.c
                   __pa_9   0x007532    program     static C:\Projects\EggBot2-GH\EBB_firmware\Microchip\USB\usb_device.c
                   __pa_9   0x003662    program     static C:\Projects\EggBot2-GH\EBB_firmware\app.X\source\ebb.c
                   __pa_9   0x00971e    program     static C:\Projects\EggBot2-GH\EBB_firmware\Microchip\USB\CDC Device Driver\usb_function_cdc.c
                   __pa_9   0x0064ea    program     static C:\Projects\EggBot2-GH\EBB_firmware\app.X\source\UBW.c
                  __pa_90   0x003c9e    program     static C:\Projects\EggBot2-GH\EBB_firmware\app.X\source\ebb.c
                  __pa_90   0x0068a6    program     static C:\Projects\EggBot2-GH\EBB_firmware\app.X\source\UBW.c
                  __pa_91   0x0068ae    program     static C:\Projects\EggBot2-GH\EBB_firmware\app.X\source\UBW.c
                  __pa_91   0x003cb0    program     static C:\Projects\EggBot2-GH\EBB_firmware\app.X\source\ebb.c
                  __pa_92   0x0068b8    program     static C:\Projects\EggBot2-GH\EBB_firmware\app.X\source\UBW.c
                  __pa_92   0x003cbc    program     static C:\Projects\EggBot2-GH\EBB_firmware\app.X\source\ebb.c
                  __pa_93   0x0068c0    program     static C:\Projects\EggBot2-GH\EBB_firmware\app.X\source\UBW.c
                  __pa_93   0x003cce    program     static C:\Projects\EggBot2-GH\EBB_firmware\app.X\source\ebb.c
                  __pa_94   0x0068c8    program     static C:\Projects\EggBot2-GH\EBB_firmware\app.X\source\UBW.c
                  __pa_94   0x003cd6    program     static C:\Projects\EggBot2-GH\EBB_firmware\app.X\source\ebb.c
                  __pa_95   0x0068d0    program     static C:\Projects\EggBot2-GH\EBB_firmware\app.X\source\UBW.c
                  __pa_95   0x003ce0    program     static C:\Projects\EggBot2-GH\EBB_firmware\app.X\source\ebb.c
                  __pa_96   0x0068d8    program     static C:\Projects\EggBot2-GH\EBB_firmware\app.X\source\UBW.c
                  __pa_96   0x003ce8    program     static C:\Projects\EggBot2-GH\EBB_firmware\app.X\source\ebb.c
                  __pa_97   0x0068e2    program     static C:\Projects\EggBot2-GH\EBB_firmware\app.X\source\UBW.c
                  __pa_97   0x003cf2    program     static C:\Projects\EggBot2-GH\EBB_firmware\app.X\source\ebb.c
                  __pa_98   0x0068ea    program     static C:\Projects\EggBot2-GH\EBB_firmware\app.X\source\UBW.c
                  __pa_98   0x003d02    program     static C:\Projects\EggBot2-GH\EBB_firmware\app.X\source\ebb.c
                  __pa_99   0x003d0a    program     static C:\Projects\EggBot2-GH\EBB_firmware\app.X\source\ebb.c
                  __pa_99   0x0068f2    program     static C:\Projects\EggBot2-GH\EBB_firmware\app.X\source\UBW.c
               __string_0   0x00871c    program     static C:\Projects\EggBot2-GH\EBB_firmware\app.X\source\ebb.c
               __string_1   0x0086ee    program     static C:\Projects\EggBot2-GH\EBB_firmware\app.X\source\ebb.c
               __string_1   0x008944    program     static C:\Projects\EggBot2-GH\EBB_firmware\app.X\source\UBW.c
              __string_10   0x0088b6    program     static C:\Projects\EggBot2-GH\EBB_firmware\app.X\source\UBW.c
              __string_10   0x008561    program     static C:\Projects\EggBot2-GH\EBB_firmware\app.X\source\ebb.c
              __string_11   0x008895    program     static C:\Projects\EggBot2-GH\EBB_firmware\app.X\source\UBW.c
              __string_11   0x008531    program     static C:\Projects\EggBot2-GH\EBB_firmware\app.X\source\ebb.c
              __string_12   0x00887c    program     static C:\Projects\EggBot2-GH\EBB_firmware\app.X\source\UBW.c
              __string_12   0x00850b    program     static C:\Projects\EggBot2-GH\EBB_firmware\app.X\source\ebb.c
              __string_13   0x008859    program     static C:\Projects\EggBot2-GH\EBB_firmware\app.X\source\UBW.c
              __string_13   0x0084db    program     static C:\Projects\EggBot2-GH\EBB_firmware\app.X\source\ebb.c
              __string_14   0x0084a8    program     static C:\Projects\EggBot2-GH\EBB_firmware\app.X\source\ebb.c
              __string_14   0x008831    program     static C:\Projects\EggBot2-GH\EBB_firmware\app.X\source\UBW.c
              __string_15   0x008475    program     static C:\Projects\EggBot2-GH\EBB_firmware\app.X\source\ebb.c
              __string_15   0x008829    program     static C:\Projects\EggBot2-GH\EBB_firmware\app.X\source\UBW.c
              __string_16   0x008440    program     static C:\Projects\EggBot2-GH\EBB_firmware\app.X\source\ebb.c
              __string_16   0x00880c    program     static C:\Projects\EggBot2-GH\EBB_firmware\app.X\source\UBW.c
              __string_17   0x008415    program     static C:\Projects\EggBot2-GH\EBB_firmware\app.X\source\ebb.c
              __string_17   0x00880a    program     static C:\Projects\EggBot2-GH\EBB_firmware\app.X\source\UBW.c
              __string_18   0x0083e0    program     static C:\Projects\EggBot2-GH\EBB_firmware\app.X\source\ebb.c
              __string_18   0x0087ff    program     static C:\Projects\EggBot2-GH\EBB_firmware\app.X\source\UBW.c
              __string_19   0x0083b5    program     static C:\Projects\EggBot2-GH\EBB_firmware\app.X\source\ebb.c
              __string_19   0x0087f5    program     static C:\Projects\EggBot2-GH\EBB_firmware\app.X\source\UBW.c
               __string_2   0x0086c4    program     static C:\Projects\EggBot2-GH\EBB_firmware\app.X\source\ebb.c
              __string_20   0x0087ec    program     static C:\Projects\EggBot2-GH\EBB_firmware\app.X\source\UBW.c
              __string_20   0x0083a0    program     static C:\Projects\EggBot2-GH\EBB_firmware\app.X\source\ebb.c
              __string_21   0x00839b    program     static C:\Projects\EggBot2-GH\EBB_firmware\app.X\source\ebb.c
              __string_21   0x0087e6    program     static C:\Projects\EggBot2-GH\EBB_firmware\app.X\source\UBW.c
              __string_22   0x008392    program     static C:\Projects\EggBot2-GH\EBB_firmware\app.X\source\ebb.c
              __string_22   0x0087da    program     static C:\Projects\EggBot2-GH\EBB_firmware\app.X\source\UBW.c
              __string_23   0x00838b    program     static C:\Projects\EggBot2-GH\EBB_firmware\app.X\source\ebb.c
              __string_23   0x0087ce    program     static C:\Projects\EggBot2-GH\EBB_firmware\app.X\source\UBW.c
              __string_24   0x0087c2    program     static C:\Projects\EggBot2-GH\EBB_firmware\app.X\source\UBW.c
              __string_24   0x008385    program     static C:\Projects\EggBot2-GH\EBB_firmware\app.X\source\ebb.c
              __string_25   0x008379    program     static C:\Projects\EggBot2-GH\EBB_firmware\app.X\source\ebb.c
              __string_25   0x0087b6    program     static C:\Projects\EggBot2-GH\EBB_firmware\app.X\source\UBW.c
              __string_26   0x008370    program     static C:\Projects\EggBot2-GH\EBB_firmware\app.X\source\ebb.c
              __string_26   0x0087a9    program     static C:\Projects\EggBot2-GH\EBB_firmware\app.X\source\UBW.c
              __string_27   0x008364    program     static C:\Projects\EggBot2-GH\EBB_firmware\app.X\source\ebb.c
              __string_27   0x00879c    program     static C:\Projects\EggBot2-GH\EBB_firmware\app.X\source\UBW.c
              __string_28   0x008790    program     static C:\Projects\EggBot2-GH\EBB_firmware\app.X\source\UBW.c
              __string_28   0x00835d    program     static C:\Projects\EggBot2-GH\EBB_firmware\app.X\source\ebb.c
              __string_29   0x00834c    program     static C:\Projects\EggBot2-GH\EBB_firmware\app.X\source\ebb.c
              __string_29   0x008784    program     static C:\Projects\EggBot2-GH\EBB_firmware\app.X\source\UBW.c
               __string_3   0x00869c    program     static C:\Projects\EggBot2-GH\EBB_firmware\app.X\source\ebb.c
               __string_3   0x008938    program     static C:\Projects\EggBot2-GH\EBB_firmware\app.X\source\UBW.c
              __string_30   0x008342    program     static C:\Projects\EggBot2-GH\EBB_firmware\app.X\source\ebb.c
              __string_30   0x00877f    program     static C:\Projects\EggBot2-GH\EBB_firmware\app.X\source\UBW.c
              __string_31   0x008758    program     static C:\Projects\EggBot2-GH\EBB_firmware\app.X\source\UBW.c
              __string_32   0x00874c    program     static C:\Projects\EggBot2-GH\EBB_firmware\app.X\source\UBW.c
               __string_4   0x008935    program     static C:\Projects\EggBot2-GH\EBB_firmware\app.X\source\UBW.c
               __string_4   0x00866e    program     static C:\Projects\EggBot2-GH\EBB_firmware\app.X\source\ebb.c
               __string_5   0x008640    program     static C:\Projects\EggBot2-GH\EBB_firmware\app.X\source\ebb.c
               __string_5   0x008932    program     static C:\Projects\EggBot2-GH\EBB_firmware\app.X\source\UBW.c
               __string_6   0x00892c    program     static C:\Projects\EggBot2-GH\EBB_firmware\app.X\source\UBW.c
               __string_6   0x008615    program     static C:\Projects\EggBot2-GH\EBB_firmware\app.X\source\ebb.c
               __string_7   0x00890d    program     static C:\Projects\EggBot2-GH\EBB_firmware\app.X\source\UBW.c
               __string_7   0x0085ea    program     static C:\Projects\EggBot2-GH\EBB_firmware\app.X\source\ebb.c
               __string_8   0x0088f1    program     static C:\Projects\EggBot2-GH\EBB_firmware\app.X\source\UBW.c
               __string_8   0x0085b7    program     static C:\Projects\EggBot2-GH\EBB_firmware\app.X\source\ebb.c
               __string_9   0x0088d5    program     static C:\Projects\EggBot2-GH\EBB_firmware\app.X\source\UBW.c
               __string_9   0x008587    program     static C:\Projects\EggBot2-GH\EBB_firmware\app.X\source\ebb.c
               __tmplbl_0   0x001110    program     static                          
               __tmplbl_1   0x0011fc    program     static                          
             __tmplbl_127   0x0018ee    program     static                          
             __tmplbl_129   0x0036b4    program     static                          
             __tmplbl_131   0x0036b4    program     static                          
             __tmplbl_134   0x0036b4    program     static                          
             __tmplbl_135   0x0036b4    program     static                          
             __tmplbl_140   0x0036b4    program     static                          
             __tmplbl_141   0x0036b4    program     static                          
             __tmplbl_142   0x0036b4    program     static                          
             __tmplbl_149   0x0064b2    program     static                          
             __tmplbl_151   0x003fee    program     static                          
             __tmplbl_152   0x0040ba    program     static                          
             __tmplbl_153   0x003f86    program     static                          
             __tmplbl_154   0x003eb0    program     static                          
             __tmplbl_155   0x003fee    program     static                          
             __tmplbl_156   0x003fb6    program     static                          
             __tmplbl_162   0x0064b2    program     static                          
             __tmplbl_163   0x0064b2    program     static                          
             __tmplbl_164   0x0064b2    program     static                          
               __tmplbl_2   0x0011ca    program     static                          
             __tmplbl_215   0x0064b2    program     static                          
             __tmplbl_216   0x0067b6    program     static                          
             __tmplbl_217   0x0067b6    program     static                          
             __tmplbl_218   0x0064b2    program     static                          
             __tmplbl_219   0x0064b2    program     static                          
             __tmplbl_220   0x0064b2    program     static                          
             __tmplbl_221   0x0064b2    program     static                          
             __tmplbl_224   0x0067b6    program     static                          
             __tmplbl_225   0x0067b6    program     static                          
             __tmplbl_226   0x0067b6    program     static                          
             __tmplbl_230   0x0067b6    program     static                          
             __tmplbl_231   0x0067b6    program     static                          
             __tmplbl_235   0x0067b6    program     static                          
             __tmplbl_236   0x0064b2    program     static                          
             __tmplbl_237   0x0064b2    program     static                          
             __tmplbl_238   0x0064b2    program     static                          
             __tmplbl_239   0x0064b2    program     static                          
              __tmplbl_24   0x0074e6    program     static                          
               __tmplbl_3   0x001868    program     static                          
              __tmplbl_35   0x0074e6    program     static                          
              __tmplbl_38   0x0074e6    program     static                          
              __tmplbl_39   0x0074e6    program     static                          
               __tmplbl_4   0x001838    program     static                          
              __tmplbl_40   0x0074e6    program     static                          
              __tmplbl_42   0x007664    program     static                          
              __tmplbl_42   0x0081f6    program     static                          
              __tmplbl_43   0x00803e    program     static                          
              __tmplbl_44   0x008024    program     static                          
               __tmplbl_5   0x00189e    program     static                          
               __tmplbl_6   0x001892    program     static                          
               __tmplbl_7   0x001898    program     static                          
              __tmplbl_85   0x007776    program     static                          
            __zero_memory   0x00a750    program     extern E:\c18v3.46\pic18-lt\cxx-framework\src\traditional\proc\p18f46j50.asm
                _do_cinit   0x00a2ac    program     extern C:\MCC18\src\traditional\startup\c018i.c
                   _false   0x00a6e8    program     static                          
                   _reset   0x001000    program     extern C:\Projects\EggBot2-GH\EBB_firmware\app.X\source\main.c
                 _startup   0x00a770    program     extern C:\MCC18\src\traditional\startup\c018i.c
              _usart_putc   0x00a78c    program     extern E:\c18v3.46\pic18-lt\cxx-framework\src\pmc_common\USART\_usartpc.asm
               _user_putc   0x004b1c    program     extern C:\Projects\EggBot2-GH\EBB_firmware\app.X\source\UBW.c
   check_and_send_TX_data   0x004b7a    program     extern C:\Projects\EggBot2-GH\EBB_firmware\app.X\source\UBW.c
       clear_StepCounters   0x00359c    program     extern C:\Projects\EggBot2-GH\EBB_firmware\app.X\source\ebb.c
                compare_l   0x00a766    program     static E:\c18v3.46\pic18-lt\cxx-framework\src\traditional\proc\p18f46j50.asm
        configDescriptor1   0x00a614    program     extern C:\Projects\EggBot2-GH\EBB_firmware\app.X\source\usb_descriptors.c
                copy_loop   0x00a31e    program     static                          
            copy_one_byte   0x00a324    program     static                          
               device_dsc   0x00a602    program     extern C:\Projects\EggBot2-GH\EBB_firmware\app.X\source\usb_descriptors.c
                     done   0x00a348    program     static                          
             done_copying   0x00a332    program     static                          
                  endloop   0x00a74a    program     static                          
            extract_digit   0x00621c    program     extern C:\Projects\EggBot2-GH\EBB_firmware\app.X\source\UBW.c
           extract_number   0x005f82    program     extern C:\Projects\EggBot2-GH\EBB_firmware\app.X\source\UBW.c
           extract_string   0x005efe    program     extern C:\Projects\EggBot2-GH\EBB_firmware\app.X\source\UBW.c
             getsUSBUSART   0x00949e    program     extern C:\Projects\EggBot2-GH\EBB_firmware\Microchip\USB\CDC Device Driver\usb_function_cdc.c
                 high_ISR   0x00105c    program     extern C:\Projects\EggBot2-GH\EBB_firmware\app.X\source\ebb.c
                  isdigit   0x00a682    program     extern E:\c18v3.46\pic18-lt\cxx-framework\src\traditional\stdclib\isdigit.asm
                 jANotInf   0x008b52    program     static E:\c18v3.46\pic18-lt\cxx-framework\src\traditional\math\addFP.asm
                 jANotInf   0x008a6c    program     static E:\c18v3.46\pic18-lt\cxx-framework\src\traditional\math\mulFP.asm
                 jANotInf   0x0089c6    program     static E:\c18v3.46\pic18-lt\cxx-framework\src\traditional\math\divFP.asm
                 jANotNeg   0x008be6    program     static E:\c18v3.46\pic18-lt\cxx-framework\src\traditional\math\addFP.asm
                jANotZero   0x0089da    program     static E:\c18v3.46\pic18-lt\cxx-framework\src\traditional\math\divFP.asm
              jAandWsetup   0x008bb6    program     static E:\c18v3.46\pic18-lt\cxx-framework\src\traditional\math\addFP.asm
                  jAisNeg   0x008eaa    program     static E:\c18v3.46\pic18-lt\cxx-framework\src\traditional\math\compFP.asm
                 jAltBexp   0x008ba4    program     static E:\c18v3.46\pic18-lt\cxx-framework\src\traditional\math\addFP.asm
                jBANotInf   0x008b48    program     static E:\c18v3.46\pic18-lt\cxx-framework\src\traditional\math\addFP.asm
                 jBNotInf   0x008b60    program     static E:\c18v3.46\pic18-lt\cxx-framework\src\traditional\math\addFP.asm
              jBothFinite   0x008a7a    program     static E:\c18v3.46\pic18-lt\cxx-framework\src\traditional\math\mulFP.asm
             jBothNotZero   0x008a86    program     static E:\c18v3.46\pic18-lt\cxx-framework\src\traditional\math\mulFP.asm
             jBothNotZero   0x008e4c    program     static E:\c18v3.46\pic18-lt\cxx-framework\src\traditional\math\compFP.asm
            jDifOrPosSign   0x008b74    program     static E:\c18v3.46\pic18-lt\cxx-framework\src\traditional\math\addFP.asm
                      jEQ   0x008e68    program     static E:\c18v3.46\pic18-lt\cxx-framework\src\traditional\math\compFP.asm
                     jEnd   0x00a37c    program     static E:\c18v3.46\pic18-lt\cxx-framework\src\traditional\stdclib\memset.asm
                     jEnd   0x00a3d0    program     static E:\c18v3.46\pic18-lt\cxx-framework\src\traditional\stdclib\slenpgm.asm
                     jEnd   0x00a398    program     static E:\c18v3.46\pic18-lt\cxx-framework\src\traditional\stdclib\strlen.asm
                    jExch   0x008e74    program     static E:\c18v3.46\pic18-lt\cxx-framework\src\traditional\math\compFP.asm
                    jExit   0x008cc2    program     static E:\c18v3.46\pic18-lt\cxx-framework\src\traditional\math\castFP32.asm
                   jExpEQ   0x008eba    program     static E:\c18v3.46\pic18-lt\cxx-framework\src\traditional\math\compFP.asm
                   jFinal   0x008e9e    program     static E:\c18v3.46\pic18-lt\cxx-framework\src\traditional\math\compFP.asm
               jFinalSign   0x008c4e    program     static E:\c18v3.46\pic18-lt\cxx-framework\src\traditional\math\addFP.asm
                jHaveZero   0x008a82    program     static E:\c18v3.46\pic18-lt\cxx-framework\src\traditional\math\mulFP.asm
                jI2F16Beg   0x00895c    program     static E:\c18v3.46\pic18-lt\cxx-framework\src\traditional\math\cast16FP.asm
                jI2F32Beg   0x00898e    program     static E:\c18v3.46\pic18-lt\cxx-framework\src\traditional\math\cast32FP.asm
                    jLoop   0x00a3b8    program     static E:\c18v3.46\pic18-lt\cxx-framework\src\traditional\stdclib\slenpgm.asm
                    jLoop   0x00a35e    program     static E:\c18v3.46\pic18-lt\cxx-framework\src\traditional\stdclib\memset.asm
                    jLoop   0x008c96    program     static E:\c18v3.46\pic18-lt\cxx-framework\src\traditional\math\castFP32.asm
                    jLoop   0x008a02    program     static E:\c18v3.46\pic18-lt\cxx-framework\src\traditional\math\divFP.asm
                    jLoop   0x00a38e    program     static E:\c18v3.46\pic18-lt\cxx-framework\src\traditional\stdclib\strlen.asm
                jLoopExit   0x008caa    program     static E:\c18v3.46\pic18-lt\cxx-framework\src\traditional\math\castFP32.asm
                   jMatch   0x00a6a2    program     static E:\c18v3.46\pic18-lt\cxx-framework\src\traditional\stdclib\isdigit.asm
                     jMax   0x008c66    program     static E:\c18v3.46\pic18-lt\cxx-framework\src\traditional\math\castFP32.asm
                  jMaxNeg   0x008c78    program     static E:\c18v3.46\pic18-lt\cxx-framework\src\traditional\math\castFP32.asm
                  jMaxPos   0x008c6a    program     static E:\c18v3.46\pic18-lt\cxx-framework\src\traditional\math\castFP32.asm
                      jNE   0x008e6c    program     static E:\c18v3.46\pic18-lt\cxx-framework\src\traditional\math\compFP.asm
                    jNext   0x008a28    program     static E:\c18v3.46\pic18-lt\cxx-framework\src\traditional\math\divFP.asm
                jNoAdjust   0x008a26    program     static E:\c18v3.46\pic18-lt\cxx-framework\src\traditional\math\divFP.asm
                  jNoExch   0x008e94    program     static E:\c18v3.46\pic18-lt\cxx-framework\src\traditional\math\compFP.asm
                 jNoMatch   0x00a680    program     static E:\c18v3.46\pic18-lt\cxx-framework\src\traditional\stdclib\toupper.asm
                 jNoMatch   0x00a6a4    program     static E:\c18v3.46\pic18-lt\cxx-framework\src\traditional\stdclib\isdigit.asm
             jNotBothZero   0x008b78    program     static E:\c18v3.46\pic18-lt\cxx-framework\src\traditional\math\addFP.asm
                  jNotInf   0x008c84    program     static E:\c18v3.46\pic18-lt\cxx-framework\src\traditional\math\castFP32.asm
                  jPkLoop   0x008d0a    program     static E:\c18v3.46\pic18-lt\cxx-framework\src\traditional\math\packFP.asm
             jPkRoundDone   0x008d54    program     static E:\c18v3.46\pic18-lt\cxx-framework\src\traditional\math\packFP.asm
               jPkRoundIt   0x008d3c    program     static E:\c18v3.46\pic18-lt\cxx-framework\src\traditional\math\packFP.asm
             jPkShiftDone   0x008d26    program     static E:\c18v3.46\pic18-lt\cxx-framework\src\traditional\math\packFP.asm
           jReturnPosInf0   0x008ce0    program     static E:\c18v3.46\pic18-lt\cxx-framework\src\traditional\math\packFP.asm
                  jRotate   0x008ec6    program     static E:\c18v3.46\pic18-lt\cxx-framework\src\traditional\math\compFP.asm
                   jShift   0x008eb0    program     static E:\c18v3.46\pic18-lt\cxx-framework\src\traditional\math\compFP.asm
               jShiftDone   0x008c0e    program     static E:\c18v3.46\pic18-lt\cxx-framework\src\traditional\math\addFP.asm
               jShiftLoop   0x008c00    program     static E:\c18v3.46\pic18-lt\cxx-framework\src\traditional\math\addFP.asm
                jSignDone   0x008c3e    program     static E:\c18v3.46\pic18-lt\cxx-framework\src\traditional\math\addFP.asm
              jSignedZero   0x0089d0    program     static E:\c18v3.46\pic18-lt\cxx-framework\src\traditional\math\divFP.asm
                 jSignsEQ   0x008e50    program     static E:\c18v3.46\pic18-lt\cxx-framework\src\traditional\math\compFP.asm
                  jUnpkA1   0x008d7e    program     static E:\c18v3.46\pic18-lt\cxx-framework\src\traditional\math\UnpackFP.asm
                  jUnpkA2   0x008d96    program     static E:\c18v3.46\pic18-lt\cxx-framework\src\traditional\math\UnpackFP.asm
                 jUnpkANZ   0x008d8c    program     static E:\c18v3.46\pic18-lt\cxx-framework\src\traditional\math\UnpackFP.asm
                  jUnpkB1   0x008dae    program     static E:\c18v3.46\pic18-lt\cxx-framework\src\traditional\math\UnpackFP.asm
                  jUnpkB2   0x008dc6    program     static E:\c18v3.46\pic18-lt\cxx-framework\src\traditional\math\UnpackFP.asm
                 jUnpkBNZ   0x008dbc    program     static E:\c18v3.46\pic18-lt\cxx-framework\src\traditional\math\UnpackFP.asm
                 jUnpkNaN   0x008da0    program     static E:\c18v3.46\pic18-lt\cxx-framework\src\traditional\math\UnpackFP.asm
                 jWNotNeg   0x008bfa    program     static E:\c18v3.46\pic18-lt\cxx-framework\src\traditional\math\addFP.asm
                   jWr123   0x008c70    program     static E:\c18v3.46\pic18-lt\cxx-framework\src\traditional\math\castFP32.asm
                  jWrZ123   0x008c80    program     static E:\c18v3.46\pic18-lt\cxx-framework\src\traditional\math\castFP32.asm
                    jZero   0x008c7e    program     static E:\c18v3.46\pic18-lt\cxx-framework\src\traditional\math\castFP32.asm
               jZero1and2   0x008ce4    program     static E:\c18v3.46\pic18-lt\cxx-framework\src\traditional\math\packFP.asm
                    ldexp   0x009e46    program     extern E:\c18v3.46\pic18-lt\cxx-framework\src\traditional\stdclib\ldexp.c
                     loop   0x00a6b4    program     static                          
                     loop   0x00a79c    program     static E:\c18v3.46\pic18-lt\cxx-framework\src\pmc_common\USART\_usartpc.asm
                     loop   0x00a72e    program     static                          
                     loop   0x00a780    program     static                          
                   loop_h   0x00a75e    program     static E:\c18v3.46\pic18-lt\cxx-framework\src\traditional\proc\p18f46j50.asm
                   loop_l   0x00a768    program     static E:\c18v3.46\pic18-lt\cxx-framework\src\traditional\proc\p18f46j50.asm
                  low_ISR   0x0041ee    program     extern C:\Projects\EggBot2-GH\EBB_firmware\app.X\source\UBW.c
                     main   0x009cfe    program     extern C:\Projects\EggBot2-GH\EBB_firmware\app.X\source\main.c
                   memset   0x00a34a    program     extern E:\c18v3.46\pic18-lt\cxx-framework\src\traditional\stdclib\memset.asm
          parse_AC_packet   0x0053be    program     extern C:\Projects\EggBot2-GH\EBB_firmware\app.X\source\UBW.c
          parse_AM_packet   0x001d6a    program     extern C:\Projects\EggBot2-GH\EBB_firmware\app.X\source\ebb.c
           parse_A_packet   0x005492    program     extern C:\Projects\EggBot2-GH\EBB_firmware\app.X\source\UBW.c
          parse_BC_packet   0x0059c8    program     extern C:\Projects\EggBot2-GH\EBB_firmware\app.X\source\UBW.c
          parse_BL_packet   0x005b02    program     extern C:\Projects\EggBot2-GH\EBB_firmware\app.X\source\UBW.c
          parse_BO_packet   0x0059cc    program     extern C:\Projects\EggBot2-GH\EBB_firmware\app.X\source\UBW.c
          parse_BS_packet   0x0059d0    program     extern C:\Projects\EggBot2-GH\EBB_firmware\app.X\source\UBW.c
          parse_CI_packet   0x0059e4    program     extern C:\Projects\EggBot2-GH\EBB_firmware\app.X\source\UBW.c
          parse_CK_packet   0x005bb2    program     extern C:\Projects\EggBot2-GH\EBB_firmware\app.X\source\UBW.c
          parse_CS_packet   0x0035b4    program     extern C:\Projects\EggBot2-GH\EBB_firmware\app.X\source\ebb.c
          parse_CU_packet   0x00516c    program     extern C:\Projects\EggBot2-GH\EBB_firmware\app.X\source\UBW.c
          parse_CX_packet   0x0058dc    program     extern C:\Projects\EggBot2-GH\EBB_firmware\app.X\source\UBW.c
           parse_C_packet   0x00528e    program     extern C:\Projects\EggBot2-GH\EBB_firmware\app.X\source\UBW.c
          parse_EM_packet   0x00303e    program     extern C:\Projects\EggBot2-GH\EBB_firmware\app.X\source\ebb.c
          parse_ES_packet   0x002ed0    program     extern C:\Projects\EggBot2-GH\EBB_firmware\app.X\source\ebb.c
          parse_HM_packet   0x00255a    program     extern C:\Projects\EggBot2-GH\EBB_firmware\app.X\source\ebb.c
           parse_I_packet   0x00544e    program     extern C:\Projects\EggBot2-GH\EBB_firmware\app.X\source\UBW.c
          parse_LM_packet   0x002260    program     extern C:\Projects\EggBot2-GH\EBB_firmware\app.X\source\ebb.c
          parse_MR_packet   0x005570    program     extern C:\Projects\EggBot2-GH\EBB_firmware\app.X\source\UBW.c
          parse_MW_packet   0x00554c    program     extern C:\Projects\EggBot2-GH\EBB_firmware\app.X\source\UBW.c
          parse_ND_packet   0x00313e    program     extern C:\Projects\EggBot2-GH\EBB_firmware\app.X\source\ebb.c
          parse_NI_packet   0x00311c    program     extern C:\Projects\EggBot2-GH\EBB_firmware\app.X\source\ebb.c
           parse_O_packet   0x0053ec    program     extern C:\Projects\EggBot2-GH\EBB_firmware\app.X\source\UBW.c
          parse_PC_packet   0x0059e8    program     extern C:\Projects\EggBot2-GH\EBB_firmware\app.X\source\UBW.c
          parse_PD_packet   0x0055ac    program     extern C:\Projects\EggBot2-GH\EBB_firmware\app.X\source\UBW.c
          parse_PG_packet   0x005a98    program     extern C:\Projects\EggBot2-GH\EBB_firmware\app.X\source\UBW.c
          parse_PI_packet   0x0056d6    program     extern C:\Projects\EggBot2-GH\EBB_firmware\app.X\source\UBW.c
          parse_PO_packet   0x0057aa    program     extern C:\Projects\EggBot2-GH\EBB_firmware\app.X\source\UBW.c
          parse_QB_packet   0x0031fa    program     extern C:\Projects\EggBot2-GH\EBB_firmware\app.X\source\ebb.c
          parse_QC_packet   0x003224    program     extern C:\Projects\EggBot2-GH\EBB_firmware\app.X\source\ebb.c
          parse_QG_packet   0x00324c    program     extern C:\Projects\EggBot2-GH\EBB_firmware\app.X\source\ebb.c
          parse_QL_packet   0x0031d6    program     extern C:\Projects\EggBot2-GH\EBB_firmware\app.X\source\ebb.c
          parse_QM_packet   0x0034ba    program     extern C:\Projects\EggBot2-GH\EBB_firmware\app.X\source\ebb.c
          parse_QN_packet   0x003198    program     extern C:\Projects\EggBot2-GH\EBB_firmware\app.X\source\ebb.c
          parse_QP_packet   0x002eda    program     extern C:\Projects\EggBot2-GH\EBB_firmware\app.X\source\ebb.c
          parse_QR_packet   0x005b20    program     extern C:\Projects\EggBot2-GH\EBB_firmware\app.X\source\UBW.c
          parse_QS_packet   0x003530    program     extern C:\Projects\EggBot2-GH\EBB_firmware\app.X\source\ebb.c
          parse_QT_packet   0x005e7a    program     extern C:\Projects\EggBot2-GH\EBB_firmware\app.X\source\UBW.c
          parse_RB_packet   0x005b12    program     extern C:\Projects\EggBot2-GH\EBB_firmware\app.X\source\UBW.c
          parse_RC_packet   0x0058e0    program     extern C:\Projects\EggBot2-GH\EBB_firmware\app.X\source\UBW.c
          parse_RI_packet   0x0059e0    program     extern C:\Projects\EggBot2-GH\EBB_firmware\app.X\source\UBW.c
          parse_RM_packet   0x00342e    program     extern C:\Projects\EggBot2-GH\EBB_firmware\app.X\source\ebb.c
          parse_RS_packet   0x0059d8    program     extern C:\Projects\EggBot2-GH\EBB_firmware\app.X\source\UBW.c
          parse_RX_packet   0x0058d8    program     extern C:\Projects\EggBot2-GH\EBB_firmware\app.X\source\UBW.c
           parse_R_packet   0x005164    program     extern C:\Projects\EggBot2-GH\EBB_firmware\app.X\source\UBW.c
          parse_SC_packet   0x001be0    program     extern C:\Projects\EggBot2-GH\EBB_firmware\app.X\source\ebb.c
          parse_SE_packet   0x0032fa    program     extern C:\Projects\EggBot2-GH\EBB_firmware\app.X\source\ebb.c
          parse_SI_packet   0x0059dc    program     extern C:\Projects\EggBot2-GH\EBB_firmware\app.X\source\UBW.c
          parse_SL_packet   0x0031bc    program     extern C:\Projects\EggBot2-GH\EBB_firmware\app.X\source\ebb.c
          parse_SM_packet   0x00242c    program     extern C:\Projects\EggBot2-GH\EBB_firmware\app.X\source\ebb.c
          parse_SN_packet   0x003158    program     extern C:\Projects\EggBot2-GH\EBB_firmware\app.X\source\ebb.c
          parse_SP_packet   0x002f3e    program     extern C:\Projects\EggBot2-GH\EBB_firmware\app.X\source\ebb.c
          parse_SR_packet   0x005b44    program     extern C:\Projects\EggBot2-GH\EBB_firmware\app.X\source\UBW.c
          parse_SS_packet   0x0059d4    program     extern C:\Projects\EggBot2-GH\EBB_firmware\app.X\source\UBW.c
          parse_ST_packet   0x005df0    program     extern C:\Projects\EggBot2-GH\EBB_firmware\app.X\source\UBW.c
          parse_TP_packet   0x002f00    program     extern C:\Projects\EggBot2-GH\EBB_firmware\app.X\source\ebb.c
          parse_TX_packet   0x0058d4    program     extern C:\Projects\EggBot2-GH\EBB_firmware\app.X\source\UBW.c
           parse_T_packet   0x005236    program     extern C:\Projects\EggBot2-GH\EBB_firmware\app.X\source\UBW.c
           parse_V_packet   0x005488    program     extern C:\Projects\EggBot2-GH\EBB_firmware\app.X\source\UBW.c
          parse_XM_packet   0x0028a4    program     extern C:\Projects\EggBot2-GH\EBB_firmware\app.X\source\ebb.c
             parse_packet   0x004bc6    program     extern C:\Projects\EggBot2-GH\EBB_firmware\app.X\source\UBW.c
populateDeviceStringWithName   0x005d22    program     extern C:\Projects\EggBot2-GH\EBB_firmware\app.X\source\UBW.c
                  pow2x16   0x00a7a8    program     extern E:\c18v3.46\pic18-lt\cxx-framework\src\traditional\math\pow2x16.c
                print_ack   0x005152    program     extern C:\Projects\EggBot2-GH\EBB_firmware\app.X\source\UBW.c
             print_status   0x0062de    program     extern C:\Projects\EggBot2-GH\EBB_firmware\app.X\source\UBW.c
                   printf   0x00a3e4    program     extern E:\c18v3.46\pic18-lt\cxx-framework\src\traditional\stdclib\printf.c
            process_EStop   0x002e64    program     extern C:\Projects\EggBot2-GH\EBB_firmware\app.X\source\ebb.c
               process_QM   0x003430    program     extern C:\Projects\EggBot2-GH\EBB_firmware\app.X\source\ebb.c
               process_SM   0x0029ea    program     static C:\Projects\EggBot2-GH\EBB_firmware\app.X\source\ebb.c
               process_SP   0x002fc2    program     extern C:\Projects\EggBot2-GH\EBB_firmware\app.X\source\ebb.c
              putUSBUSART   0x009524    program     extern C:\Projects\EggBot2-GH\EBB_firmware\Microchip\USB\CDC Device Driver\usb_function_cdc.c
                     putc   0x00a50e    program     extern E:\c18v3.46\pic18-lt\cxx-framework\src\traditional\stdclib\putc.c
            putrsUSBUSART   0x009576    program     extern C:\Projects\EggBot2-GH\EBB_firmware\Microchip\USB\CDC Device Driver\usb_function_cdc.c
             putsUSBUSART   0x00953c    program     extern C:\Projects\EggBot2-GH\EBB_firmware\Microchip\USB\CDC Device Driver\usb_function_cdc.c
                 s_digits   0x00a7be    program     static E:\c18v3.46\pic18-lt\cxx-framework\src\traditional\stdclib\vfprintf.c
            s_put_n_chars   0x007720    program     static E:\c18v3.46\pic18-lt\cxx-framework\src\traditional\stdclib\vfprintf.c
                     sqrt   0x008f32    program     extern E:\c18v3.46\pic18-lt\cxx-framework\src\traditional\stdclib\sqrt.c
                  st_LFCR   0x00a6f3    program     extern C:\Projects\EggBot2-GH\EBB_firmware\app.X\source\UBW.c
                    st_OK   0x00a6ee    program     extern C:\Projects\EggBot2-GH\EBB_firmware\app.X\source\UBW.c
               st_version   0x00a6f6    program     extern C:\Projects\EggBot2-GH\EBB_firmware\app.X\source\UBW.c
                   strlen   0x00a37e    program     extern E:\c18v3.46\pic18-lt\cxx-framework\src\traditional\stdclib\strlen.asm
                strlenpgm   0x00a39a    program     extern E:\c18v3.46\pic18-lt\cxx-framework\src\traditional\stdclib\slenpgm.asm
                     test   0x00a2c6    program     static                          
                  toupper   0x00a65a    program     extern E:\c18v3.46\pic18-lt\cxx-framework\src\traditional\stdclib\toupper.asm
                 vfprintf   0x00774c    program     extern E:\c18v3.46\pic18-lt\cxx-framework\src\traditional\stdclib\vfprintf.c
               zero_block   0x00a75e    program     static E:\c18v3.46\pic18-lt\cxx-framework\src\traditional\proc\p18f46j50.asm
                   ADCON0   0x000fc2       data     extern E:\c18v3.46\pic18-lt\cxx-framework\src\traditional\proc\p18f46j50.asm
               ADCON0bits   0x000fc2       data     extern E:\c18v3.46\pic18-lt\cxx-framework\src\traditional\proc\p18f46j50.asm
                   ADCON1   0x000fc1       data     extern E:\c18v3.46\pic18-lt\cxx-framework\src\traditional\proc\p18f46j50.asm
               ADCON1bits   0x000fc1       data     extern E:\c18v3.46\pic18-lt\cxx-framework\src\traditional\proc\p18f46j50.asm
                    ADRES   0x000fc3       data     extern E:\c18v3.46\pic18-lt\cxx-framework\src\traditional\proc\p18f46j50.asm
                   ADRESH   0x000fc4       data     extern E:\c18v3.46\pic18-lt\cxx-framework\src\traditional\proc\p18f46j50.asm
                   ADRESL   0x000fc3       data     extern E:\c18v3.46\pic18-lt\cxx-framework\src\traditional\proc\p18f46j50.asm
                  ALRMCFG   0x000f91       data     extern E:\c18v3.46\pic18-lt\cxx-framework\src\traditional\proc\p18f46j50.asm
              ALRMCFGbits   0x000f91       data     extern E:\c18v3.46\pic18-lt\cxx-framework\src\traditional\proc\p18f46j50.asm
                  ALRMRPT   0x000f90       data     extern E:\c18v3.46\pic18-lt\cxx-framework\src\traditional\proc\p18f46j50.asm
              ALRMRPTbits   0x000f90       data     extern E:\c18v3.46\pic18-lt\cxx-framework\src\traditional\proc\p18f46j50.asm
                 ALRMVALH   0x000f8f       data     extern E:\c18v3.46\pic18-lt\cxx-framework\src\traditional\proc\p18f46j50.asm
                 ALRMVALL   0x000f8e       data     extern E:\c18v3.46\pic18-lt\cxx-framework\src\traditional\proc\p18f46j50.asm
                   ANCON0   0x000f48       data     extern E:\c18v3.46\pic18-lt\cxx-framework\src\traditional\proc\p18f46j50.asm
               ANCON0bits   0x000f48       data     extern E:\c18v3.46\pic18-lt\cxx-framework\src\traditional\proc\p18f46j50.asm
                   ANCON1   0x000f49       data     extern E:\c18v3.46\pic18-lt\cxx-framework\src\traditional\proc\p18f46j50.asm
               ANCON1bits   0x000f49       data     extern E:\c18v3.46\pic18-lt\cxx-framework\src\traditional\proc\p18f46j50.asm
            A_cur_channel   0x000aaa       data     extern C:\Projects\EggBot2-GH\EBB_firmware\app.X\source\UBW.c
           A_tick_counter   0x000aa8       data     extern C:\Projects\EggBot2-GH\EBB_firmware\app.X\source\UBW.c
                  AllDone   0x000add       data     static C:\Projects\EggBot2-GH\EBB_firmware\app.X\source\ebb.c
    AnalogEnabledChannels   0x000aac       data     extern C:\Projects\EggBot2-GH\EBB_firmware\app.X\source\UBW.c
           AnalogInitiate   0x000aab       data     extern C:\Projects\EggBot2-GH\EBB_firmware\app.X\source\UBW.c
                  BAUDCON   0x000f7e       data     extern E:\c18v3.46\pic18-lt\cxx-framework\src\traditional\proc\p18f46j50.asm
                 BAUDCON1   0x000f7e       data     extern E:\c18v3.46\pic18-lt\cxx-framework\src\traditional\proc\p18f46j50.asm
             BAUDCON1bits   0x000f7e       data     extern E:\c18v3.46\pic18-lt\cxx-framework\src\traditional\proc\p18f46j50.asm
                 BAUDCON2   0x000f7c       data     extern E:\c18v3.46\pic18-lt\cxx-framework\src\traditional\proc\p18f46j50.asm
             BAUDCON2bits   0x000f7c       data     extern E:\c18v3.46\pic18-lt\cxx-framework\src\traditional\proc\p18f46j50.asm
              BAUDCONbits   0x000f7e       data     extern E:\c18v3.46\pic18-lt\cxx-framework\src\traditional\proc\p18f46j50.asm
                  BAUDCTL   0x000f7e       data     extern E:\c18v3.46\pic18-lt\cxx-framework\src\traditional\proc\p18f46j50.asm
              BAUDCTLbits   0x000f7e       data     extern E:\c18v3.46\pic18-lt\cxx-framework\src\traditional\proc\p18f46j50.asm
                      BDT   0x000400       data     extern C:\Projects\EggBot2-GH\EBB_firmware\Microchip\USB\usb_device.c
                      BSR   0x000fe0       data     extern E:\c18v3.46\pic18-lt\cxx-framework\src\traditional\proc\p18f46j50.asm
              BaudRateGen   0x000ce7       data     extern C:\Projects\EggBot2-GH\EBB_firmware\Microchip\USB\CDC Device Driver\usb_function_cdc.c
       BothEP0OutUOWNsSet   0x00049f       data     extern C:\Projects\EggBot2-GH\EBB_firmware\Microchip\USB\usb_device.c
             ButtonPushed   0x000aed       data     static C:\Projects\EggBot2-GH\EBB_firmware\app.X\source\ebb.c
                  CCP1CON   0x000fba       data     extern E:\c18v3.46\pic18-lt\cxx-framework\src\traditional\proc\p18f46j50.asm
              CCP1CONbits   0x000fba       data     extern E:\c18v3.46\pic18-lt\cxx-framework\src\traditional\proc\p18f46j50.asm
                  CCP2CON   0x000fb4       data     extern E:\c18v3.46\pic18-lt\cxx-framework\src\traditional\proc\p18f46j50.asm
              CCP2CONbits   0x000fb4       data     extern E:\c18v3.46\pic18-lt\cxx-framework\src\traditional\proc\p18f46j50.asm
                    CCPR1   0x000fbb       data     extern E:\c18v3.46\pic18-lt\cxx-framework\src\traditional\proc\p18f46j50.asm
                   CCPR1H   0x000fbc       data     extern E:\c18v3.46\pic18-lt\cxx-framework\src\traditional\proc\p18f46j50.asm
                   CCPR1L   0x000fbb       data     extern E:\c18v3.46\pic18-lt\cxx-framework\src\traditional\proc\p18f46j50.asm
                    CCPR2   0x000fb5       data     extern E:\c18v3.46\pic18-lt\cxx-framework\src\traditional\proc\p18f46j50.asm
                   CCPR2H   0x000fb6       data     extern E:\c18v3.46\pic18-lt\cxx-framework\src\traditional\proc\p18f46j50.asm
                   CCPR2L   0x000fb5       data     extern E:\c18v3.46\pic18-lt\cxx-framework\src\traditional\proc\p18f46j50.asm
          CDCDataInHandle   0x000ce4       data     extern C:\Projects\EggBot2-GH\EBB_firmware\Microchip\USB\CDC Device Driver\usb_function_cdc.c
         CDCDataOutHandle   0x000ce2       data     extern C:\Projects\EggBot2-GH\EBB_firmware\Microchip\USB\CDC Device Driver\usb_function_cdc.c
                   CM1CON   0x000fd2       data     extern E:\c18v3.46\pic18-lt\cxx-framework\src\traditional\proc\p18f46j50.asm
                  CM1CON1   0x000fd2       data     extern E:\c18v3.46\pic18-lt\cxx-framework\src\traditional\proc\p18f46j50.asm
              CM1CON1bits   0x000fd2       data     extern E:\c18v3.46\pic18-lt\cxx-framework\src\traditional\proc\p18f46j50.asm
               CM1CONbits   0x000fd2       data     extern E:\c18v3.46\pic18-lt\cxx-framework\src\traditional\proc\p18f46j50.asm
                   CM2CON   0x000fd1       data     extern E:\c18v3.46\pic18-lt\cxx-framework\src\traditional\proc\p18f46j50.asm
                  CM2CON1   0x000fd1       data     extern E:\c18v3.46\pic18-lt\cxx-framework\src\traditional\proc\p18f46j50.asm
              CM2CON1bits   0x000fd1       data     extern E:\c18v3.46\pic18-lt\cxx-framework\src\traditional\proc\p18f46j50.asm
               CM2CONbits   0x000fd1       data     extern E:\c18v3.46\pic18-lt\cxx-framework\src\traditional\proc\p18f46j50.asm
                   CMSTAT   0x000f70       data     extern E:\c18v3.46\pic18-lt\cxx-framework\src\traditional\proc\p18f46j50.asm
                 CMSTATUS   0x000f70       data     extern E:\c18v3.46\pic18-lt\cxx-framework\src\traditional\proc\p18f46j50.asm
             CMSTATUSbits   0x000f70       data     extern E:\c18v3.46\pic18-lt\cxx-framework\src\traditional\proc\p18f46j50.asm
               CMSTATbits   0x000f70       data     extern E:\c18v3.46\pic18-lt\cxx-framework\src\traditional\proc\p18f46j50.asm
                 CTMUCONH   0x000fb3       data     extern E:\c18v3.46\pic18-lt\cxx-framework\src\traditional\proc\p18f46j50.asm
             CTMUCONHbits   0x000fb3       data     extern E:\c18v3.46\pic18-lt\cxx-framework\src\traditional\proc\p18f46j50.asm
                 CTMUCONL   0x000fb2       data     extern E:\c18v3.46\pic18-lt\cxx-framework\src\traditional\proc\p18f46j50.asm
             CTMUCONLbits   0x000fb2       data     extern E:\c18v3.46\pic18-lt\cxx-framework\src\traditional\proc\p18f46j50.asm
                 CTMUICON   0x000fb1       data     extern E:\c18v3.46\pic18-lt\cxx-framework\src\traditional\proc\p18f46j50.asm
             CTMUICONbits   0x000fb1       data     extern E:\c18v3.46\pic18-lt\cxx-framework\src\traditional\proc\p18f46j50.asm
                   CVRCON   0x000f53       data     extern E:\c18v3.46\pic18-lt\cxx-framework\src\traditional\proc\p18f46j50.asm
               CVRCONbits   0x000f53       data     extern E:\c18v3.46\pic18-lt\cxx-framework\src\traditional\proc\p18f46j50.asm
               ChannelBit   0x000aae       data     extern C:\Projects\EggBot2-GH\EBB_firmware\app.X\source\UBW.c
              CtrlTrfData   0x000438       data     extern C:\Projects\EggBot2-GH\EBB_firmware\Microchip\USB\usb_device.c
                   DMABCH   0x000f66       data     extern E:\c18v3.46\pic18-lt\cxx-framework\src\traditional\proc\p18f46j50.asm
               DMABCHbits   0x000f66       data     extern E:\c18v3.46\pic18-lt\cxx-framework\src\traditional\proc\p18f46j50.asm
                   DMABCL   0x000f67       data     extern E:\c18v3.46\pic18-lt\cxx-framework\src\traditional\proc\p18f46j50.asm
                  DMACON1   0x000f88       data     extern E:\c18v3.46\pic18-lt\cxx-framework\src\traditional\proc\p18f46j50.asm
              DMACON1bits   0x000f88       data     extern E:\c18v3.46\pic18-lt\cxx-framework\src\traditional\proc\p18f46j50.asm
                  DMACON2   0x000f86       data     extern E:\c18v3.46\pic18-lt\cxx-framework\src\traditional\proc\p18f46j50.asm
              DMACON2bits   0x000f86       data     extern E:\c18v3.46\pic18-lt\cxx-framework\src\traditional\proc\p18f46j50.asm
                   DSCONH   0x000f4d       data     extern E:\c18v3.46\pic18-lt\cxx-framework\src\traditional\proc\p18f46j50.asm
               DSCONHbits   0x000f4d       data     extern E:\c18v3.46\pic18-lt\cxx-framework\src\traditional\proc\p18f46j50.asm
                   DSCONL   0x000f4c       data     extern E:\c18v3.46\pic18-lt\cxx-framework\src\traditional\proc\p18f46j50.asm
               DSCONLbits   0x000f4c       data     extern E:\c18v3.46\pic18-lt\cxx-framework\src\traditional\proc\p18f46j50.asm
                   DSGPR0   0x000f4e       data     extern E:\c18v3.46\pic18-lt\cxx-framework\src\traditional\proc\p18f46j50.asm
                   DSGPR1   0x000f4f       data     extern E:\c18v3.46\pic18-lt\cxx-framework\src\traditional\proc\p18f46j50.asm
                  DSWAKEH   0x000f4b       data     extern E:\c18v3.46\pic18-lt\cxx-framework\src\traditional\proc\p18f46j50.asm
              DSWAKEHbits   0x000f4b       data     extern E:\c18v3.46\pic18-lt\cxx-framework\src\traditional\proc\p18f46j50.asm
                  DSWAKEL   0x000f4a       data     extern E:\c18v3.46\pic18-lt\cxx-framework\src\traditional\proc\p18f46j50.asm
              DSWAKELbits   0x000f4a       data     extern E:\c18v3.46\pic18-lt\cxx-framework\src\traditional\proc\p18f46j50.asm
           D_tick_counter   0x000aa6       data     extern C:\Projects\EggBot2-GH\EBB_firmware\app.X\source\UBW.c
           DemoModeActive   0x000adf       data     extern C:\Projects\EggBot2-GH\EBB_firmware\app.X\source\ebb.c
      DriverConfiguration   0x000ae6       data     static C:\Projects\EggBot2-GH\EBB_firmware\app.X\source\ebb.c
                  ECCP1AS   0x000fbe       data     extern E:\c18v3.46\pic18-lt\cxx-framework\src\traditional\proc\p18f46j50.asm
              ECCP1ASbits   0x000fbe       data     extern E:\c18v3.46\pic18-lt\cxx-framework\src\traditional\proc\p18f46j50.asm
                 ECCP1CON   0x000fba       data     extern E:\c18v3.46\pic18-lt\cxx-framework\src\traditional\proc\p18f46j50.asm
             ECCP1CONbits   0x000fba       data     extern E:\c18v3.46\pic18-lt\cxx-framework\src\traditional\proc\p18f46j50.asm
                 ECCP1DEL   0x000fbd       data     extern E:\c18v3.46\pic18-lt\cxx-framework\src\traditional\proc\p18f46j50.asm
             ECCP1DELbits   0x000fbd       data     extern E:\c18v3.46\pic18-lt\cxx-framework\src\traditional\proc\p18f46j50.asm
                  ECCP2AS   0x000fb8       data     extern E:\c18v3.46\pic18-lt\cxx-framework\src\traditional\proc\p18f46j50.asm
              ECCP2ASbits   0x000fb8       data     extern E:\c18v3.46\pic18-lt\cxx-framework\src\traditional\proc\p18f46j50.asm
                 ECCP2CON   0x000fb4       data     extern E:\c18v3.46\pic18-lt\cxx-framework\src\traditional\proc\p18f46j50.asm
             ECCP2CONbits   0x000fb4       data     extern E:\c18v3.46\pic18-lt\cxx-framework\src\traditional\proc\p18f46j50.asm
                 ECCP2DEL   0x000fb7       data     extern E:\c18v3.46\pic18-lt\cxx-framework\src\traditional\proc\p18f46j50.asm
             ECCP2DELbits   0x000fb7       data     extern E:\c18v3.46\pic18-lt\cxx-framework\src\traditional\proc\p18f46j50.asm
                   EECON1   0x000fa6       data     extern E:\c18v3.46\pic18-lt\cxx-framework\src\traditional\proc\p18f46j50.asm
               EECON1bits   0x000fa6       data     extern E:\c18v3.46\pic18-lt\cxx-framework\src\traditional\proc\p18f46j50.asm
                   EECON2   0x000fa7       data     extern E:\c18v3.46\pic18-lt\cxx-framework\src\traditional\proc\p18f46j50.asm
                FIFODepth   0x000cfe       data     extern C:\Projects\EggBot2-GH\EBB_firmware\app.X\source\ebb.c
                   FIFOIn   0x000cfc       data     extern C:\Projects\EggBot2-GH\EBB_firmware\app.X\source\ebb.c
                  FIFOOut   0x000cfd       data     extern C:\Projects\EggBot2-GH\EBB_firmware\app.X\source\ebb.c
                 FIFOSize   0x000cfb       data     extern C:\Projects\EggBot2-GH\EBB_firmware\app.X\source\ebb.c
             FIFO_Command   0x000c00       data     extern C:\Projects\EggBot2-GH\EBB_firmware\app.X\source\ebb.c
        FIFO_DelayCounter   0x000a00       data     extern C:\Projects\EggBot2-GH\EBB_firmware\app.X\source\ebb.c
             FIFO_DirBits   0x0009c8       data     extern C:\Projects\EggBot2-GH\EBB_firmware\app.X\source\ebb.c
             FIFO_SEPower   0x0008c8       data     extern C:\Projects\EggBot2-GH\EBB_firmware\app.X\source\ebb.c
             FIFO_SEState   0x000c32       data     extern C:\Projects\EggBot2-GH\EBB_firmware\app.X\source\ebb.c
        FIFO_ServoChannel   0x0009e1       data     extern C:\Projects\EggBot2-GH\EBB_firmware\app.X\source\ebb.c
       FIFO_ServoPosition   0x000a64       data     extern C:\Projects\EggBot2-GH\EBB_firmware\app.X\source\ebb.c
            FIFO_ServoRPn   0x000c19       data     extern C:\Projects\EggBot2-GH\EBB_firmware\app.X\source\ebb.c
           FIFO_ServoRate   0x000b00       data     extern C:\Projects\EggBot2-GH\EBB_firmware\app.X\source\ebb.c
             FIFO_StepAdd   0x000800       data     extern C:\Projects\EggBot2-GH\EBB_firmware\app.X\source\ebb.c
          FIFO_StepAddInc   0x000b32       data     extern C:\Projects\EggBot2-GH\EBB_firmware\app.X\source\ebb.c
        FIFO_StepsCounter   0x000900       data     extern C:\Projects\EggBot2-GH\EBB_firmware\app.X\source\ebb.c
                     FSR0   0x000fe9       data     extern E:\c18v3.46\pic18-lt\cxx-framework\src\traditional\proc\p18f46j50.asm
                    FSR0H   0x000fea       data     extern E:\c18v3.46\pic18-lt\cxx-framework\src\traditional\proc\p18f46j50.asm
                    FSR0L   0x000fe9       data     extern E:\c18v3.46\pic18-lt\cxx-framework\src\traditional\proc\p18f46j50.asm
                     FSR1   0x000fe1       data     extern E:\c18v3.46\pic18-lt\cxx-framework\src\traditional\proc\p18f46j50.asm
                    FSR1H   0x000fe2       data     extern E:\c18v3.46\pic18-lt\cxx-framework\src\traditional\proc\p18f46j50.asm
                    FSR1L   0x000fe1       data     extern E:\c18v3.46\pic18-lt\cxx-framework\src\traditional\proc\p18f46j50.asm
                     FSR2   0x000fd9       data     extern E:\c18v3.46\pic18-lt\cxx-framework\src\traditional\proc\p18f46j50.asm
                    FSR2H   0x000fda       data     extern E:\c18v3.46\pic18-lt\cxx-framework\src\traditional\proc\p18f46j50.asm
                    FSR2L   0x000fd9       data     extern E:\c18v3.46\pic18-lt\cxx-framework\src\traditional\proc\p18f46j50.asm
                  HLVDCON   0x000f85       data     extern E:\c18v3.46\pic18-lt\cxx-framework\src\traditional\proc\p18f46j50.asm
              HLVDCONbits   0x000f85       data     extern E:\c18v3.46\pic18-lt\cxx-framework\src\traditional\proc\p18f46j50.asm
                    INDF0   0x000fef       data     extern E:\c18v3.46\pic18-lt\cxx-framework\src\traditional\proc\p18f46j50.asm
                    INDF1   0x000fe7       data     extern E:\c18v3.46\pic18-lt\cxx-framework\src\traditional\proc\p18f46j50.asm
                    INDF2   0x000fdf       data     extern E:\c18v3.46\pic18-lt\cxx-framework\src\traditional\proc\p18f46j50.asm
                   INTCON   0x000ff2       data     extern E:\c18v3.46\pic18-lt\cxx-framework\src\traditional\proc\p18f46j50.asm
                  INTCON2   0x000ff1       data     extern E:\c18v3.46\pic18-lt\cxx-framework\src\traditional\proc\p18f46j50.asm
              INTCON2bits   0x000ff1       data     extern E:\c18v3.46\pic18-lt\cxx-framework\src\traditional\proc\p18f46j50.asm
                  INTCON3   0x000ff0       data     extern E:\c18v3.46\pic18-lt\cxx-framework\src\traditional\proc\p18f46j50.asm
              INTCON3bits   0x000ff0       data     extern E:\c18v3.46\pic18-lt\cxx-framework\src\traditional\proc\p18f46j50.asm
               INTCONbits   0x000ff2       data     extern E:\c18v3.46\pic18-lt\cxx-framework\src\traditional\proc\p18f46j50.asm
                     IPR1   0x000f9f       data     extern E:\c18v3.46\pic18-lt\cxx-framework\src\traditional\proc\p18f46j50.asm
                 IPR1bits   0x000f9f       data     extern E:\c18v3.46\pic18-lt\cxx-framework\src\traditional\proc\p18f46j50.asm
                     IPR2   0x000fa2       data     extern E:\c18v3.46\pic18-lt\cxx-framework\src\traditional\proc\p18f46j50.asm
                 IPR2bits   0x000fa2       data     extern E:\c18v3.46\pic18-lt\cxx-framework\src\traditional\proc\p18f46j50.asm
                     IPR3   0x000fa5       data     extern E:\c18v3.46\pic18-lt\cxx-framework\src\traditional\proc\p18f46j50.asm
                 IPR3bits   0x000fa5       data     extern E:\c18v3.46\pic18-lt\cxx-framework\src\traditional\proc\p18f46j50.asm
               ISR_A_FIFO   0x000100       data     extern C:\Projects\EggBot2-GH\EBB_firmware\app.X\source\UBW.c
            ISR_A_FIFO_in   0x000a9f       data     extern C:\Projects\EggBot2-GH\EBB_firmware\app.X\source\UBW.c
        ISR_A_FIFO_length   0x000aa1       data     extern C:\Projects\EggBot2-GH\EBB_firmware\app.X\source\UBW.c
           ISR_A_FIFO_out   0x000aa0       data     extern C:\Projects\EggBot2-GH\EBB_firmware\app.X\source\UBW.c
         ISR_A_RepeatRate   0x000a9d       data     extern C:\Projects\EggBot2-GH\EBB_firmware\app.X\source\UBW.c
               ISR_D_FIFO   0x000120       data     extern C:\Projects\EggBot2-GH\EBB_firmware\app.X\source\UBW.c
            ISR_D_FIFO_in   0x000a9a       data     extern C:\Projects\EggBot2-GH\EBB_firmware\app.X\source\UBW.c
        ISR_D_FIFO_length   0x000a9c       data     extern C:\Projects\EggBot2-GH\EBB_firmware\app.X\source\UBW.c
           ISR_D_FIFO_out   0x000a9b       data     extern C:\Projects\EggBot2-GH\EBB_firmware\app.X\source\UBW.c
         ISR_D_RepeatRate   0x000a98       data     extern C:\Projects\EggBot2-GH\EBB_firmware\app.X\source\UBW.c
                     LATA   0x000f89       data     extern E:\c18v3.46\pic18-lt\cxx-framework\src\traditional\proc\p18f46j50.asm
                 LATAbits   0x000f89       data     extern E:\c18v3.46\pic18-lt\cxx-framework\src\traditional\proc\p18f46j50.asm
                     LATB   0x000f8a       data     extern E:\c18v3.46\pic18-lt\cxx-framework\src\traditional\proc\p18f46j50.asm
                 LATBbits   0x000f8a       data     extern E:\c18v3.46\pic18-lt\cxx-framework\src\traditional\proc\p18f46j50.asm
                     LATC   0x000f8b       data     extern E:\c18v3.46\pic18-lt\cxx-framework\src\traditional\proc\p18f46j50.asm
                 LATCbits   0x000f8b       data     extern E:\c18v3.46\pic18-lt\cxx-framework\src\traditional\proc\p18f46j50.asm
                     LATD   0x000f8c       data     extern E:\c18v3.46\pic18-lt\cxx-framework\src\traditional\proc\p18f46j50.asm
                 LATDbits   0x000f8c       data     extern E:\c18v3.46\pic18-lt\cxx-framework\src\traditional\proc\p18f46j50.asm
                     LATE   0x000f8d       data     extern E:\c18v3.46\pic18-lt\cxx-framework\src\traditional\proc\p18f46j50.asm
                 LATEbits   0x000f8d       data     extern E:\c18v3.46\pic18-lt\cxx-framework\src\traditional\proc\p18f46j50.asm
                 LEDCount   0x000569       data     static C:\Projects\EggBot2-GH\EBB_firmware\app.X\source\UBW.c
                 LEDState   0x00056b       data     static C:\Projects\EggBot2-GH\EBB_firmware\app.X\source\UBW.c
                    Layer   0x000aec       data     static C:\Projects\EggBot2-GH\EBB_firmware\app.X\source\ebb.c
                NodeCount   0x000ae8       data     static C:\Projects\EggBot2-GH\EBB_firmware\app.X\source\ebb.c
                   ODCON1   0x000f42       data     extern E:\c18v3.46\pic18-lt\cxx-framework\src\traditional\proc\p18f46j50.asm
               ODCON1bits   0x000f42       data     extern E:\c18v3.46\pic18-lt\cxx-framework\src\traditional\proc\p18f46j50.asm
                   ODCON2   0x000f41       data     extern E:\c18v3.46\pic18-lt\cxx-framework\src\traditional\proc\p18f46j50.asm
               ODCON2bits   0x000f41       data     extern E:\c18v3.46\pic18-lt\cxx-framework\src\traditional\proc\p18f46j50.asm
                   ODCON3   0x000f40       data     extern E:\c18v3.46\pic18-lt\cxx-framework\src\traditional\proc\p18f46j50.asm
               ODCON3bits   0x000f40       data     extern E:\c18v3.46\pic18-lt\cxx-framework\src\traditional\proc\p18f46j50.asm
                   OSCCON   0x000fd3       data     extern E:\c18v3.46\pic18-lt\cxx-framework\src\traditional\proc\p18f46j50.asm
               OSCCONbits   0x000fd3       data     extern E:\c18v3.46\pic18-lt\cxx-framework\src\traditional\proc\p18f46j50.asm
                  OSCTUNE   0x000f9b       data     extern E:\c18v3.46\pic18-lt\cxx-framework\src\traditional\proc\p18f46j50.asm
              OSCTUNEbits   0x000f9b       data     extern E:\c18v3.46\pic18-lt\cxx-framework\src\traditional\proc\p18f46j50.asm
                  OutByte   0x000adb       data     static C:\Projects\EggBot2-GH\EBB_firmware\app.X\source\ebb.c
                  PADCFG1   0x000f3c       data     extern E:\c18v3.46\pic18-lt\cxx-framework\src\traditional\proc\p18f46j50.asm
              PADCFG1bits   0x000f3c       data     extern E:\c18v3.46\pic18-lt\cxx-framework\src\traditional\proc\p18f46j50.asm
                       PC   0x000ff9       data     extern E:\c18v3.46\pic18-lt\cxx-framework\src\traditional\proc\p18f46j50.asm
                      PCL   0x000ff9       data     extern E:\c18v3.46\pic18-lt\cxx-framework\src\traditional\proc\p18f46j50.asm
                   PCLATH   0x000ffa       data     extern E:\c18v3.46\pic18-lt\cxx-framework\src\traditional\proc\p18f46j50.asm
                   PCLATU   0x000ffb       data     extern E:\c18v3.46\pic18-lt\cxx-framework\src\traditional\proc\p18f46j50.asm
                     PIE1   0x000f9d       data     extern E:\c18v3.46\pic18-lt\cxx-framework\src\traditional\proc\p18f46j50.asm
                 PIE1bits   0x000f9d       data     extern E:\c18v3.46\pic18-lt\cxx-framework\src\traditional\proc\p18f46j50.asm
                     PIE2   0x000fa0       data     extern E:\c18v3.46\pic18-lt\cxx-framework\src\traditional\proc\p18f46j50.asm
                 PIE2bits   0x000fa0       data     extern E:\c18v3.46\pic18-lt\cxx-framework\src\traditional\proc\p18f46j50.asm
                     PIE3   0x000fa3       data     extern E:\c18v3.46\pic18-lt\cxx-framework\src\traditional\proc\p18f46j50.asm
                 PIE3bits   0x000fa3       data     extern E:\c18v3.46\pic18-lt\cxx-framework\src\traditional\proc\p18f46j50.asm
                     PIR1   0x000f9e       data     extern E:\c18v3.46\pic18-lt\cxx-framework\src\traditional\proc\p18f46j50.asm
                 PIR1bits   0x000f9e       data     extern E:\c18v3.46\pic18-lt\cxx-framework\src\traditional\proc\p18f46j50.asm
                     PIR2   0x000fa1       data     extern E:\c18v3.46\pic18-lt\cxx-framework\src\traditional\proc\p18f46j50.asm
                 PIR2bits   0x000fa1       data     extern E:\c18v3.46\pic18-lt\cxx-framework\src\traditional\proc\p18f46j50.asm
                     PIR3   0x000fa4       data     extern E:\c18v3.46\pic18-lt\cxx-framework\src\traditional\proc\p18f46j50.asm
                 PIR3bits   0x000fa4       data     extern E:\c18v3.46\pic18-lt\cxx-framework\src\traditional\proc\p18f46j50.asm
                   PLUSW0   0x000feb       data     extern E:\c18v3.46\pic18-lt\cxx-framework\src\traditional\proc\p18f46j50.asm
                   PLUSW1   0x000fe3       data     extern E:\c18v3.46\pic18-lt\cxx-framework\src\traditional\proc\p18f46j50.asm
                   PLUSW2   0x000fdb       data     extern E:\c18v3.46\pic18-lt\cxx-framework\src\traditional\proc\p18f46j50.asm
                  PMADDRH   0x000f6f       data     extern E:\c18v3.46\pic18-lt\cxx-framework\src\traditional\proc\p18f46j50.asm
              PMADDRHbits   0x000f6f       data     extern E:\c18v3.46\pic18-lt\cxx-framework\src\traditional\proc\p18f46j50.asm
                  PMADDRL   0x000f6e       data     extern E:\c18v3.46\pic18-lt\cxx-framework\src\traditional\proc\p18f46j50.asm
                   PMCONH   0x000f5f       data     extern E:\c18v3.46\pic18-lt\cxx-framework\src\traditional\proc\p18f46j50.asm
               PMCONHbits   0x000f5f       data     extern E:\c18v3.46\pic18-lt\cxx-framework\src\traditional\proc\p18f46j50.asm
                   PMCONL   0x000f5e       data     extern E:\c18v3.46\pic18-lt\cxx-framework\src\traditional\proc\p18f46j50.asm
               PMCONLbits   0x000f5e       data     extern E:\c18v3.46\pic18-lt\cxx-framework\src\traditional\proc\p18f46j50.asm
                  PMDIN1H   0x000f6d       data     extern E:\c18v3.46\pic18-lt\cxx-framework\src\traditional\proc\p18f46j50.asm
                  PMDIN1L   0x000f6c       data     extern E:\c18v3.46\pic18-lt\cxx-framework\src\traditional\proc\p18f46j50.asm
                  PMDIN2H   0x000f59       data     extern E:\c18v3.46\pic18-lt\cxx-framework\src\traditional\proc\p18f46j50.asm
                  PMDIN2L   0x000f58       data     extern E:\c18v3.46\pic18-lt\cxx-framework\src\traditional\proc\p18f46j50.asm
                 PMDOUT1H   0x000f6f       data     extern E:\c18v3.46\pic18-lt\cxx-framework\src\traditional\proc\p18f46j50.asm
                 PMDOUT1L   0x000f6e       data     extern E:\c18v3.46\pic18-lt\cxx-framework\src\traditional\proc\p18f46j50.asm
                 PMDOUT2H   0x000f5b       data     extern E:\c18v3.46\pic18-lt\cxx-framework\src\traditional\proc\p18f46j50.asm
                 PMDOUT2L   0x000f5a       data     extern E:\c18v3.46\pic18-lt\cxx-framework\src\traditional\proc\p18f46j50.asm
                     PMEH   0x000f57       data     extern E:\c18v3.46\pic18-lt\cxx-framework\src\traditional\proc\p18f46j50.asm
                 PMEHbits   0x000f57       data     extern E:\c18v3.46\pic18-lt\cxx-framework\src\traditional\proc\p18f46j50.asm
                     PMEL   0x000f56       data     extern E:\c18v3.46\pic18-lt\cxx-framework\src\traditional\proc\p18f46j50.asm
                 PMELbits   0x000f56       data     extern E:\c18v3.46\pic18-lt\cxx-framework\src\traditional\proc\p18f46j50.asm
                  PMMODEH   0x000f5d       data     extern E:\c18v3.46\pic18-lt\cxx-framework\src\traditional\proc\p18f46j50.asm
              PMMODEHbits   0x000f5d       data     extern E:\c18v3.46\pic18-lt\cxx-framework\src\traditional\proc\p18f46j50.asm
                  PMMODEL   0x000f5c       data     extern E:\c18v3.46\pic18-lt\cxx-framework\src\traditional\proc\p18f46j50.asm
              PMMODELbits   0x000f5c       data     extern E:\c18v3.46\pic18-lt\cxx-framework\src\traditional\proc\p18f46j50.asm
                  PMSTATH   0x000f55       data     extern E:\c18v3.46\pic18-lt\cxx-framework\src\traditional\proc\p18f46j50.asm
              PMSTATHbits   0x000f55       data     extern E:\c18v3.46\pic18-lt\cxx-framework\src\traditional\proc\p18f46j50.asm
                  PMSTATL   0x000f54       data     extern E:\c18v3.46\pic18-lt\cxx-framework\src\traditional\proc\p18f46j50.asm
              PMSTATLbits   0x000f54       data     extern E:\c18v3.46\pic18-lt\cxx-framework\src\traditional\proc\p18f46j50.asm
                    PORTA   0x000f80       data     extern E:\c18v3.46\pic18-lt\cxx-framework\src\traditional\proc\p18f46j50.asm
                PORTAbits   0x000f80       data     extern E:\c18v3.46\pic18-lt\cxx-framework\src\traditional\proc\p18f46j50.asm
                    PORTB   0x000f81       data     extern E:\c18v3.46\pic18-lt\cxx-framework\src\traditional\proc\p18f46j50.asm
                PORTBbits   0x000f81       data     extern E:\c18v3.46\pic18-lt\cxx-framework\src\traditional\proc\p18f46j50.asm
                    PORTC   0x000f82       data     extern E:\c18v3.46\pic18-lt\cxx-framework\src\traditional\proc\p18f46j50.asm
                PORTCbits   0x000f82       data     extern E:\c18v3.46\pic18-lt\cxx-framework\src\traditional\proc\p18f46j50.asm
                    PORTD   0x000f83       data     extern E:\c18v3.46\pic18-lt\cxx-framework\src\traditional\proc\p18f46j50.asm
                PORTDbits   0x000f83       data     extern E:\c18v3.46\pic18-lt\cxx-framework\src\traditional\proc\p18f46j50.asm
                    PORTE   0x000f84       data     extern E:\c18v3.46\pic18-lt\cxx-framework\src\traditional\proc\p18f46j50.asm
                PORTEbits   0x000f84       data     extern E:\c18v3.46\pic18-lt\cxx-framework\src\traditional\proc\p18f46j50.asm
                 POSTDEC0   0x000fed       data     extern E:\c18v3.46\pic18-lt\cxx-framework\src\traditional\proc\p18f46j50.asm
                 POSTDEC1   0x000fe5       data     extern E:\c18v3.46\pic18-lt\cxx-framework\src\traditional\proc\p18f46j50.asm
                 POSTDEC2   0x000fdd       data     extern E:\c18v3.46\pic18-lt\cxx-framework\src\traditional\proc\p18f46j50.asm
                 POSTINC0   0x000fee       data     extern E:\c18v3.46\pic18-lt\cxx-framework\src\traditional\proc\p18f46j50.asm
                 POSTINC1   0x000fe6       data     extern E:\c18v3.46\pic18-lt\cxx-framework\src\traditional\proc\p18f46j50.asm
                 POSTINC2   0x000fde       data     extern E:\c18v3.46\pic18-lt\cxx-framework\src\traditional\proc\p18f46j50.asm
                   PPSCON   0x000eff       data     extern E:\c18v3.46\pic18-lt\cxx-framework\src\traditional\proc\p18f46j50.asm
               PPSCONbits   0x000eff       data     extern E:\c18v3.46\pic18-lt\cxx-framework\src\traditional\proc\p18f46j50.asm
                      PR2   0x000fcb       data     extern E:\c18v3.46\pic18-lt\cxx-framework\src\traditional\proc\p18f46j50.asm
                      PR4   0x000f77       data     extern E:\c18v3.46\pic18-lt\cxx-framework\src\traditional\proc\p18f46j50.asm
                  PREINC0   0x000fec       data     extern E:\c18v3.46\pic18-lt\cxx-framework\src\traditional\proc\p18f46j50.asm
                  PREINC1   0x000fe4       data     extern E:\c18v3.46\pic18-lt\cxx-framework\src\traditional\proc\p18f46j50.asm
                  PREINC2   0x000fdc       data     extern E:\c18v3.46\pic18-lt\cxx-framework\src\traditional\proc\p18f46j50.asm
                     PROD   0x000ff3       data     extern E:\c18v3.46\pic18-lt\cxx-framework\src\traditional\proc\p18f46j50.asm
                    PRODH   0x000ff4       data     extern E:\c18v3.46\pic18-lt\cxx-framework\src\traditional\proc\p18f46j50.asm
                    PRODL   0x000ff3       data     extern E:\c18v3.46\pic18-lt\cxx-framework\src\traditional\proc\p18f46j50.asm
                 PSTR1CON   0x000fbf       data     extern E:\c18v3.46\pic18-lt\cxx-framework\src\traditional\proc\p18f46j50.asm
             PSTR1CONbits   0x000fbf       data     extern E:\c18v3.46\pic18-lt\cxx-framework\src\traditional\proc\p18f46j50.asm
                 PSTR2CON   0x000fb9       data     extern E:\c18v3.46\pic18-lt\cxx-framework\src\traditional\proc\p18f46j50.asm
             PSTR2CONbits   0x000fb9       data     extern E:\c18v3.46\pic18-lt\cxx-framework\src\traditional\proc\p18f46j50.asm
                  PWM1CON   0x000fbd       data     extern E:\c18v3.46\pic18-lt\cxx-framework\src\traditional\proc\p18f46j50.asm
              PWM1CONbits   0x000fbd       data     extern E:\c18v3.46\pic18-lt\cxx-framework\src\traditional\proc\p18f46j50.asm
                  PWM2CON   0x000fb7       data     extern E:\c18v3.46\pic18-lt\cxx-framework\src\traditional\proc\p18f46j50.asm
              PWM2CONbits   0x000fb7       data     extern E:\c18v3.46\pic18-lt\cxx-framework\src\traditional\proc\p18f46j50.asm
                 PenState   0x000ae7       data     static C:\Projects\EggBot2-GH\EBB_firmware\app.X\source\ebb.c
              QC_ms_timer   0x000aef       data     extern C:\Projects\EggBot2-GH\EBB_firmware\app.X\source\ebb.c
                     RCON   0x000fd0       data     extern E:\c18v3.46\pic18-lt\cxx-framework\src\traditional\proc\p18f46j50.asm
                 RCONbits   0x000fd0       data     extern E:\c18v3.46\pic18-lt\cxx-framework\src\traditional\proc\p18f46j50.asm
                    RCREG   0x000faf       data     extern E:\c18v3.46\pic18-lt\cxx-framework\src\traditional\proc\p18f46j50.asm
                   RCREG1   0x000faf       data     extern E:\c18v3.46\pic18-lt\cxx-framework\src\traditional\proc\p18f46j50.asm
                   RCREG2   0x000faa       data     extern E:\c18v3.46\pic18-lt\cxx-framework\src\traditional\proc\p18f46j50.asm
                    RCSTA   0x000fac       data     extern E:\c18v3.46\pic18-lt\cxx-framework\src\traditional\proc\p18f46j50.asm
                   RCSTA1   0x000fac       data     extern E:\c18v3.46\pic18-lt\cxx-framework\src\traditional\proc\p18f46j50.asm
               RCSTA1bits   0x000fac       data     extern E:\c18v3.46\pic18-lt\cxx-framework\src\traditional\proc\p18f46j50.asm
                   RCSTA2   0x000f9c       data     extern E:\c18v3.46\pic18-lt\cxx-framework\src\traditional\proc\p18f46j50.asm
               RCSTA2bits   0x000f9c       data     extern E:\c18v3.46\pic18-lt\cxx-framework\src\traditional\proc\p18f46j50.asm
                RCSTAbits   0x000fac       data     extern E:\c18v3.46\pic18-lt\cxx-framework\src\traditional\proc\p18f46j50.asm
                  REFOCON   0x000f3d       data     extern E:\c18v3.46\pic18-lt\cxx-framework\src\traditional\proc\p18f46j50.asm
              REFOCONbits   0x000f3d       data     extern E:\c18v3.46\pic18-lt\cxx-framework\src\traditional\proc\p18f46j50.asm
                   RPINR1   0x000ee7       data     extern E:\c18v3.46\pic18-lt\cxx-framework\src\traditional\proc\p18f46j50.asm
                  RPINR12   0x000ef2       data     extern E:\c18v3.46\pic18-lt\cxx-framework\src\traditional\proc\p18f46j50.asm
                  RPINR13   0x000ef3       data     extern E:\c18v3.46\pic18-lt\cxx-framework\src\traditional\proc\p18f46j50.asm
                  RPINR16   0x000ef6       data     extern E:\c18v3.46\pic18-lt\cxx-framework\src\traditional\proc\p18f46j50.asm
                  RPINR17   0x000ef7       data     extern E:\c18v3.46\pic18-lt\cxx-framework\src\traditional\proc\p18f46j50.asm
                   RPINR2   0x000ee8       data     extern E:\c18v3.46\pic18-lt\cxx-framework\src\traditional\proc\p18f46j50.asm
                  RPINR21   0x000efb       data     extern E:\c18v3.46\pic18-lt\cxx-framework\src\traditional\proc\p18f46j50.asm
                  RPINR22   0x000efc       data     extern E:\c18v3.46\pic18-lt\cxx-framework\src\traditional\proc\p18f46j50.asm
                  RPINR23   0x000efd       data     extern E:\c18v3.46\pic18-lt\cxx-framework\src\traditional\proc\p18f46j50.asm
                  RPINR24   0x000efe       data     extern E:\c18v3.46\pic18-lt\cxx-framework\src\traditional\proc\p18f46j50.asm
                   RPINR3   0x000ee9       data     extern E:\c18v3.46\pic18-lt\cxx-framework\src\traditional\proc\p18f46j50.asm
                   RPINR4   0x000eea       data     extern E:\c18v3.46\pic18-lt\cxx-framework\src\traditional\proc\p18f46j50.asm
                   RPINR6   0x000eec       data     extern E:\c18v3.46\pic18-lt\cxx-framework\src\traditional\proc\p18f46j50.asm
                   RPINR7   0x000eed       data     extern E:\c18v3.46\pic18-lt\cxx-framework\src\traditional\proc\p18f46j50.asm
                   RPINR8   0x000eee       data     extern E:\c18v3.46\pic18-lt\cxx-framework\src\traditional\proc\p18f46j50.asm
                    RPOR0   0x000ec6       data     extern E:\c18v3.46\pic18-lt\cxx-framework\src\traditional\proc\p18f46j50.asm
                    RPOR1   0x000ec7       data     extern E:\c18v3.46\pic18-lt\cxx-framework\src\traditional\proc\p18f46j50.asm
                   RPOR10   0x000ed0       data     extern E:\c18v3.46\pic18-lt\cxx-framework\src\traditional\proc\p18f46j50.asm
                   RPOR11   0x000ed1       data     extern E:\c18v3.46\pic18-lt\cxx-framework\src\traditional\proc\p18f46j50.asm
                   RPOR12   0x000ed2       data     extern E:\c18v3.46\pic18-lt\cxx-framework\src\traditional\proc\p18f46j50.asm
                   RPOR13   0x000ed3       data     extern E:\c18v3.46\pic18-lt\cxx-framework\src\traditional\proc\p18f46j50.asm
                   RPOR17   0x000ed7       data     extern E:\c18v3.46\pic18-lt\cxx-framework\src\traditional\proc\p18f46j50.asm
                   RPOR18   0x000ed8       data     extern E:\c18v3.46\pic18-lt\cxx-framework\src\traditional\proc\p18f46j50.asm
                   RPOR19   0x000ed9       data     extern E:\c18v3.46\pic18-lt\cxx-framework\src\traditional\proc\p18f46j50.asm
                    RPOR2   0x000ec8       data     extern E:\c18v3.46\pic18-lt\cxx-framework\src\traditional\proc\p18f46j50.asm
                   RPOR20   0x000eda       data     extern E:\c18v3.46\pic18-lt\cxx-framework\src\traditional\proc\p18f46j50.asm
                   RPOR21   0x000edb       data     extern E:\c18v3.46\pic18-lt\cxx-framework\src\traditional\proc\p18f46j50.asm
                   RPOR22   0x000edc       data     extern E:\c18v3.46\pic18-lt\cxx-framework\src\traditional\proc\p18f46j50.asm
                   RPOR23   0x000edd       data     extern E:\c18v3.46\pic18-lt\cxx-framework\src\traditional\proc\p18f46j50.asm
                   RPOR24   0x000ede       data     extern E:\c18v3.46\pic18-lt\cxx-framework\src\traditional\proc\p18f46j50.asm
                    RPOR3   0x000ec9       data     extern E:\c18v3.46\pic18-lt\cxx-framework\src\traditional\proc\p18f46j50.asm
                    RPOR4   0x000eca       data     extern E:\c18v3.46\pic18-lt\cxx-framework\src\traditional\proc\p18f46j50.asm
                    RPOR5   0x000ecb       data     extern E:\c18v3.46\pic18-lt\cxx-framework\src\traditional\proc\p18f46j50.asm
                    RPOR6   0x000ecc       data     extern E:\c18v3.46\pic18-lt\cxx-framework\src\traditional\proc\p18f46j50.asm
                    RPOR7   0x000ecd       data     extern E:\c18v3.46\pic18-lt\cxx-framework\src\traditional\proc\p18f46j50.asm
                    RPOR8   0x000ece       data     extern E:\c18v3.46\pic18-lt\cxx-framework\src\traditional\proc\p18f46j50.asm
                    RPOR9   0x000ecf       data     extern E:\c18v3.46\pic18-lt\cxx-framework\src\traditional\proc\p18f46j50.asm
                   RPnBit   0x0005d0       data     extern C:\Projects\EggBot2-GH\EBB_firmware\app.X\source\UBW.c
               RPnLATPort   0x00059e       data     extern C:\Projects\EggBot2-GH\EBB_firmware\app.X\source\UBW.c
              RPnTRISPort   0x00056c       data     extern C:\Projects\EggBot2-GH\EBB_firmware\app.X\source\UBW.c
                   RTCCAL   0x000f3e       data     extern E:\c18v3.46\pic18-lt\cxx-framework\src\traditional\proc\p18f46j50.asm
               RTCCALbits   0x000f3e       data     extern E:\c18v3.46\pic18-lt\cxx-framework\src\traditional\proc\p18f46j50.asm
                   RTCCFG   0x000f3f       data     extern E:\c18v3.46\pic18-lt\cxx-framework\src\traditional\proc\p18f46j50.asm
               RTCCFGbits   0x000f3f       data     extern E:\c18v3.46\pic18-lt\cxx-framework\src\traditional\proc\p18f46j50.asm
                  RTCVALH   0x000f99       data     extern E:\c18v3.46\pic18-lt\cxx-framework\src\traditional\proc\p18f46j50.asm
                  RTCVALL   0x000f98       data     extern E:\c18v3.46\pic18-lt\cxx-framework\src\traditional\proc\p18f46j50.asm
                  RXADDRH   0x000f68       data     extern E:\c18v3.46\pic18-lt\cxx-framework\src\traditional\proc\p18f46j50.asm
              RXADDRHbits   0x000f68       data     extern E:\c18v3.46\pic18-lt\cxx-framework\src\traditional\proc\p18f46j50.asm
                  RXADDRL   0x000f69       data     extern E:\c18v3.46\pic18-lt\cxx-framework\src\traditional\proc\p18f46j50.asm
             RemoteWakeup   0x00049b       data     extern C:\Projects\EggBot2-GH\EBB_firmware\Microchip\USB\usb_device.c
                     SIGN   0x000042       data     extern E:\c18v3.46\pic18-lt\cxx-framework\src\traditional\math\cmath18.asm
                    SPBRG   0x000fb0       data     extern E:\c18v3.46\pic18-lt\cxx-framework\src\traditional\proc\p18f46j50.asm
                   SPBRG1   0x000fb0       data     extern E:\c18v3.46\pic18-lt\cxx-framework\src\traditional\proc\p18f46j50.asm
                   SPBRG2   0x000fab       data     extern E:\c18v3.46\pic18-lt\cxx-framework\src\traditional\proc\p18f46j50.asm
                   SPBRGH   0x000f7f       data     extern E:\c18v3.46\pic18-lt\cxx-framework\src\traditional\proc\p18f46j50.asm
                  SPBRGH1   0x000f7f       data     extern E:\c18v3.46\pic18-lt\cxx-framework\src\traditional\proc\p18f46j50.asm
                  SPBRGH2   0x000f7d       data     extern E:\c18v3.46\pic18-lt\cxx-framework\src\traditional\proc\p18f46j50.asm
                  SSP1ADD   0x000fc8       data     extern E:\c18v3.46\pic18-lt\cxx-framework\src\traditional\proc\p18f46j50.asm
              SSP1ADDbits   0x000fc8       data     extern E:\c18v3.46\pic18-lt\cxx-framework\src\traditional\proc\p18f46j50.asm
                  SSP1BUF   0x000fc9       data     extern E:\c18v3.46\pic18-lt\cxx-framework\src\traditional\proc\p18f46j50.asm
                 SSP1CON1   0x000fc6       data     extern E:\c18v3.46\pic18-lt\cxx-framework\src\traditional\proc\p18f46j50.asm
             SSP1CON1bits   0x000fc6       data     extern E:\c18v3.46\pic18-lt\cxx-framework\src\traditional\proc\p18f46j50.asm
                 SSP1CON2   0x000fc5       data     extern E:\c18v3.46\pic18-lt\cxx-framework\src\traditional\proc\p18f46j50.asm
             SSP1CON2bits   0x000fc5       data     extern E:\c18v3.46\pic18-lt\cxx-framework\src\traditional\proc\p18f46j50.asm
                 SSP1STAT   0x000fc7       data     extern E:\c18v3.46\pic18-lt\cxx-framework\src\traditional\proc\p18f46j50.asm
             SSP1STATbits   0x000fc7       data     extern E:\c18v3.46\pic18-lt\cxx-framework\src\traditional\proc\p18f46j50.asm
                  SSP2ADD   0x000f74       data     extern E:\c18v3.46\pic18-lt\cxx-framework\src\traditional\proc\p18f46j50.asm
              SSP2ADDbits   0x000f74       data     extern E:\c18v3.46\pic18-lt\cxx-framework\src\traditional\proc\p18f46j50.asm
                  SSP2BUF   0x000f75       data     extern E:\c18v3.46\pic18-lt\cxx-framework\src\traditional\proc\p18f46j50.asm
                 SSP2CON1   0x000f72       data     extern E:\c18v3.46\pic18-lt\cxx-framework\src\traditional\proc\p18f46j50.asm
             SSP2CON1bits   0x000f72       data     extern E:\c18v3.46\pic18-lt\cxx-framework\src\traditional\proc\p18f46j50.asm
                 SSP2CON2   0x000f71       data     extern E:\c18v3.46\pic18-lt\cxx-framework\src\traditional\proc\p18f46j50.asm
             SSP2CON2bits   0x000f71       data     extern E:\c18v3.46\pic18-lt\cxx-framework\src\traditional\proc\p18f46j50.asm
                 SSP2STAT   0x000f73       data     extern E:\c18v3.46\pic18-lt\cxx-framework\src\traditional\proc\p18f46j50.asm
             SSP2STATbits   0x000f73       data     extern E:\c18v3.46\pic18-lt\cxx-framework\src\traditional\proc\p18f46j50.asm
                   SSPADD   0x000fc8       data     extern E:\c18v3.46\pic18-lt\cxx-framework\src\traditional\proc\p18f46j50.asm
               SSPADDbits   0x000fc8       data     extern E:\c18v3.46\pic18-lt\cxx-framework\src\traditional\proc\p18f46j50.asm
                   SSPBUF   0x000fc9       data     extern E:\c18v3.46\pic18-lt\cxx-framework\src\traditional\proc\p18f46j50.asm
                  SSPCON1   0x000fc6       data     extern E:\c18v3.46\pic18-lt\cxx-framework\src\traditional\proc\p18f46j50.asm
              SSPCON1bits   0x000fc6       data     extern E:\c18v3.46\pic18-lt\cxx-framework\src\traditional\proc\p18f46j50.asm
                  SSPCON2   0x000fc5       data     extern E:\c18v3.46\pic18-lt\cxx-framework\src\traditional\proc\p18f46j50.asm
              SSPCON2bits   0x000fc5       data     extern E:\c18v3.46\pic18-lt\cxx-framework\src\traditional\proc\p18f46j50.asm
                  SSPSTAT   0x000fc7       data     extern E:\c18v3.46\pic18-lt\cxx-framework\src\traditional\proc\p18f46j50.asm
              SSPSTATbits   0x000fc7       data     extern E:\c18v3.46\pic18-lt\cxx-framework\src\traditional\proc\p18f46j50.asm
                   STATUS   0x000fd8       data     extern E:\c18v3.46\pic18-lt\cxx-framework\src\traditional\proc\p18f46j50.asm
               STATUSbits   0x000fd8       data     extern E:\c18v3.46\pic18-lt\cxx-framework\src\traditional\proc\p18f46j50.asm
                   STKPTR   0x000ffc       data     extern E:\c18v3.46\pic18-lt\cxx-framework\src\traditional\proc\p18f46j50.asm
               STKPTRbits   0x000ffc       data     extern E:\c18v3.46\pic18-lt\cxx-framework\src\traditional\proc\p18f46j50.asm
                 SetupPkt   0x000430       data     extern C:\Projects\EggBot2-GH\EBB_firmware\Microchip\USB\usb_device.c
            SolenoidDelay   0x000ae4       data     static C:\Projects\EggBot2-GH\EBB_firmware\app.X\source\ebb.c
            SolenoidState   0x000ae3       data     static C:\Projects\EggBot2-GH\EBB_firmware\app.X\source\ebb.c
                  StepAcc   0x000cf3       data     static C:\Projects\EggBot2-GH\EBB_firmware\app.X\source\ebb.c
      StoredEngraverPower   0x000af0       data     static C:\Projects\EggBot2-GH\EBB_firmware\app.X\source\ebb.c
                    T0CON   0x000fd5       data     extern E:\c18v3.46\pic18-lt\cxx-framework\src\traditional\proc\p18f46j50.asm
                T0CONbits   0x000fd5       data     extern E:\c18v3.46\pic18-lt\cxx-framework\src\traditional\proc\p18f46j50.asm
                    T1CON   0x000fcd       data     extern E:\c18v3.46\pic18-lt\cxx-framework\src\traditional\proc\p18f46j50.asm
                T1CONbits   0x000fcd       data     extern E:\c18v3.46\pic18-lt\cxx-framework\src\traditional\proc\p18f46j50.asm
                   T1GCON   0x000f9a       data     extern E:\c18v3.46\pic18-lt\cxx-framework\src\traditional\proc\p18f46j50.asm
               T1GCONbits   0x000f9a       data     extern E:\c18v3.46\pic18-lt\cxx-framework\src\traditional\proc\p18f46j50.asm
                    T2CON   0x000fca       data     extern E:\c18v3.46\pic18-lt\cxx-framework\src\traditional\proc\p18f46j50.asm
                T2CONbits   0x000fca       data     extern E:\c18v3.46\pic18-lt\cxx-framework\src\traditional\proc\p18f46j50.asm
                    T3CON   0x000f79       data     extern E:\c18v3.46\pic18-lt\cxx-framework\src\traditional\proc\p18f46j50.asm
                T3CONbits   0x000f79       data     extern E:\c18v3.46\pic18-lt\cxx-framework\src\traditional\proc\p18f46j50.asm
                   T3GCON   0x000f97       data     extern E:\c18v3.46\pic18-lt\cxx-framework\src\traditional\proc\p18f46j50.asm
               T3GCONbits   0x000f97       data     extern E:\c18v3.46\pic18-lt\cxx-framework\src\traditional\proc\p18f46j50.asm
                    T4CON   0x000f76       data     extern E:\c18v3.46\pic18-lt\cxx-framework\src\traditional\proc\p18f46j50.asm
                T4CONbits   0x000f76       data     extern E:\c18v3.46\pic18-lt\cxx-framework\src\traditional\proc\p18f46j50.asm
                   TABLAT   0x000ff5       data     extern E:\c18v3.46\pic18-lt\cxx-framework\src\traditional\proc\p18f46j50.asm
                   TBLPTR   0x000ff6       data     extern E:\c18v3.46\pic18-lt\cxx-framework\src\traditional\proc\p18f46j50.asm
                  TBLPTRH   0x000ff7       data     extern E:\c18v3.46\pic18-lt\cxx-framework\src\traditional\proc\p18f46j50.asm
                  TBLPTRL   0x000ff6       data     extern E:\c18v3.46\pic18-lt\cxx-framework\src\traditional\proc\p18f46j50.asm
                  TBLPTRU   0x000ff8       data     extern E:\c18v3.46\pic18-lt\cxx-framework\src\traditional\proc\p18f46j50.asm
                  TCLKCON   0x000f52       data     extern E:\c18v3.46\pic18-lt\cxx-framework\src\traditional\proc\p18f46j50.asm
              TCLKCONbits   0x000f52       data     extern E:\c18v3.46\pic18-lt\cxx-framework\src\traditional\proc\p18f46j50.asm
                    TMR0H   0x000fd7       data     extern E:\c18v3.46\pic18-lt\cxx-framework\src\traditional\proc\p18f46j50.asm
                    TMR0L   0x000fd6       data     extern E:\c18v3.46\pic18-lt\cxx-framework\src\traditional\proc\p18f46j50.asm
                    TMR1H   0x000fcf       data     extern E:\c18v3.46\pic18-lt\cxx-framework\src\traditional\proc\p18f46j50.asm
                    TMR1L   0x000fce       data     extern E:\c18v3.46\pic18-lt\cxx-framework\src\traditional\proc\p18f46j50.asm
                     TMR2   0x000fcc       data     extern E:\c18v3.46\pic18-lt\cxx-framework\src\traditional\proc\p18f46j50.asm
                    TMR3H   0x000f7b       data     extern E:\c18v3.46\pic18-lt\cxx-framework\src\traditional\proc\p18f46j50.asm
                    TMR3L   0x000f7a       data     extern E:\c18v3.46\pic18-lt\cxx-framework\src\traditional\proc\p18f46j50.asm
                     TMR4   0x000f78       data     extern E:\c18v3.46\pic18-lt\cxx-framework\src\traditional\proc\p18f46j50.asm
                      TOS   0x000ffd       data     extern E:\c18v3.46\pic18-lt\cxx-framework\src\traditional\proc\p18f46j50.asm
                     TOSH   0x000ffe       data     extern E:\c18v3.46\pic18-lt\cxx-framework\src\traditional\proc\p18f46j50.asm
                     TOSL   0x000ffd       data     extern E:\c18v3.46\pic18-lt\cxx-framework\src\traditional\proc\p18f46j50.asm
                     TOSU   0x000fff       data     extern E:\c18v3.46\pic18-lt\cxx-framework\src\traditional\proc\p18f46j50.asm
                    TRISA   0x000f92       data     extern E:\c18v3.46\pic18-lt\cxx-framework\src\traditional\proc\p18f46j50.asm
                TRISAbits   0x000f92       data     extern E:\c18v3.46\pic18-lt\cxx-framework\src\traditional\proc\p18f46j50.asm
                    TRISB   0x000f93       data     extern E:\c18v3.46\pic18-lt\cxx-framework\src\traditional\proc\p18f46j50.asm
                TRISBbits   0x000f93       data     extern E:\c18v3.46\pic18-lt\cxx-framework\src\traditional\proc\p18f46j50.asm
                    TRISC   0x000f94       data     extern E:\c18v3.46\pic18-lt\cxx-framework\src\traditional\proc\p18f46j50.asm
                TRISCbits   0x000f94       data     extern E:\c18v3.46\pic18-lt\cxx-framework\src\traditional\proc\p18f46j50.asm
                    TRISD   0x000f95       data     extern E:\c18v3.46\pic18-lt\cxx-framework\src\traditional\proc\p18f46j50.asm
                TRISDbits   0x000f95       data     extern E:\c18v3.46\pic18-lt\cxx-framework\src\traditional\proc\p18f46j50.asm
                    TRISE   0x000f96       data     extern E:\c18v3.46\pic18-lt\cxx-framework\src\traditional\proc\p18f46j50.asm
                TRISEbits   0x000f96       data     extern E:\c18v3.46\pic18-lt\cxx-framework\src\traditional\proc\p18f46j50.asm
                  TXADDRH   0x000f6a       data     extern E:\c18v3.46\pic18-lt\cxx-framework\src\traditional\proc\p18f46j50.asm
              TXADDRHbits   0x000f6a       data     extern E:\c18v3.46\pic18-lt\cxx-framework\src\traditional\proc\p18f46j50.asm
                  TXADDRL   0x000f6b       data     extern E:\c18v3.46\pic18-lt\cxx-framework\src\traditional\proc\p18f46j50.asm
                    TXREG   0x000fae       data     extern E:\c18v3.46\pic18-lt\cxx-framework\src\traditional\proc\p18f46j50.asm
                   TXREG1   0x000fae       data     extern E:\c18v3.46\pic18-lt\cxx-framework\src\traditional\proc\p18f46j50.asm
                   TXREG2   0x000fa9       data     extern E:\c18v3.46\pic18-lt\cxx-framework\src\traditional\proc\p18f46j50.asm
                    TXSTA   0x000fad       data     extern E:\c18v3.46\pic18-lt\cxx-framework\src\traditional\proc\p18f46j50.asm
                   TXSTA1   0x000fad       data     extern E:\c18v3.46\pic18-lt\cxx-framework\src\traditional\proc\p18f46j50.asm
               TXSTA1bits   0x000fad       data     extern E:\c18v3.46\pic18-lt\cxx-framework\src\traditional\proc\p18f46j50.asm
                   TXSTA2   0x000fa8       data     extern E:\c18v3.46\pic18-lt\cxx-framework\src\traditional\proc\p18f46j50.asm
               TXSTA2bits   0x000fa8       data     extern E:\c18v3.46\pic18-lt\cxx-framework\src\traditional\proc\p18f46j50.asm
                TXSTAbits   0x000fad       data     extern E:\c18v3.46\pic18-lt\cxx-framework\src\traditional\proc\p18f46j50.asm
                 TookStep   0x000adc       data     static C:\Projects\EggBot2-GH\EBB_firmware\app.X\source\ebb.c
                    UADDR   0x000f38       data     extern E:\c18v3.46\pic18-lt\cxx-framework\src\traditional\proc\p18f46j50.asm
                UADDRbits   0x000f38       data     extern E:\c18v3.46\pic18-lt\cxx-framework\src\traditional\proc\p18f46j50.asm
                     UCFG   0x000f39       data     extern E:\c18v3.46\pic18-lt\cxx-framework\src\traditional\proc\p18f46j50.asm
                 UCFGbits   0x000f39       data     extern E:\c18v3.46\pic18-lt\cxx-framework\src\traditional\proc\p18f46j50.asm
                     UCON   0x000f65       data     extern E:\c18v3.46\pic18-lt\cxx-framework\src\traditional\proc\p18f46j50.asm
                 UCONbits   0x000f65       data     extern E:\c18v3.46\pic18-lt\cxx-framework\src\traditional\proc\p18f46j50.asm
                     UEIE   0x000f37       data     extern E:\c18v3.46\pic18-lt\cxx-framework\src\traditional\proc\p18f46j50.asm
                 UEIEbits   0x000f37       data     extern E:\c18v3.46\pic18-lt\cxx-framework\src\traditional\proc\p18f46j50.asm
                     UEIR   0x000f63       data     extern E:\c18v3.46\pic18-lt\cxx-framework\src\traditional\proc\p18f46j50.asm
                 UEIRbits   0x000f63       data     extern E:\c18v3.46\pic18-lt\cxx-framework\src\traditional\proc\p18f46j50.asm
                     UEP0   0x000f26       data     extern E:\c18v3.46\pic18-lt\cxx-framework\src\traditional\proc\p18f46j50.asm
                 UEP0bits   0x000f26       data     extern E:\c18v3.46\pic18-lt\cxx-framework\src\traditional\proc\p18f46j50.asm
                     UEP1   0x000f27       data     extern E:\c18v3.46\pic18-lt\cxx-framework\src\traditional\proc\p18f46j50.asm
                    UEP10   0x000f30       data     extern E:\c18v3.46\pic18-lt\cxx-framework\src\traditional\proc\p18f46j50.asm
                UEP10bits   0x000f30       data     extern E:\c18v3.46\pic18-lt\cxx-framework\src\traditional\proc\p18f46j50.asm
                    UEP11   0x000f31       data     extern E:\c18v3.46\pic18-lt\cxx-framework\src\traditional\proc\p18f46j50.asm
                UEP11bits   0x000f31       data     extern E:\c18v3.46\pic18-lt\cxx-framework\src\traditional\proc\p18f46j50.asm
                    UEP12   0x000f32       data     extern E:\c18v3.46\pic18-lt\cxx-framework\src\traditional\proc\p18f46j50.asm
                UEP12bits   0x000f32       data     extern E:\c18v3.46\pic18-lt\cxx-framework\src\traditional\proc\p18f46j50.asm
                    UEP13   0x000f33       data     extern E:\c18v3.46\pic18-lt\cxx-framework\src\traditional\proc\p18f46j50.asm
                UEP13bits   0x000f33       data     extern E:\c18v3.46\pic18-lt\cxx-framework\src\traditional\proc\p18f46j50.asm
                    UEP14   0x000f34       data     extern E:\c18v3.46\pic18-lt\cxx-framework\src\traditional\proc\p18f46j50.asm
                UEP14bits   0x000f34       data     extern E:\c18v3.46\pic18-lt\cxx-framework\src\traditional\proc\p18f46j50.asm
                    UEP15   0x000f35       data     extern E:\c18v3.46\pic18-lt\cxx-framework\src\traditional\proc\p18f46j50.asm
                UEP15bits   0x000f35       data     extern E:\c18v3.46\pic18-lt\cxx-framework\src\traditional\proc\p18f46j50.asm
                 UEP1bits   0x000f27       data     extern E:\c18v3.46\pic18-lt\cxx-framework\src\traditional\proc\p18f46j50.asm
                     UEP2   0x000f28       data     extern E:\c18v3.46\pic18-lt\cxx-framework\src\traditional\proc\p18f46j50.asm
                 UEP2bits   0x000f28       data     extern E:\c18v3.46\pic18-lt\cxx-framework\src\traditional\proc\p18f46j50.asm
                     UEP3   0x000f29       data     extern E:\c18v3.46\pic18-lt\cxx-framework\src\traditional\proc\p18f46j50.asm
                 UEP3bits   0x000f29       data     extern E:\c18v3.46\pic18-lt\cxx-framework\src\traditional\proc\p18f46j50.asm
                     UEP4   0x000f2a       data     extern E:\c18v3.46\pic18-lt\cxx-framework\src\traditional\proc\p18f46j50.asm
                 UEP4bits   0x000f2a       data     extern E:\c18v3.46\pic18-lt\cxx-framework\src\traditional\proc\p18f46j50.asm
                     UEP5   0x000f2b       data     extern E:\c18v3.46\pic18-lt\cxx-framework\src\traditional\proc\p18f46j50.asm
                 UEP5bits   0x000f2b       data     extern E:\c18v3.46\pic18-lt\cxx-framework\src\traditional\proc\p18f46j50.asm
                     UEP6   0x000f2c       data     extern E:\c18v3.46\pic18-lt\cxx-framework\src\traditional\proc\p18f46j50.asm
                 UEP6bits   0x000f2c       data     extern E:\c18v3.46\pic18-lt\cxx-framework\src\traditional\proc\p18f46j50.asm
                     UEP7   0x000f2d       data     extern E:\c18v3.46\pic18-lt\cxx-framework\src\traditional\proc\p18f46j50.asm
                 UEP7bits   0x000f2d       data     extern E:\c18v3.46\pic18-lt\cxx-framework\src\traditional\proc\p18f46j50.asm
                     UEP8   0x000f2e       data     extern E:\c18v3.46\pic18-lt\cxx-framework\src\traditional\proc\p18f46j50.asm
                 UEP8bits   0x000f2e       data     extern E:\c18v3.46\pic18-lt\cxx-framework\src\traditional\proc\p18f46j50.asm
                     UEP9   0x000f2f       data     extern E:\c18v3.46\pic18-lt\cxx-framework\src\traditional\proc\p18f46j50.asm
                 UEP9bits   0x000f2f       data     extern E:\c18v3.46\pic18-lt\cxx-framework\src\traditional\proc\p18f46j50.asm
                     UFRM   0x000f60       data     extern E:\c18v3.46\pic18-lt\cxx-framework\src\traditional\proc\p18f46j50.asm
                    UFRMH   0x000f61       data     extern E:\c18v3.46\pic18-lt\cxx-framework\src\traditional\proc\p18f46j50.asm
                UFRMHbits   0x000f61       data     extern E:\c18v3.46\pic18-lt\cxx-framework\src\traditional\proc\p18f46j50.asm
                    UFRML   0x000f60       data     extern E:\c18v3.46\pic18-lt\cxx-framework\src\traditional\proc\p18f46j50.asm
                UFRMLbits   0x000f60       data     extern E:\c18v3.46\pic18-lt\cxx-framework\src\traditional\proc\p18f46j50.asm
                      UIE   0x000f36       data     extern E:\c18v3.46\pic18-lt\cxx-framework\src\traditional\proc\p18f46j50.asm
                  UIEbits   0x000f36       data     extern E:\c18v3.46\pic18-lt\cxx-framework\src\traditional\proc\p18f46j50.asm
                      UIR   0x000f62       data     extern E:\c18v3.46\pic18-lt\cxx-framework\src\traditional\proc\p18f46j50.asm
                  UIRbits   0x000f62       data     extern E:\c18v3.46\pic18-lt\cxx-framework\src\traditional\proc\p18f46j50.asm
   USBActiveConfiguration   0x000479       data     extern C:\Projects\EggBot2-GH\EBB_firmware\Microchip\USB\usb_device.c
    USBAlternateInterface   0x00047a       data     extern C:\Projects\EggBot2-GH\EBB_firmware\Microchip\USB\usb_device.c
        USBBusIsSuspended   0x00049c       data     extern C:\Projects\EggBot2-GH\EBB_firmware\Microchip\USB\usb_device.c
USBDeferINDataStagePackets   0x0004aa       data     extern C:\Projects\EggBot2-GH\EBB_firmware\Microchip\USB\usb_device.c
USBDeferOUTDataStagePackets   0x0004ab       data     extern C:\Projects\EggBot2-GH\EBB_firmware\Microchip\USB\usb_device.c
USBDeferStatusStagePacket   0x0004a7       data     extern C:\Projects\EggBot2-GH\EBB_firmware\Microchip\USB\usb_device.c
           USBDeviceState   0x000478       data     extern C:\Projects\EggBot2-GH\EBB_firmware\Microchip\USB\usb_device.c
USBStatusStageEnabledFlag1   0x0004a8       data     extern C:\Projects\EggBot2-GH\EBB_firmware\Microchip\USB\usb_device.c
USBStatusStageEnabledFlag2   0x0004a9       data     extern C:\Projects\EggBot2-GH\EBB_firmware\Microchip\USB\usb_device.c
USBStatusStageTimeoutCounter   0x0004a6       data     extern C:\Projects\EggBot2-GH\EBB_firmware\Microchip\USB\usb_device.c
               USB_SD_Ptr   0x0002f6       data     extern C:\Projects\EggBot2-GH\EBB_firmware\app.X\source\usb_descriptors.c
                    USTAT   0x000f64       data     extern E:\c18v3.46\pic18-lt\cxx-framework\src\traditional\proc\p18f46j50.asm
                USTATbits   0x000f64       data     extern E:\c18v3.46\pic18-lt\cxx-framework\src\traditional\proc\p18f46j50.asm
                USTATcopy   0x00049d       data     extern C:\Projects\EggBot2-GH\EBB_firmware\Microchip\USB\usb_device.c
              UseAltPause   0x000aee       data     static C:\Projects\EggBot2-GH\EBB_firmware\app.X\source\ebb.c
                   WDTCON   0x000fc0       data     extern E:\c18v3.46\pic18-lt\cxx-framework\src\traditional\proc\p18f46j50.asm
               WDTCONbits   0x000fc0       data     extern E:\c18v3.46\pic18-lt\cxx-framework\src\traditional\proc\p18f46j50.asm
                     WREG   0x000fe8       data     extern E:\c18v3.46\pic18-lt\cxx-framework\src\traditional\proc\p18f46j50.asm
                 __AARGB0   0x00003b       data     extern E:\c18v3.46\pic18-lt\cxx-framework\src\traditional\math\aarg.asm
                 __AARGB1   0x00003a       data     extern E:\c18v3.46\pic18-lt\cxx-framework\src\traditional\math\aarg.asm
                 __AARGB2   0x000039       data     extern E:\c18v3.46\pic18-lt\cxx-framework\src\traditional\math\aarg.asm
                 __AARGB3   0x000038       data     extern E:\c18v3.46\pic18-lt\cxx-framework\src\traditional\math\aarg.asm
                 __AARGB4   0x000037       data     extern E:\c18v3.46\pic18-lt\cxx-framework\src\traditional\math\aarg.asm
                 __AARGB5   0x000036       data     extern E:\c18v3.46\pic18-lt\cxx-framework\src\traditional\math\aarg.asm
                 __AARGB6   0x000035       data     extern E:\c18v3.46\pic18-lt\cxx-framework\src\traditional\math\aarg.asm
                 __AARGB7   0x000034       data     extern E:\c18v3.46\pic18-lt\cxx-framework\src\traditional\math\aarg.asm
                   __AEXP   0x00003c       data     extern E:\c18v3.46\pic18-lt\cxx-framework\src\traditional\math\aarg.asm
                 __BARGB0   0x000040       data     extern E:\c18v3.46\pic18-lt\cxx-framework\src\traditional\math\barg.asm
                 __BARGB1   0x00003f       data     extern E:\c18v3.46\pic18-lt\cxx-framework\src\traditional\math\barg.asm
                 __BARGB2   0x00003e       data     extern E:\c18v3.46\pic18-lt\cxx-framework\src\traditional\math\barg.asm
                 __BARGB3   0x00003d       data     extern E:\c18v3.46\pic18-lt\cxx-framework\src\traditional\math\barg.asm
                   __BEXP   0x000041       data     extern E:\c18v3.46\pic18-lt\cxx-framework\src\traditional\math\barg.asm
                __FPFLAGS   0x000043       data     extern E:\c18v3.46\pic18-lt\cxx-framework\src\traditional\math\cmath18.asm
            __FPFLAGSbits   0x000043       data     extern E:\c18v3.46\pic18-lt\cxx-framework\src\traditional\math\cmath18.asm
                  __REMB0   0x000037       data     extern E:\c18v3.46\pic18-lt\cxx-framework\src\traditional\math\aarg.asm
                  __REMB1   0x000036       data     extern E:\c18v3.46\pic18-lt\cxx-framework\src\traditional\math\aarg.asm
                  __REMB2   0x000035       data     extern E:\c18v3.46\pic18-lt\cxx-framework\src\traditional\math\aarg.asm
                  __REMB3   0x000034       data     extern E:\c18v3.46\pic18-lt\cxx-framework\src\traditional\math\aarg.asm
                   __TEMP   0x000047       data     extern E:\c18v3.46\pic18-lt\cxx-framework\src\traditional\math\temparg.asm
                 __TEMPB0   0x000047       data     extern E:\c18v3.46\pic18-lt\cxx-framework\src\traditional\math\temparg.asm
                 __TEMPB1   0x000046       data     extern E:\c18v3.46\pic18-lt\cxx-framework\src\traditional\math\temparg.asm
                 __TEMPB2   0x000045       data     extern E:\c18v3.46\pic18-lt\cxx-framework\src\traditional\math\temparg.asm
                 __TEMPB3   0x000044       data     extern E:\c18v3.46\pic18-lt\cxx-framework\src\traditional\math\temparg.asm
                  __tmp_0   0x000000       data     static E:\c18v3.46\pic18-lt\cxx-framework\src\traditional\stdclib\putc.c
                  __tmp_0   0x000000       data     static E:\c18v3.46\pic18-lt\cxx-framework\src\traditional\stdclib\vfprintf.c
                  __tmp_0   0x000000       data     static E:\c18v3.46\pic18-lt\cxx-framework\src\traditional\stdclib\ldexp.c
                  __tmp_0   0x000000       data     static E:\c18v3.46\pic18-lt\cxx-framework\src\traditional\stdclib\UnpkMath.c
                  __tmp_0   0x000000       data     static E:\c18v3.46\pic18-lt\cxx-framework\src\pmc_common\Flash\EraseFlash.c
                  __tmp_0   0x000000       data     static E:\c18v3.46\pic18-lt\cxx-framework\src\pmc_common\Flash\ReadFlash.c
                  __tmp_0   0x000000       data     static E:\c18v3.46\pic18-lt\cxx-framework\src\pmc_common\Flash\WriteBytesFlash.c
                  __tmp_0   0x000000       data     static E:\c18v3.46\pic18-lt\cxx-framework\src\traditional\stdclib\printf.c
                  __tmp_0   0x000000       data     static E:\c18v3.46\pic18-lt\cxx-framework\src\traditional\stdclib\sqrt.c
                  __tmp_0   0x000000       data     static E:\c18v3.46\pic18-lt\cxx-framework\src\traditional\stdclib\PackMath.c
                  __tmp_0   0x000000       data     static C:\Projects\EggBot2-GH\EBB_firmware\app.X\source\main.c
                  __tmp_0   0x000000       data     static C:\Projects\EggBot2-GH\EBB_firmware\app.X\source\ebb.c
                  __tmp_0   0x000000       data     static C:\Projects\EggBot2-GH\EBB_firmware\Microchip\USB\usb_device.c
                  __tmp_0   0x000000       data     static C:\Projects\EggBot2-GH\EBB_firmware\app.X\source\UBW.c
                  __tmp_0   0x000000       data     static C:\Projects\EggBot2-GH\EBB_firmware\Microchip\USB\CDC Device Driver\usb_function_cdc.c
                  __tmp_0   0x000000       data     static C:\Projects\EggBot2-GH\EBB_firmware\app.X\source\RCServo2.c
                  __tmp_1   0x000048       data     static C:\Projects\EggBot2-GH\EBB_firmware\app.X\source\ebb.c
                  __tmp_1   0x000050       data     static C:\Projects\EggBot2-GH\EBB_firmware\app.X\source\UBW.c
               button_ctr   0x000567       data     static C:\Projects\EggBot2-GH\EBB_firmware\app.X\source\UBW.c
             button_state   0x000566       data     static C:\Projects\EggBot2-GH\EBB_firmware\app.X\source\UBW.c
              cdc_data_rx   0x000c8b       data     extern C:\Projects\EggBot2-GH\EBB_firmware\Microchip\USB\CDC Device Driver\usb_function_cdc.c
              cdc_data_tx   0x000c4b       data     extern C:\Projects\EggBot2-GH\EBB_firmware\Microchip\USB\CDC Device Driver\usb_function_cdc.c
             cdc_mem_type   0x000ce1       data     extern C:\Projects\EggBot2-GH\EBB_firmware\Microchip\USB\CDC Device Driver\usb_function_cdc.c
               cdc_notice   0x000cd2       data     extern C:\Projects\EggBot2-GH\EBB_firmware\Microchip\USB\CDC Device Driver\usb_function_cdc.c
               cdc_rx_len   0x000cda       data     extern C:\Projects\EggBot2-GH\EBB_firmware\Microchip\USB\CDC Device Driver\usb_function_cdc.c
            cdc_trf_state   0x000cdb       data     extern C:\Projects\EggBot2-GH\EBB_firmware\Microchip\USB\CDC Device Driver\usb_function_cdc.c
               cdc_tx_len   0x000ce0       data     extern C:\Projects\EggBot2-GH\EBB_firmware\Microchip\USB\CDC Device Driver\usb_function_cdc.c
             comd_counter   0x000ae1       data     extern C:\Projects\EggBot2-GH\EBB_firmware\app.X\source\ebb.c
     controlTransferState   0x00048c       data     extern C:\Projects\EggBot2-GH\EBB_firmware\Microchip\USB\usb_device.c
    control_signal_bitmap   0x000ce6       data     extern C:\Projects\EggBot2-GH\EBB_firmware\Microchip\USB\CDC Device Driver\usb_function_cdc.c
                curr_byte   0x000af7       data     static C:\MCC18\src\traditional\startup\c018i.c
               curr_entry   0x000af9       data     static C:\MCC18\src\traditional\startup\c018i.c
                 data_ptr   0x000afb       data     static C:\MCC18\src\traditional\startup\c018i.c
              delay_count   0x0002fe       data     static C:\Projects\EggBot2-GH\EBB_firmware\app.X\source\main.c
dummy_encapsulated_cmd_response   0x000ceb       data     extern C:\Projects\EggBot2-GH\EBB_firmware\Microchip\USB\CDC Device Driver\usb_function_cdc.c
          endpoint_number   0x00049e       data     extern C:\Projects\EggBot2-GH\EBB_firmware\Microchip\USB\usb_device.c
               ep_data_in   0x0004a0       data     extern C:\Projects\EggBot2-GH\EBB_firmware\Microchip\USB\usb_device.c
              ep_data_out   0x0004a3       data     extern C:\Projects\EggBot2-GH\EBB_firmware\Microchip\USB\usb_device.c
                    errno   0x000afe       data     extern E:\c18v3.46\pic18-lt\cxx-framework\src\traditional\stdclib\errno.c
               error_byte   0x000aa2       data     extern C:\Projects\EggBot2-GH\EBB_firmware\app.X\source\UBW.c
             esc_sequence   0x000562       data     static C:\Projects\EggBot2-GH\EBB_firmware\app.X\source\UBW.c
             gLimitChecks   0x000cff       data     extern C:\Projects\EggBot2-GH\EBB_firmware\app.X\source\ebb.c
           gPulseCounters   0x000511       data     extern C:\Projects\EggBot2-GH\EBB_firmware\app.X\source\UBW.c
                gPulseLen   0x000501       data     extern C:\Projects\EggBot2-GH\EBB_firmware\app.X\source\UBW.c
               gPulseRate   0x000509       data     extern C:\Projects\EggBot2-GH\EBB_firmware\app.X\source\UBW.c
                gPulsesOn   0x000500       data     extern C:\Projects\EggBot2-GH\EBB_firmware\app.X\source\UBW.c
                  gRC2Ptr   0x000ea9       data     extern C:\Projects\EggBot2-GH\EBB_firmware\app.X\source\RCServo2.c
              gRC2RPORPtr   0x000eac       data     extern C:\Projects\EggBot2-GH\EBB_firmware\app.X\source\RCServo2.c
                  gRC2RPn   0x000e31       data     extern C:\Projects\EggBot2-GH\EBB_firmware\app.X\source\RCServo2.c
                 gRC2Rate   0x000e79       data     extern C:\Projects\EggBot2-GH\EBB_firmware\app.X\source\RCServo2.c
               gRC2SlotMS   0x000eab       data     extern C:\Projects\EggBot2-GH\EBB_firmware\app.X\source\RCServo2.c
                gRC2Slots   0x000eaa       data     extern C:\Projects\EggBot2-GH\EBB_firmware\app.X\source\RCServo2.c
               gRC2Target   0x000e49       data     extern C:\Projects\EggBot2-GH\EBB_firmware\app.X\source\RCServo2.c
                gRC2Value   0x000e01       data     extern C:\Projects\EggBot2-GH\EBB_firmware\app.X\source\RCServo2.c
            gRC2msCounter   0x000e00       data     extern C:\Projects\EggBot2-GH\EBB_firmware\app.X\source\RCServo2.c
gRCServoPoweroffCounterMS   0x000519       data     extern C:\Projects\EggBot2-GH\EBB_firmware\app.X\source\UBW.c
gRCServoPoweroffCounterReloadMS   0x00051d       data     extern C:\Projects\EggBot2-GH\EBB_firmware\app.X\source\UBW.c
           gUseRCPenServo   0x000af3       data     extern C:\Projects\EggBot2-GH\EBB_firmware\app.X\source\ebb.c
             gUseSolenoid   0x000af2       data     extern C:\Projects\EggBot2-GH\EBB_firmware\app.X\source\ebb.c
                g_BO_init   0x000ac4       data     extern C:\Projects\EggBot2-GH\EBB_firmware\app.X\source\UBW.c
        g_BO_strobe_delay   0x000ac8       data     extern C:\Projects\EggBot2-GH\EBB_firmware\app.X\source\UBW.c
         g_BO_strobe_mask   0x000ac5       data     extern C:\Projects\EggBot2-GH\EBB_firmware\app.X\source\UBW.c
          g_BO_wait_delay   0x000ac7       data     extern C:\Projects\EggBot2-GH\EBB_firmware\app.X\source\UBW.c
           g_BO_wait_mask   0x000ac6       data     extern C:\Projects\EggBot2-GH\EBB_firmware\app.X\source\UBW.c
            g_RC_next_ptr   0x000aa4       data     extern C:\Projects\EggBot2-GH\EBB_firmware\app.X\source\UBW.c
          g_RC_primed_ptr   0x000aa3       data     extern C:\Projects\EggBot2-GH\EBB_firmware\app.X\source\UBW.c
               g_RC_state   0x000129       data     extern C:\Projects\EggBot2-GH\EBB_firmware\app.X\source\UBW.c
          g_RC_timing_ptr   0x000aa5       data     extern C:\Projects\EggBot2-GH\EBB_firmware\app.X\source\UBW.c
               g_RC_value   0x000141       data     extern C:\Projects\EggBot2-GH\EBB_firmware\app.X\source\UBW.c
                 g_RX_buf   0x000300       data     extern C:\Projects\EggBot2-GH\EBB_firmware\app.X\source\UBW.c
              g_RX_buf_in   0x000acb       data     extern C:\Projects\EggBot2-GH\EBB_firmware\app.X\source\UBW.c
             g_RX_buf_out   0x000acc       data     extern C:\Projects\EggBot2-GH\EBB_firmware\app.X\source\UBW.c
         g_RX_command_buf   0x000240       data     extern C:\Projects\EggBot2-GH\EBB_firmware\app.X\source\UBW.c
                 g_TX_buf   0x000200       data     extern C:\Projects\EggBot2-GH\EBB_firmware\app.X\source\UBW.c
              g_TX_buf_in   0x000ac9       data     extern C:\Projects\EggBot2-GH\EBB_firmware\app.X\source\UBW.c
             g_TX_buf_out   0x000aca       data     extern C:\Projects\EggBot2-GH\EBB_firmware\app.X\source\UBW.c
           g_USART_RX_buf   0x000ab0       data     extern C:\Projects\EggBot2-GH\EBB_firmware\app.X\source\UBW.c
        g_USART_RX_buf_in   0x000acd       data     extern C:\Projects\EggBot2-GH\EBB_firmware\app.X\source\UBW.c
       g_USART_RX_buf_out   0x000ace       data     extern C:\Projects\EggBot2-GH\EBB_firmware\app.X\source\UBW.c
           g_USART_TX_buf   0x000aba       data     extern C:\Projects\EggBot2-GH\EBB_firmware\app.X\source\UBW.c
        g_USART_TX_buf_in   0x000acf       data     extern C:\Projects\EggBot2-GH\EBB_firmware\app.X\source\UBW.c
       g_USART_TX_buf_out   0x000ad0       data     extern C:\Projects\EggBot2-GH\EBB_firmware\app.X\source\UBW.c
             g_ack_enable   0x000ad1       data     extern C:\Projects\EggBot2-GH\EBB_firmware\app.X\source\UBW.c
             g_servo2_RPn   0x000eb6       data     extern C:\Projects\EggBot2-GH\EBB_firmware\app.X\source\RCServo2.c
             g_servo2_max   0x000eae       data     extern C:\Projects\EggBot2-GH\EBB_firmware\app.X\source\RCServo2.c
             g_servo2_min   0x000eb0       data     extern C:\Projects\EggBot2-GH\EBB_firmware\app.X\source\RCServo2.c
       g_servo2_rate_down   0x000eb4       data     extern C:\Projects\EggBot2-GH\EBB_firmware\app.X\source\RCServo2.c
         g_servo2_rate_up   0x000eb2       data     extern C:\Projects\EggBot2-GH\EBB_firmware\app.X\source\RCServo2.c
       globalStepCounter1   0x000ad3       data     static C:\Projects\EggBot2-GH\EBB_firmware\app.X\source\ebb.c
       globalStepCounter2   0x000ad7       data     static C:\Projects\EggBot2-GH\EBB_firmware\app.X\source\ebb.c
                        i   0x000ade       data     static C:\Projects\EggBot2-GH\EBB_firmware\app.X\source\ebb.c
                  inPipes   0x00048d       data     extern C:\Projects\EggBot2-GH\EBB_firmware\Microchip\USB\usb_device.c
                    in_cr   0x000565       data     static C:\Projects\EggBot2-GH\EBB_firmware\app.X\source\UBW.c
                   in_esc   0x000561       data     static C:\Projects\EggBot2-GH\EBB_firmware\app.X\source\UBW.c
             last_command   0x000521       data     static C:\Projects\EggBot2-GH\EBB_firmware\app.X\source\UBW.c
           last_fifo_size   0x000ad2       data     static C:\Projects\EggBot2-GH\EBB_firmware\app.X\source\UBW.c
              line_coding   0x000ccb       data     extern C:\Projects\EggBot2-GH\EBB_firmware\Microchip\USB\CDC Device Driver\usb_function_cdc.c
                 outPipes   0x000492       data     extern C:\Projects\EggBot2-GH\EBB_firmware\Microchip\USB\usb_device.c
   pBDTEntryEP0OutCurrent   0x00047b       data     extern C:\Projects\EggBot2-GH\EBB_firmware\Microchip\USB\usb_device.c
      pBDTEntryEP0OutNext   0x00047d       data     extern C:\Projects\EggBot2-GH\EBB_firmware\Microchip\USB\usb_device.c
              pBDTEntryIn   0x000485       data     extern C:\Projects\EggBot2-GH\EBB_firmware\Microchip\USB\usb_device.c
             pBDTEntryOut   0x00047f       data     extern C:\Projects\EggBot2-GH\EBB_firmware\Microchip\USB\usb_device.c
                  pCDCDst   0x000cde       data     extern C:\Projects\EggBot2-GH\EBB_firmware\Microchip\USB\CDC Device Driver\usb_function_cdc.c
                  pCDCSrc   0x000cdc       data     extern C:\Projects\EggBot2-GH\EBB_firmware\Microchip\USB\CDC Device Driver\usb_function_cdc.c
                     pDst   0x000499       data     extern C:\Projects\EggBot2-GH\EBB_firmware\Microchip\USB\usb_device.c
                     prom   0x000af4       data     static C:\MCC18\src\traditional\startup\c018i.c
                    sd000   0x000280       data     extern C:\Projects\EggBot2-GH\EBB_firmware\app.X\source\usb_descriptors.c
                    sd001   0x000284       data     extern C:\Projects\EggBot2-GH\EBB_firmware\app.X\source\usb_descriptors.c
                    sd002   0x00029c       data     extern C:\Projects\EggBot2-GH\EBB_firmware\app.X\source\usb_descriptors.c
                    sd003   0x0002d4       data     extern C:\Projects\EggBot2-GH\EBB_firmware\app.X\source\usb_descriptors.c
        shortPacketStatus   0x00048b       data     extern C:\Projects\EggBot2-GH\EBB_firmware\Microchip\USB\usb_device.c
                   stdout   0x0008fa       data     extern E:\c18v3.46\pic18-lt\cxx-framework\src\traditional\stdclib\stdout.c
     time_between_updates   0x000a96       data     extern C:\Projects\EggBot2-GH\EBB_firmware\app.X\source\UBW.c



                              Symbols - Sorted by Address
                     Name    Address   Location    Storage File                     
                ---------  ---------  ---------  --------- ---------                
                   _reset   0x001000    program     extern C:\Projects\EggBot2-GH\EBB_firmware\app.X\source\main.c
       ___return_lbl00000   0x001004    program     static                          
        Remapped_High_ISR   0x001008    program     extern C:\Projects\EggBot2-GH\EBB_firmware\app.X\source\main.c
       ___return_lbl00001   0x00100c    program     static                          
         Remapped_Low_ISR   0x001018    program     extern C:\Projects\EggBot2-GH\EBB_firmware\app.X\source\main.c
       ___return_lbl00002   0x00101c    program     static                          
                 high_ISR   0x00105c    program     extern C:\Projects\EggBot2-GH\EBB_firmware\app.X\source\ebb.c
               __tmplbl_0   0x001110    program     static                          
         ___else_lbl00002   0x001132    program     static                          
           ___if_lbl00001   0x001152    program     static                          
           ___if_lbl00003   0x001152    program     static                          
           ___if_lbl00004   0x001186    program     static                          
               __tmplbl_2   0x0011ca    program     static                          
               __tmplbl_1   0x0011fc    program     static                          
         ___else_lbl00007   0x00121a    program     static                          
           ___if_lbl00006   0x00121c    program     static                          
         ___else_lbl00009   0x001234    program     static                          
           ___if_lbl00008   0x001236    program     static                          
         ___else_lbl00016   0x001238    program     static                          
         ___else_lbl00011   0x001256    program     static                          
           ___if_lbl00010   0x001258    program     static                          
         ___else_lbl00013   0x001270    program     static                          
           ___if_lbl00015   0x001272    program     static                          
           ___if_lbl00014   0x001272    program     static                          
           ___if_lbl00012   0x001272    program     static                          
         ___else_lbl00018   0x00136c    program     static                          
           ___if_lbl00019   0x001378    program     static                          
           ___if_lbl00017   0x001378    program     static                          
           ___if_lbl00020   0x0013c8    program     static                          
         ___else_lbl00022   0x0014c2    program     static                          
           ___if_lbl00023   0x0014ce    program     static                          
           ___if_lbl00021   0x0014ce    program     static                          
           ___if_lbl00024   0x00151e    program     static                          
           ___if_lbl00025   0x001530    program     static                          
           ___if_lbl00026   0x001536    program     static                          
         ___else_lbl00031   0x001538    program     static                          
           ___if_lbl00027   0x001544    program     static                          
           ___if_lbl00028   0x00154a    program     static                          
           ___if_lbl00029   0x00154a    program     static                          
           ___if_lbl00030   0x00154a    program     static                          
         ___else_lbl00034   0x00158c    program     static                          
           ___if_lbl00036   0x001596    program     static                          
           ___if_lbl00032   0x001596    program     static                          
           ___if_lbl00033   0x001596    program     static                          
           ___if_lbl00035   0x001596    program     static                          
         ___else_lbl00052   0x001598    program     static                          
         ___else_lbl00039   0x001652    program     static                          
           ___if_lbl00037   0x001736    program     static                          
           ___if_lbl00038   0x001736    program     static                          
           ___if_lbl00040   0x001736    program     static                          
           ___if_lbl00041   0x00178a    program     static                          
         ___else_lbl00044   0x00178c    program     static                          
           ___if_lbl00045   0x00179e    program     static                          
           ___if_lbl00042   0x00179e    program     static                          
           ___if_lbl00043   0x00179e    program     static                          
         ___else_lbl00050   0x0017a0    program     static                          
         ___else_lbl00047   0x001824    program     static                          
           ___if_lbl00046   0x00182c    program     static                          
           ___if_lbl00051   0x001832    program     static                          
           ___if_lbl00049   0x001832    program     static                          
           ___if_lbl00048   0x001832    program     static                          
               __tmplbl_4   0x001838    program     static                          
               __tmplbl_3   0x001868    program     static                          
           ___if_lbl00054   0x001888    program     static                          
           ___if_lbl00055   0x00188c    program     static                          
           ___if_lbl00056   0x00188c    program     static                          
               __tmplbl_6   0x001892    program     static                          
               __tmplbl_7   0x001898    program     static                          
               __tmplbl_5   0x00189e    program     static                          
           ___if_lbl00060   0x0018a4    program     static                          
           ___if_lbl00059   0x0018a4    program     static                          
       ___return_lbl00000   0x0018a8    program     static                          
                 EBB_Init   0x0018c8    program     extern C:\Projects\EggBot2-GH\EBB_firmware\app.X\source\ebb.c
          ___for_lbl00064   0x0018dc    program     static                          
             __tmplbl_127   0x0018ee    program     static                          
          ___for_lbl00062   0x001abc    program     static                          
          ___for_lbl00063   0x001ac0    program     static                          
       ___return_lbl00061   0x001bb0    program     static                          
        WaitForRoomInFIFO   0x001bbe    program     extern C:\Projects\EggBot2-GH\EBB_firmware\app.X\source\ebb.c
         WaitForEmptyFIFO   0x001bc8    program     extern C:\Projects\EggBot2-GH\EBB_firmware\app.X\source\ebb.c
                  FIFOInc   0x001bd0    program     extern C:\Projects\EggBot2-GH\EBB_firmware\app.X\source\ebb.c
          parse_SC_packet   0x001be0    program     extern C:\Projects\EggBot2-GH\EBB_firmware\app.X\source\ebb.c
          parse_AM_packet   0x001d6a    program     extern C:\Projects\EggBot2-GH\EBB_firmware\app.X\source\ebb.c
          parse_LM_packet   0x002260    program     extern C:\Projects\EggBot2-GH\EBB_firmware\app.X\source\ebb.c
          parse_SM_packet   0x00242c    program     extern C:\Projects\EggBot2-GH\EBB_firmware\app.X\source\ebb.c
          parse_HM_packet   0x00255a    program     extern C:\Projects\EggBot2-GH\EBB_firmware\app.X\source\ebb.c
          parse_XM_packet   0x0028a4    program     extern C:\Projects\EggBot2-GH\EBB_firmware\app.X\source\ebb.c
               process_SM   0x0029ea    program     static C:\Projects\EggBot2-GH\EBB_firmware\app.X\source\ebb.c
            process_EStop   0x002e64    program     extern C:\Projects\EggBot2-GH\EBB_firmware\app.X\source\ebb.c
          parse_ES_packet   0x002ed0    program     extern C:\Projects\EggBot2-GH\EBB_firmware\app.X\source\ebb.c
          parse_QP_packet   0x002eda    program     extern C:\Projects\EggBot2-GH\EBB_firmware\app.X\source\ebb.c
          parse_TP_packet   0x002f00    program     extern C:\Projects\EggBot2-GH\EBB_firmware\app.X\source\ebb.c
          parse_SP_packet   0x002f3e    program     extern C:\Projects\EggBot2-GH\EBB_firmware\app.X\source\ebb.c
               process_SP   0x002fc2    program     extern C:\Projects\EggBot2-GH\EBB_firmware\app.X\source\ebb.c
          parse_EM_packet   0x00303e    program     extern C:\Projects\EggBot2-GH\EBB_firmware\app.X\source\ebb.c
          parse_NI_packet   0x00311c    program     extern C:\Projects\EggBot2-GH\EBB_firmware\app.X\source\ebb.c
          parse_ND_packet   0x00313e    program     extern C:\Projects\EggBot2-GH\EBB_firmware\app.X\source\ebb.c
          parse_SN_packet   0x003158    program     extern C:\Projects\EggBot2-GH\EBB_firmware\app.X\source\ebb.c
          parse_QN_packet   0x003198    program     extern C:\Projects\EggBot2-GH\EBB_firmware\app.X\source\ebb.c
          parse_SL_packet   0x0031bc    program     extern C:\Projects\EggBot2-GH\EBB_firmware\app.X\source\ebb.c
          parse_QL_packet   0x0031d6    program     extern C:\Projects\EggBot2-GH\EBB_firmware\app.X\source\ebb.c
          parse_QB_packet   0x0031fa    program     extern C:\Projects\EggBot2-GH\EBB_firmware\app.X\source\ebb.c
          parse_QC_packet   0x003224    program     extern C:\Projects\EggBot2-GH\EBB_firmware\app.X\source\ebb.c
          parse_QG_packet   0x00324c    program     extern C:\Projects\EggBot2-GH\EBB_firmware\app.X\source\ebb.c
          parse_SE_packet   0x0032fa    program     extern C:\Projects\EggBot2-GH\EBB_firmware\app.X\source\ebb.c
          parse_RM_packet   0x00342e    program     extern C:\Projects\EggBot2-GH\EBB_firmware\app.X\source\ebb.c
               process_QM   0x003430    program     extern C:\Projects\EggBot2-GH\EBB_firmware\app.X\source\ebb.c
          parse_QM_packet   0x0034ba    program     extern C:\Projects\EggBot2-GH\EBB_firmware\app.X\source\ebb.c
          parse_QS_packet   0x003530    program     extern C:\Projects\EggBot2-GH\EBB_firmware\app.X\source\ebb.c
       clear_StepCounters   0x00359c    program     extern C:\Projects\EggBot2-GH\EBB_firmware\app.X\source\ebb.c
          parse_CS_packet   0x0035b4    program     extern C:\Projects\EggBot2-GH\EBB_firmware\app.X\source\ebb.c
                   __pa_0   0x0035ba    program     static C:\Projects\EggBot2-GH\EBB_firmware\app.X\source\ebb.c
                   __pa_1   0x0035e6    program     static C:\Projects\EggBot2-GH\EBB_firmware\app.X\source\ebb.c
                   __pa_2   0x0035ec    program     static C:\Projects\EggBot2-GH\EBB_firmware\app.X\source\ebb.c
                   __pa_3   0x0035fa    program     static C:\Projects\EggBot2-GH\EBB_firmware\app.X\source\ebb.c
                   __pa_4   0x003608    program     static C:\Projects\EggBot2-GH\EBB_firmware\app.X\source\ebb.c
                   __pa_5   0x003620    program     static C:\Projects\EggBot2-GH\EBB_firmware\app.X\source\ebb.c
                   __pa_6   0x003632    program     static C:\Projects\EggBot2-GH\EBB_firmware\app.X\source\ebb.c
                   __pa_7   0x003640    program     static C:\Projects\EggBot2-GH\EBB_firmware\app.X\source\ebb.c
                   __pa_8   0x00365a    program     static C:\Projects\EggBot2-GH\EBB_firmware\app.X\source\ebb.c
                   __pa_9   0x003662    program     static C:\Projects\EggBot2-GH\EBB_firmware\app.X\source\ebb.c
                  __pa_10   0x003668    program     static C:\Projects\EggBot2-GH\EBB_firmware\app.X\source\ebb.c
                  __pa_11   0x003676    program     static C:\Projects\EggBot2-GH\EBB_firmware\app.X\source\ebb.c
                  __pa_12   0x00367c    program     static C:\Projects\EggBot2-GH\EBB_firmware\app.X\source\ebb.c
                  __pa_13   0x003694    program     static C:\Projects\EggBot2-GH\EBB_firmware\app.X\source\ebb.c
                  __pa_14   0x0036a0    program     static C:\Projects\EggBot2-GH\EBB_firmware\app.X\source\ebb.c
                  __pa_15   0x0036a8    program     static C:\Projects\EggBot2-GH\EBB_firmware\app.X\source\ebb.c
                  __pa_16   0x0036b4    program     static C:\Projects\EggBot2-GH\EBB_firmware\app.X\source\ebb.c
             __tmplbl_129   0x0036b4    program     static                          
             __tmplbl_131   0x0036b4    program     static                          
             __tmplbl_134   0x0036b4    program     static                          
             __tmplbl_135   0x0036b4    program     static                          
             __tmplbl_140   0x0036b4    program     static                          
             __tmplbl_142   0x0036b4    program     static                          
             __tmplbl_141   0x0036b4    program     static                          
                  __pa_17   0x0036c0    program     static C:\Projects\EggBot2-GH\EBB_firmware\app.X\source\ebb.c
                  __pa_18   0x0036d6    program     static C:\Projects\EggBot2-GH\EBB_firmware\app.X\source\ebb.c
                  __pa_19   0x0036ea    program     static C:\Projects\EggBot2-GH\EBB_firmware\app.X\source\ebb.c
                  __pa_20   0x0036fe    program     static C:\Projects\EggBot2-GH\EBB_firmware\app.X\source\ebb.c
                  __pa_21   0x003740    program     static C:\Projects\EggBot2-GH\EBB_firmware\app.X\source\ebb.c
                  __pa_22   0x003754    program     static C:\Projects\EggBot2-GH\EBB_firmware\app.X\source\ebb.c
                  __pa_23   0x003766    program     static C:\Projects\EggBot2-GH\EBB_firmware\app.X\source\ebb.c
                  __pa_24   0x00376c    program     static C:\Projects\EggBot2-GH\EBB_firmware\app.X\source\ebb.c
                  __pa_25   0x003782    program     static C:\Projects\EggBot2-GH\EBB_firmware\app.X\source\ebb.c
                  __pa_26   0x003796    program     static C:\Projects\EggBot2-GH\EBB_firmware\app.X\source\ebb.c
                  __pa_27   0x0037a0    program     static C:\Projects\EggBot2-GH\EBB_firmware\app.X\source\ebb.c
                  __pa_28   0x0037ae    program     static C:\Projects\EggBot2-GH\EBB_firmware\app.X\source\ebb.c
                  __pa_29   0x0037bc    program     static C:\Projects\EggBot2-GH\EBB_firmware\app.X\source\ebb.c
                  __pa_30   0x0037d2    program     static C:\Projects\EggBot2-GH\EBB_firmware\app.X\source\ebb.c
                  __pa_31   0x0037e8    program     static C:\Projects\EggBot2-GH\EBB_firmware\app.X\source\ebb.c
                  __pa_32   0x003802    program     static C:\Projects\EggBot2-GH\EBB_firmware\app.X\source\ebb.c
                  __pa_33   0x00381c    program     static C:\Projects\EggBot2-GH\EBB_firmware\app.X\source\ebb.c
                  __pa_34   0x003836    program     static C:\Projects\EggBot2-GH\EBB_firmware\app.X\source\ebb.c
                  __pa_35   0x003852    program     static C:\Projects\EggBot2-GH\EBB_firmware\app.X\source\ebb.c
                  __pa_36   0x00386e    program     static C:\Projects\EggBot2-GH\EBB_firmware\app.X\source\ebb.c
                  __pa_37   0x00387c    program     static C:\Projects\EggBot2-GH\EBB_firmware\app.X\source\ebb.c
                  __pa_38   0x003898    program     static C:\Projects\EggBot2-GH\EBB_firmware\app.X\source\ebb.c
                  __pa_39   0x0038b8    program     static C:\Projects\EggBot2-GH\EBB_firmware\app.X\source\ebb.c
                  __pa_40   0x0038ce    program     static C:\Projects\EggBot2-GH\EBB_firmware\app.X\source\ebb.c
                  __pa_41   0x0038e0    program     static C:\Projects\EggBot2-GH\EBB_firmware\app.X\source\ebb.c
                  __pa_42   0x0038e6    program     static C:\Projects\EggBot2-GH\EBB_firmware\app.X\source\ebb.c
                  __pa_43   0x003904    program     static C:\Projects\EggBot2-GH\EBB_firmware\app.X\source\ebb.c
                  __pa_44   0x003918    program     static C:\Projects\EggBot2-GH\EBB_firmware\app.X\source\ebb.c
                  __pa_45   0x003932    program     static C:\Projects\EggBot2-GH\EBB_firmware\app.X\source\ebb.c
                  __pa_46   0x00394c    program     static C:\Projects\EggBot2-GH\EBB_firmware\app.X\source\ebb.c
                  __pa_47   0x003966    program     static C:\Projects\EggBot2-GH\EBB_firmware\app.X\source\ebb.c
                  __pa_48   0x003978    program     static C:\Projects\EggBot2-GH\EBB_firmware\app.X\source\ebb.c
                  __pa_49   0x003984    program     static C:\Projects\EggBot2-GH\EBB_firmware\app.X\source\ebb.c
                  __pa_50   0x0039a4    program     static C:\Projects\EggBot2-GH\EBB_firmware\app.X\source\ebb.c
                  __pa_51   0x0039ba    program     static C:\Projects\EggBot2-GH\EBB_firmware\app.X\source\ebb.c
                  __pa_52   0x0039c4    program     static C:\Projects\EggBot2-GH\EBB_firmware\app.X\source\ebb.c
                  __pa_53   0x0039e0    program     static C:\Projects\EggBot2-GH\EBB_firmware\app.X\source\ebb.c
                  __pa_54   0x0039ec    program     static C:\Projects\EggBot2-GH\EBB_firmware\app.X\source\ebb.c
                  __pa_55   0x0039f6    program     static C:\Projects\EggBot2-GH\EBB_firmware\app.X\source\ebb.c
                  __pa_56   0x003a0c    program     static C:\Projects\EggBot2-GH\EBB_firmware\app.X\source\ebb.c
                  __pa_57   0x003a26    program     static C:\Projects\EggBot2-GH\EBB_firmware\app.X\source\ebb.c
                  __pa_58   0x003a44    program     static C:\Projects\EggBot2-GH\EBB_firmware\app.X\source\ebb.c
                  __pa_59   0x003a62    program     static C:\Projects\EggBot2-GH\EBB_firmware\app.X\source\ebb.c
                  __pa_60   0x003a7a    program     static C:\Projects\EggBot2-GH\EBB_firmware\app.X\source\ebb.c
                  __pa_61   0x003a82    program     static C:\Projects\EggBot2-GH\EBB_firmware\app.X\source\ebb.c
                  __pa_62   0x003a92    program     static C:\Projects\EggBot2-GH\EBB_firmware\app.X\source\ebb.c
                  __pa_63   0x003aa4    program     static C:\Projects\EggBot2-GH\EBB_firmware\app.X\source\ebb.c
                  __pa_64   0x003ab2    program     static C:\Projects\EggBot2-GH\EBB_firmware\app.X\source\ebb.c
                  __pa_65   0x003ac0    program     static C:\Projects\EggBot2-GH\EBB_firmware\app.X\source\ebb.c
                  __pa_66   0x003acc    program     static C:\Projects\EggBot2-GH\EBB_firmware\app.X\source\ebb.c
                  __pa_67   0x003ad8    program     static C:\Projects\EggBot2-GH\EBB_firmware\app.X\source\ebb.c
                  __pa_68   0x003af4    program     static C:\Projects\EggBot2-GH\EBB_firmware\app.X\source\ebb.c
                  __pa_69   0x003b10    program     static C:\Projects\EggBot2-GH\EBB_firmware\app.X\source\ebb.c
                  __pa_70   0x003b2c    program     static C:\Projects\EggBot2-GH\EBB_firmware\app.X\source\ebb.c
                  __pa_71   0x003b42    program     static C:\Projects\EggBot2-GH\EBB_firmware\app.X\source\ebb.c
                  __pa_72   0x003b4e    program     static C:\Projects\EggBot2-GH\EBB_firmware\app.X\source\ebb.c
                  __pa_73   0x003b68    program     static C:\Projects\EggBot2-GH\EBB_firmware\app.X\source\ebb.c
                  __pa_74   0x003b82    program     static C:\Projects\EggBot2-GH\EBB_firmware\app.X\source\ebb.c
                  __pa_75   0x003b9c    program     static C:\Projects\EggBot2-GH\EBB_firmware\app.X\source\ebb.c
                  __pa_76   0x003bb6    program     static C:\Projects\EggBot2-GH\EBB_firmware\app.X\source\ebb.c
                  __pa_77   0x003bd0    program     static C:\Projects\EggBot2-GH\EBB_firmware\app.X\source\ebb.c
                  __pa_78   0x003bea    program     static C:\Projects\EggBot2-GH\EBB_firmware\app.X\source\ebb.c
                  __pa_79   0x003bf4    program     static C:\Projects\EggBot2-GH\EBB_firmware\app.X\source\ebb.c
                  __pa_80   0x003c00    program     static C:\Projects\EggBot2-GH\EBB_firmware\app.X\source\ebb.c
                  __pa_81   0x003c0c    program     static C:\Projects\EggBot2-GH\EBB_firmware\app.X\source\ebb.c
                  __pa_82   0x003c1a    program     static C:\Projects\EggBot2-GH\EBB_firmware\app.X\source\ebb.c
                  __pa_83   0x003c28    program     static C:\Projects\EggBot2-GH\EBB_firmware\app.X\source\ebb.c
                  __pa_84   0x003c3c    program     static C:\Projects\EggBot2-GH\EBB_firmware\app.X\source\ebb.c
                  __pa_85   0x003c50    program     static C:\Projects\EggBot2-GH\EBB_firmware\app.X\source\ebb.c
                  __pa_86   0x003c64    program     static C:\Projects\EggBot2-GH\EBB_firmware\app.X\source\ebb.c
                  __pa_87   0x003c78    program     static C:\Projects\EggBot2-GH\EBB_firmware\app.X\source\ebb.c
                  __pa_88   0x003c86    program     static C:\Projects\EggBot2-GH\EBB_firmware\app.X\source\ebb.c
                  __pa_89   0x003c8e    program     static C:\Projects\EggBot2-GH\EBB_firmware\app.X\source\ebb.c
                  __pa_90   0x003c9e    program     static C:\Projects\EggBot2-GH\EBB_firmware\app.X\source\ebb.c
                  __pa_91   0x003cb0    program     static C:\Projects\EggBot2-GH\EBB_firmware\app.X\source\ebb.c
                  __pa_92   0x003cbc    program     static C:\Projects\EggBot2-GH\EBB_firmware\app.X\source\ebb.c
                  __pa_93   0x003cce    program     static C:\Projects\EggBot2-GH\EBB_firmware\app.X\source\ebb.c
                  __pa_94   0x003cd6    program     static C:\Projects\EggBot2-GH\EBB_firmware\app.X\source\ebb.c
                  __pa_95   0x003ce0    program     static C:\Projects\EggBot2-GH\EBB_firmware\app.X\source\ebb.c
                  __pa_96   0x003ce8    program     static C:\Projects\EggBot2-GH\EBB_firmware\app.X\source\ebb.c
                  __pa_97   0x003cf2    program     static C:\Projects\EggBot2-GH\EBB_firmware\app.X\source\ebb.c
                  __pa_98   0x003d02    program     static C:\Projects\EggBot2-GH\EBB_firmware\app.X\source\ebb.c
                  __pa_99   0x003d0a    program     static C:\Projects\EggBot2-GH\EBB_firmware\app.X\source\ebb.c
                 __pa_100   0x003d18    program     static C:\Projects\EggBot2-GH\EBB_firmware\app.X\source\ebb.c
                 __pa_101   0x003d26    program     static C:\Projects\EggBot2-GH\EBB_firmware\app.X\source\ebb.c
                 __pa_102   0x003d34    program     static C:\Projects\EggBot2-GH\EBB_firmware\app.X\source\ebb.c
                 __pa_103   0x003d42    program     static C:\Projects\EggBot2-GH\EBB_firmware\app.X\source\ebb.c
                 __pa_104   0x003d50    program     static C:\Projects\EggBot2-GH\EBB_firmware\app.X\source\ebb.c
                 __pa_105   0x003d54    program     static C:\Projects\EggBot2-GH\EBB_firmware\app.X\source\ebb.c
                 __pa_106   0x003d5e    program     static C:\Projects\EggBot2-GH\EBB_firmware\app.X\source\ebb.c
                 __pa_107   0x003d68    program     static C:\Projects\EggBot2-GH\EBB_firmware\app.X\source\ebb.c
                 __pa_108   0x003d72    program     static C:\Projects\EggBot2-GH\EBB_firmware\app.X\source\ebb.c
                 __pa_109   0x003d7a    program     static C:\Projects\EggBot2-GH\EBB_firmware\app.X\source\ebb.c
                 __pa_110   0x003d82    program     static C:\Projects\EggBot2-GH\EBB_firmware\app.X\source\ebb.c
                 __pa_111   0x003d9a    program     static C:\Projects\EggBot2-GH\EBB_firmware\app.X\source\ebb.c
                 __pa_112   0x003da4    program     static C:\Projects\EggBot2-GH\EBB_firmware\app.X\source\ebb.c
                 __pa_113   0x003dbc    program     static C:\Projects\EggBot2-GH\EBB_firmware\app.X\source\ebb.c
                 __pa_114   0x003dce    program     static C:\Projects\EggBot2-GH\EBB_firmware\app.X\source\ebb.c
                 __pa_115   0x003dd6    program     static C:\Projects\EggBot2-GH\EBB_firmware\app.X\source\ebb.c
                 __pa_116   0x003dec    program     static C:\Projects\EggBot2-GH\EBB_firmware\app.X\source\ebb.c
                 __pa_117   0x003e02    program     static C:\Projects\EggBot2-GH\EBB_firmware\app.X\source\ebb.c
                 __pa_118   0x003e0a    program     static C:\Projects\EggBot2-GH\EBB_firmware\app.X\source\ebb.c
                 __pa_119   0x003e1c    program     static C:\Projects\EggBot2-GH\EBB_firmware\app.X\source\ebb.c
                 __pa_120   0x003e2e    program     static C:\Projects\EggBot2-GH\EBB_firmware\app.X\source\ebb.c
                 __pa_121   0x003e3a    program     static C:\Projects\EggBot2-GH\EBB_firmware\app.X\source\ebb.c
                 __pa_122   0x003e44    program     static C:\Projects\EggBot2-GH\EBB_firmware\app.X\source\ebb.c
                 __pa_123   0x003e52    program     static C:\Projects\EggBot2-GH\EBB_firmware\app.X\source\ebb.c
                 __pa_124   0x003e6e    program     static C:\Projects\EggBot2-GH\EBB_firmware\app.X\source\ebb.c
                 __pa_125   0x003e7a    program     static C:\Projects\EggBot2-GH\EBB_firmware\app.X\source\ebb.c
                 __pa_126   0x003e8c    program     static C:\Projects\EggBot2-GH\EBB_firmware\app.X\source\ebb.c
                 __pa_127   0x003e9e    program     static C:\Projects\EggBot2-GH\EBB_firmware\app.X\source\ebb.c
             __tmplbl_154   0x003eb0    program     static                          
                 __pa_128   0x003eb0    program     static C:\Projects\EggBot2-GH\EBB_firmware\app.X\source\ebb.c
                 __pa_129   0x003ebc    program     static C:\Projects\EggBot2-GH\EBB_firmware\app.X\source\ebb.c
                 __pa_130   0x003ec4    program     static C:\Projects\EggBot2-GH\EBB_firmware\app.X\source\ebb.c
                 __pa_131   0x003ece    program     static C:\Projects\EggBot2-GH\EBB_firmware\app.X\source\ebb.c
                 __pa_132   0x003ed6    program     static C:\Projects\EggBot2-GH\EBB_firmware\app.X\source\ebb.c
                 __pa_133   0x003eec    program     static C:\Projects\EggBot2-GH\EBB_firmware\app.X\source\ebb.c
                 __pa_134   0x003f06    program     static C:\Projects\EggBot2-GH\EBB_firmware\app.X\source\ebb.c
                 __pa_135   0x003f1e    program     static C:\Projects\EggBot2-GH\EBB_firmware\app.X\source\ebb.c
                 __pa_136   0x003f36    program     static C:\Projects\EggBot2-GH\EBB_firmware\app.X\source\ebb.c
                 __pa_137   0x003f3e    program     static C:\Projects\EggBot2-GH\EBB_firmware\app.X\source\ebb.c
                 __pa_138   0x003f4a    program     static C:\Projects\EggBot2-GH\EBB_firmware\app.X\source\ebb.c
                 __pa_139   0x003f52    program     static C:\Projects\EggBot2-GH\EBB_firmware\app.X\source\ebb.c
                 __pa_140   0x003f5a    program     static C:\Projects\EggBot2-GH\EBB_firmware\app.X\source\ebb.c
                 __pa_141   0x003f70    program     static C:\Projects\EggBot2-GH\EBB_firmware\app.X\source\ebb.c
                 __pa_142   0x003f86    program     static C:\Projects\EggBot2-GH\EBB_firmware\app.X\source\ebb.c
             __tmplbl_153   0x003f86    program     static                          
                 __pa_143   0x003f90    program     static C:\Projects\EggBot2-GH\EBB_firmware\app.X\source\ebb.c
                 __pa_144   0x003f9e    program     static C:\Projects\EggBot2-GH\EBB_firmware\app.X\source\ebb.c
                 __pa_145   0x003faa    program     static C:\Projects\EggBot2-GH\EBB_firmware\app.X\source\ebb.c
                 __pa_146   0x003fb6    program     static C:\Projects\EggBot2-GH\EBB_firmware\app.X\source\ebb.c
             __tmplbl_156   0x003fb6    program     static                          
                 __pa_147   0x003fc2    program     static C:\Projects\EggBot2-GH\EBB_firmware\app.X\source\ebb.c
                 __pa_148   0x003fca    program     static C:\Projects\EggBot2-GH\EBB_firmware\app.X\source\ebb.c
                 __pa_149   0x003fd2    program     static C:\Projects\EggBot2-GH\EBB_firmware\app.X\source\ebb.c
                 __pa_150   0x003fda    program     static C:\Projects\EggBot2-GH\EBB_firmware\app.X\source\ebb.c
             __tmplbl_151   0x003fee    program     static                          
             __tmplbl_155   0x003fee    program     static                          
                 __pa_151   0x003fee    program     static C:\Projects\EggBot2-GH\EBB_firmware\app.X\source\ebb.c
                 __pa_152   0x004000    program     static C:\Projects\EggBot2-GH\EBB_firmware\app.X\source\ebb.c
                 __pa_153   0x004012    program     static C:\Projects\EggBot2-GH\EBB_firmware\app.X\source\ebb.c
                 __pa_154   0x004024    program     static C:\Projects\EggBot2-GH\EBB_firmware\app.X\source\ebb.c
                 __pa_155   0x004030    program     static C:\Projects\EggBot2-GH\EBB_firmware\app.X\source\ebb.c
                 __pa_156   0x00403a    program     static C:\Projects\EggBot2-GH\EBB_firmware\app.X\source\ebb.c
                 __pa_157   0x004046    program     static C:\Projects\EggBot2-GH\EBB_firmware\app.X\source\ebb.c
                 __pa_158   0x004050    program     static C:\Projects\EggBot2-GH\EBB_firmware\app.X\source\ebb.c
                 __pa_159   0x004060    program     static C:\Projects\EggBot2-GH\EBB_firmware\app.X\source\ebb.c
                 __pa_160   0x00406e    program     static C:\Projects\EggBot2-GH\EBB_firmware\app.X\source\ebb.c
                 __pa_161   0x00407c    program     static C:\Projects\EggBot2-GH\EBB_firmware\app.X\source\ebb.c
                 __pa_162   0x00408a    program     static C:\Projects\EggBot2-GH\EBB_firmware\app.X\source\ebb.c
                 __pa_163   0x004094    program     static C:\Projects\EggBot2-GH\EBB_firmware\app.X\source\ebb.c
                 __pa_164   0x0040a0    program     static C:\Projects\EggBot2-GH\EBB_firmware\app.X\source\ebb.c
                 __pa_165   0x0040ac    program     static C:\Projects\EggBot2-GH\EBB_firmware\app.X\source\ebb.c
             __tmplbl_152   0x0040ba    program     static                          
                 __pa_166   0x0040ba    program     static C:\Projects\EggBot2-GH\EBB_firmware\app.X\source\ebb.c
                 __pa_167   0x0040c6    program     static C:\Projects\EggBot2-GH\EBB_firmware\app.X\source\ebb.c
                 __pa_168   0x0040ce    program     static C:\Projects\EggBot2-GH\EBB_firmware\app.X\source\ebb.c
                 __pa_169   0x0040d4    program     static C:\Projects\EggBot2-GH\EBB_firmware\app.X\source\ebb.c
                 __pa_170   0x0040dc    program     static C:\Projects\EggBot2-GH\EBB_firmware\app.X\source\ebb.c
                 __pa_171   0x0040e6    program     static C:\Projects\EggBot2-GH\EBB_firmware\app.X\source\ebb.c
                 __pa_172   0x0040f0    program     static C:\Projects\EggBot2-GH\EBB_firmware\app.X\source\ebb.c
                 __pa_173   0x0040fa    program     static C:\Projects\EggBot2-GH\EBB_firmware\app.X\source\ebb.c
                 __pa_174   0x004104    program     static C:\Projects\EggBot2-GH\EBB_firmware\app.X\source\ebb.c
                 __pa_175   0x00410e    program     static C:\Projects\EggBot2-GH\EBB_firmware\app.X\source\ebb.c
                 __pa_176   0x004116    program     static C:\Projects\EggBot2-GH\EBB_firmware\app.X\source\ebb.c
                 __pa_177   0x004128    program     static C:\Projects\EggBot2-GH\EBB_firmware\app.X\source\ebb.c
                 __pa_178   0x004130    program     static C:\Projects\EggBot2-GH\EBB_firmware\app.X\source\ebb.c
                 __pa_179   0x004138    program     static C:\Projects\EggBot2-GH\EBB_firmware\app.X\source\ebb.c
                 __pa_180   0x004146    program     static C:\Projects\EggBot2-GH\EBB_firmware\app.X\source\ebb.c
                 __pa_181   0x004156    program     static C:\Projects\EggBot2-GH\EBB_firmware\app.X\source\ebb.c
                 __pa_182   0x004160    program     static C:\Projects\EggBot2-GH\EBB_firmware\app.X\source\ebb.c
                 __pa_183   0x00416c    program     static C:\Projects\EggBot2-GH\EBB_firmware\app.X\source\ebb.c
                 __pa_184   0x004178    program     static C:\Projects\EggBot2-GH\EBB_firmware\app.X\source\ebb.c
                 __pa_185   0x004180    program     static C:\Projects\EggBot2-GH\EBB_firmware\app.X\source\ebb.c
                 __pa_186   0x004188    program     static C:\Projects\EggBot2-GH\EBB_firmware\app.X\source\ebb.c
                 __pa_187   0x004194    program     static C:\Projects\EggBot2-GH\EBB_firmware\app.X\source\ebb.c
                 __pa_188   0x0041a2    program     static C:\Projects\EggBot2-GH\EBB_firmware\app.X\source\ebb.c
                 __pa_189   0x0041b0    program     static C:\Projects\EggBot2-GH\EBB_firmware\app.X\source\ebb.c
                 __pa_190   0x0041ba    program     static C:\Projects\EggBot2-GH\EBB_firmware\app.X\source\ebb.c
                 __pa_191   0x0041c2    program     static C:\Projects\EggBot2-GH\EBB_firmware\app.X\source\ebb.c
                 __pa_192   0x0041d0    program     static C:\Projects\EggBot2-GH\EBB_firmware\app.X\source\ebb.c
                 __pa_193   0x0041d8    program     static C:\Projects\EggBot2-GH\EBB_firmware\app.X\source\ebb.c
                 __pa_194   0x0041e0    program     static C:\Projects\EggBot2-GH\EBB_firmware\app.X\source\ebb.c
                 __pa_195   0x0041e6    program     static C:\Projects\EggBot2-GH\EBB_firmware\app.X\source\ebb.c
                  low_ISR   0x0041ee    program     extern C:\Projects\EggBot2-GH\EBB_firmware\app.X\source\UBW.c
                 UserInit   0x0046a2    program     extern C:\Projects\EggBot2-GH\EBB_firmware\app.X\source\UBW.c
                ProcessIO   0x004836    program     extern C:\Projects\EggBot2-GH\EBB_firmware\app.X\source\UBW.c
               _user_putc   0x004b1c    program     extern C:\Projects\EggBot2-GH\EBB_firmware\app.X\source\UBW.c
   check_and_send_TX_data   0x004b7a    program     extern C:\Projects\EggBot2-GH\EBB_firmware\app.X\source\UBW.c
             parse_packet   0x004bc6    program     extern C:\Projects\EggBot2-GH\EBB_firmware\app.X\source\UBW.c
                print_ack   0x005152    program     extern C:\Projects\EggBot2-GH\EBB_firmware\app.X\source\UBW.c
           parse_R_packet   0x005164    program     extern C:\Projects\EggBot2-GH\EBB_firmware\app.X\source\UBW.c
          parse_CU_packet   0x00516c    program     extern C:\Projects\EggBot2-GH\EBB_firmware\app.X\source\UBW.c
           parse_T_packet   0x005236    program     extern C:\Projects\EggBot2-GH\EBB_firmware\app.X\source\UBW.c
           parse_C_packet   0x00528e    program     extern C:\Projects\EggBot2-GH\EBB_firmware\app.X\source\UBW.c
          AnalogConfigure   0x0052ec    program     extern C:\Projects\EggBot2-GH\EBB_firmware\app.X\source\UBW.c
          parse_AC_packet   0x0053be    program     extern C:\Projects\EggBot2-GH\EBB_firmware\app.X\source\UBW.c
           parse_O_packet   0x0053ec    program     extern C:\Projects\EggBot2-GH\EBB_firmware\app.X\source\UBW.c
           parse_I_packet   0x00544e    program     extern C:\Projects\EggBot2-GH\EBB_firmware\app.X\source\UBW.c
           parse_V_packet   0x005488    program     extern C:\Projects\EggBot2-GH\EBB_firmware\app.X\source\UBW.c
           parse_A_packet   0x005492    program     extern C:\Projects\EggBot2-GH\EBB_firmware\app.X\source\UBW.c
          parse_MW_packet   0x00554c    program     extern C:\Projects\EggBot2-GH\EBB_firmware\app.X\source\UBW.c
          parse_MR_packet   0x005570    program     extern C:\Projects\EggBot2-GH\EBB_firmware\app.X\source\UBW.c
          parse_PD_packet   0x0055ac    program     extern C:\Projects\EggBot2-GH\EBB_firmware\app.X\source\UBW.c
          parse_PI_packet   0x0056d6    program     extern C:\Projects\EggBot2-GH\EBB_firmware\app.X\source\UBW.c
          parse_PO_packet   0x0057aa    program     extern C:\Projects\EggBot2-GH\EBB_firmware\app.X\source\UBW.c
          parse_TX_packet   0x0058d4    program     extern C:\Projects\EggBot2-GH\EBB_firmware\app.X\source\UBW.c
          parse_RX_packet   0x0058d8    program     extern C:\Projects\EggBot2-GH\EBB_firmware\app.X\source\UBW.c
          parse_CX_packet   0x0058dc    program     extern C:\Projects\EggBot2-GH\EBB_firmware\app.X\source\UBW.c
          parse_RC_packet   0x0058e0    program     extern C:\Projects\EggBot2-GH\EBB_firmware\app.X\source\UBW.c
          parse_BC_packet   0x0059c8    program     extern C:\Projects\EggBot2-GH\EBB_firmware\app.X\source\UBW.c
          parse_BO_packet   0x0059cc    program     extern C:\Projects\EggBot2-GH\EBB_firmware\app.X\source\UBW.c
          parse_BS_packet   0x0059d0    program     extern C:\Projects\EggBot2-GH\EBB_firmware\app.X\source\UBW.c
          parse_SS_packet   0x0059d4    program     extern C:\Projects\EggBot2-GH\EBB_firmware\app.X\source\UBW.c
          parse_RS_packet   0x0059d8    program     extern C:\Projects\EggBot2-GH\EBB_firmware\app.X\source\UBW.c
          parse_SI_packet   0x0059dc    program     extern C:\Projects\EggBot2-GH\EBB_firmware\app.X\source\UBW.c
          parse_RI_packet   0x0059e0    program     extern C:\Projects\EggBot2-GH\EBB_firmware\app.X\source\UBW.c
          parse_CI_packet   0x0059e4    program     extern C:\Projects\EggBot2-GH\EBB_firmware\app.X\source\UBW.c
          parse_PC_packet   0x0059e8    program     extern C:\Projects\EggBot2-GH\EBB_firmware\app.X\source\UBW.c
          parse_PG_packet   0x005a98    program     extern C:\Projects\EggBot2-GH\EBB_firmware\app.X\source\UBW.c
                LongDelay   0x005ac6    program     extern C:\Projects\EggBot2-GH\EBB_firmware\app.X\source\UBW.c
          ___for_lbl00388   0x005ada    program     static                          
        ___while_lbl00386   0x005ae2    program     static                          
        ___while_lbl00387   0x005af0    program     static                          
          ___for_lbl00384   0x005af0    program     static                          
       ___return_lbl00383   0x005af4    program     static                          
          ___for_lbl00385   0x005af4    program     static                          
          parse_BL_packet   0x005b02    program     extern C:\Projects\EggBot2-GH\EBB_firmware\app.X\source\UBW.c
       ___return_lbl00389   0x005b10    program     static                          
          parse_RB_packet   0x005b12    program     extern C:\Projects\EggBot2-GH\EBB_firmware\app.X\source\UBW.c
       ___return_lbl00390   0x005b1e    program     static                          
          parse_QR_packet   0x005b20    program     extern C:\Projects\EggBot2-GH\EBB_firmware\app.X\source\UBW.c
          parse_SR_packet   0x005b44    program     extern C:\Projects\EggBot2-GH\EBB_firmware\app.X\source\UBW.c
          parse_CK_packet   0x005bb2    program     extern C:\Projects\EggBot2-GH\EBB_firmware\app.X\source\UBW.c
populateDeviceStringWithName   0x005d22    program     extern C:\Projects\EggBot2-GH\EBB_firmware\app.X\source\UBW.c
          parse_ST_packet   0x005df0    program     extern C:\Projects\EggBot2-GH\EBB_firmware\app.X\source\UBW.c
          parse_QT_packet   0x005e7a    program     extern C:\Projects\EggBot2-GH\EBB_firmware\app.X\source\UBW.c
           extract_string   0x005efe    program     extern C:\Projects\EggBot2-GH\EBB_firmware\app.X\source\UBW.c
           extract_number   0x005f82    program     extern C:\Projects\EggBot2-GH\EBB_firmware\app.X\source\UBW.c
            extract_digit   0x00621c    program     extern C:\Projects\EggBot2-GH\EBB_firmware\app.X\source\UBW.c
             print_status   0x0062de    program     extern C:\Projects\EggBot2-GH\EBB_firmware\app.X\source\UBW.c
           BlinkUSBStatus   0x0062fa    program     extern C:\Projects\EggBot2-GH\EBB_firmware\app.X\source\UBW.c
         SetPinLATFromRPn   0x0063d6    program     extern C:\Projects\EggBot2-GH\EBB_firmware\app.X\source\UBW.c
        SetPinTRISFromRPn   0x006432    program     extern C:\Projects\EggBot2-GH\EBB_firmware\app.X\source\UBW.c
                   __pa_0   0x00648e    program     static C:\Projects\EggBot2-GH\EBB_firmware\app.X\source\UBW.c
                   __pa_1   0x0064a0    program     static C:\Projects\EggBot2-GH\EBB_firmware\app.X\source\UBW.c
                   __pa_2   0x0064a6    program     static C:\Projects\EggBot2-GH\EBB_firmware\app.X\source\UBW.c
             __tmplbl_239   0x0064b2    program     static                          
             __tmplbl_149   0x0064b2    program     static                          
             __tmplbl_162   0x0064b2    program     static                          
             __tmplbl_163   0x0064b2    program     static                          
             __tmplbl_164   0x0064b2    program     static                          
             __tmplbl_215   0x0064b2    program     static                          
                   __pa_3   0x0064b2    program     static C:\Projects\EggBot2-GH\EBB_firmware\app.X\source\UBW.c
             __tmplbl_218   0x0064b2    program     static                          
             __tmplbl_219   0x0064b2    program     static                          
             __tmplbl_220   0x0064b2    program     static                          
             __tmplbl_221   0x0064b2    program     static                          
             __tmplbl_236   0x0064b2    program     static                          
             __tmplbl_237   0x0064b2    program     static                          
             __tmplbl_238   0x0064b2    program     static                          
                   __pa_4   0x0064be    program     static C:\Projects\EggBot2-GH\EBB_firmware\app.X\source\UBW.c
                   __pa_5   0x0064c6    program     static C:\Projects\EggBot2-GH\EBB_firmware\app.X\source\UBW.c
                   __pa_6   0x0064d0    program     static C:\Projects\EggBot2-GH\EBB_firmware\app.X\source\UBW.c
                   __pa_7   0x0064da    program     static C:\Projects\EggBot2-GH\EBB_firmware\app.X\source\UBW.c
                   __pa_8   0x0064e4    program     static C:\Projects\EggBot2-GH\EBB_firmware\app.X\source\UBW.c
                   __pa_9   0x0064ea    program     static C:\Projects\EggBot2-GH\EBB_firmware\app.X\source\UBW.c
                  __pa_10   0x0064f4    program     static C:\Projects\EggBot2-GH\EBB_firmware\app.X\source\UBW.c
                  __pa_11   0x006502    program     static C:\Projects\EggBot2-GH\EBB_firmware\app.X\source\UBW.c
                  __pa_12   0x00650c    program     static C:\Projects\EggBot2-GH\EBB_firmware\app.X\source\UBW.c
                  __pa_13   0x006514    program     static C:\Projects\EggBot2-GH\EBB_firmware\app.X\source\UBW.c
                  __pa_14   0x00651c    program     static C:\Projects\EggBot2-GH\EBB_firmware\app.X\source\UBW.c
                  __pa_15   0x006528    program     static C:\Projects\EggBot2-GH\EBB_firmware\app.X\source\UBW.c
                  __pa_16   0x006532    program     static C:\Projects\EggBot2-GH\EBB_firmware\app.X\source\UBW.c
                  __pa_17   0x00653a    program     static C:\Projects\EggBot2-GH\EBB_firmware\app.X\source\UBW.c
                  __pa_18   0x00654c    program     static C:\Projects\EggBot2-GH\EBB_firmware\app.X\source\UBW.c
                  __pa_19   0x006552    program     static C:\Projects\EggBot2-GH\EBB_firmware\app.X\source\UBW.c
                  __pa_20   0x00655e    program     static C:\Projects\EggBot2-GH\EBB_firmware\app.X\source\UBW.c
                  __pa_21   0x00657a    program     static C:\Projects\EggBot2-GH\EBB_firmware\app.X\source\UBW.c
                  __pa_22   0x006588    program     static C:\Projects\EggBot2-GH\EBB_firmware\app.X\source\UBW.c
                  __pa_23   0x006596    program     static C:\Projects\EggBot2-GH\EBB_firmware\app.X\source\UBW.c
                  __pa_24   0x0065a4    program     static C:\Projects\EggBot2-GH\EBB_firmware\app.X\source\UBW.c
                  __pa_25   0x0065b0    program     static C:\Projects\EggBot2-GH\EBB_firmware\app.X\source\UBW.c
                  __pa_26   0x0065b6    program     static C:\Projects\EggBot2-GH\EBB_firmware\app.X\source\UBW.c
                  __pa_27   0x0065c0    program     static C:\Projects\EggBot2-GH\EBB_firmware\app.X\source\UBW.c
                  __pa_28   0x0065ca    program     static C:\Projects\EggBot2-GH\EBB_firmware\app.X\source\UBW.c
                  __pa_29   0x0065d2    program     static C:\Projects\EggBot2-GH\EBB_firmware\app.X\source\UBW.c
                  __pa_30   0x0065d8    program     static C:\Projects\EggBot2-GH\EBB_firmware\app.X\source\UBW.c
                  __pa_31   0x0065e6    program     static C:\Projects\EggBot2-GH\EBB_firmware\app.X\source\UBW.c
                  __pa_32   0x0065f4    program     static C:\Projects\EggBot2-GH\EBB_firmware\app.X\source\UBW.c
                  __pa_33   0x0065fc    program     static C:\Projects\EggBot2-GH\EBB_firmware\app.X\source\UBW.c
                  __pa_34   0x006618    program     static C:\Projects\EggBot2-GH\EBB_firmware\app.X\source\UBW.c
                  __pa_35   0x006634    program     static C:\Projects\EggBot2-GH\EBB_firmware\app.X\source\UBW.c
                  __pa_36   0x00664e    program     static C:\Projects\EggBot2-GH\EBB_firmware\app.X\source\UBW.c
                  __pa_37   0x00665a    program     static C:\Projects\EggBot2-GH\EBB_firmware\app.X\source\UBW.c
                  __pa_38   0x006664    program     static C:\Projects\EggBot2-GH\EBB_firmware\app.X\source\UBW.c
                  __pa_39   0x006670    program     static C:\Projects\EggBot2-GH\EBB_firmware\app.X\source\UBW.c
                  __pa_40   0x006678    program     static C:\Projects\EggBot2-GH\EBB_firmware\app.X\source\UBW.c
                  __pa_41   0x00668e    program     static C:\Projects\EggBot2-GH\EBB_firmware\app.X\source\UBW.c
                  __pa_42   0x00669c    program     static C:\Projects\EggBot2-GH\EBB_firmware\app.X\source\UBW.c
                  __pa_43   0x0066a6    program     static C:\Projects\EggBot2-GH\EBB_firmware\app.X\source\UBW.c
                  __pa_44   0x0066b8    program     static C:\Projects\EggBot2-GH\EBB_firmware\app.X\source\UBW.c
                  __pa_45   0x0066ca    program     static C:\Projects\EggBot2-GH\EBB_firmware\app.X\source\UBW.c
                  __pa_46   0x0066d6    program     static C:\Projects\EggBot2-GH\EBB_firmware\app.X\source\UBW.c
                  __pa_47   0x0066e2    program     static C:\Projects\EggBot2-GH\EBB_firmware\app.X\source\UBW.c
                  __pa_48   0x0066ec    program     static C:\Projects\EggBot2-GH\EBB_firmware\app.X\source\UBW.c
                  __pa_49   0x0066f6    program     static C:\Projects\EggBot2-GH\EBB_firmware\app.X\source\UBW.c
                  __pa_50   0x006700    program     static C:\Projects\EggBot2-GH\EBB_firmware\app.X\source\UBW.c
                  __pa_51   0x00670c    program     static C:\Projects\EggBot2-GH\EBB_firmware\app.X\source\UBW.c
                  __pa_52   0x006718    program     static C:\Projects\EggBot2-GH\EBB_firmware\app.X\source\UBW.c
                  __pa_53   0x006726    program     static C:\Projects\EggBot2-GH\EBB_firmware\app.X\source\UBW.c
                  __pa_54   0x006734    program     static C:\Projects\EggBot2-GH\EBB_firmware\app.X\source\UBW.c
                  __pa_55   0x006742    program     static C:\Projects\EggBot2-GH\EBB_firmware\app.X\source\UBW.c
                  __pa_56   0x006750    program     static C:\Projects\EggBot2-GH\EBB_firmware\app.X\source\UBW.c
                  __pa_57   0x00675e    program     static C:\Projects\EggBot2-GH\EBB_firmware\app.X\source\UBW.c
                  __pa_58   0x006768    program     static C:\Projects\EggBot2-GH\EBB_firmware\app.X\source\UBW.c
                  __pa_59   0x006772    program     static C:\Projects\EggBot2-GH\EBB_firmware\app.X\source\UBW.c
                  __pa_60   0x00677e    program     static C:\Projects\EggBot2-GH\EBB_firmware\app.X\source\UBW.c
                  __pa_61   0x006784    program     static C:\Projects\EggBot2-GH\EBB_firmware\app.X\source\UBW.c
                  __pa_62   0x00678e    program     static C:\Projects\EggBot2-GH\EBB_firmware\app.X\source\UBW.c
                  __pa_63   0x006794    program     static C:\Projects\EggBot2-GH\EBB_firmware\app.X\source\UBW.c
                  __pa_64   0x00679e    program     static C:\Projects\EggBot2-GH\EBB_firmware\app.X\source\UBW.c
                  __pa_65   0x0067a4    program     static C:\Projects\EggBot2-GH\EBB_firmware\app.X\source\UBW.c
                  __pa_66   0x0067ae    program     static C:\Projects\EggBot2-GH\EBB_firmware\app.X\source\UBW.c
             __tmplbl_216   0x0067b6    program     static                          
             __tmplbl_230   0x0067b6    program     static                          
                  __pa_67   0x0067b6    program     static C:\Projects\EggBot2-GH\EBB_firmware\app.X\source\UBW.c
             __tmplbl_226   0x0067b6    program     static                          
             __tmplbl_224   0x0067b6    program     static                          
             __tmplbl_235   0x0067b6    program     static                          
             __tmplbl_231   0x0067b6    program     static                          
             __tmplbl_225   0x0067b6    program     static                          
             __tmplbl_217   0x0067b6    program     static                          
                  __pa_68   0x0067ba    program     static C:\Projects\EggBot2-GH\EBB_firmware\app.X\source\UBW.c
                  __pa_69   0x0067c4    program     static C:\Projects\EggBot2-GH\EBB_firmware\app.X\source\UBW.c
                  __pa_70   0x0067ca    program     static C:\Projects\EggBot2-GH\EBB_firmware\app.X\source\UBW.c
                  __pa_71   0x0067d6    program     static C:\Projects\EggBot2-GH\EBB_firmware\app.X\source\UBW.c
                  __pa_72   0x0067e0    program     static C:\Projects\EggBot2-GH\EBB_firmware\app.X\source\UBW.c
                  __pa_73   0x0067ec    program     static C:\Projects\EggBot2-GH\EBB_firmware\app.X\source\UBW.c
                  __pa_74   0x0067f4    program     static C:\Projects\EggBot2-GH\EBB_firmware\app.X\source\UBW.c
                  __pa_75   0x006800    program     static C:\Projects\EggBot2-GH\EBB_firmware\app.X\source\UBW.c
                  __pa_76   0x00680a    program     static C:\Projects\EggBot2-GH\EBB_firmware\app.X\source\UBW.c
                  __pa_77   0x006812    program     static C:\Projects\EggBot2-GH\EBB_firmware\app.X\source\UBW.c
                  __pa_78   0x006820    program     static C:\Projects\EggBot2-GH\EBB_firmware\app.X\source\UBW.c
                  __pa_79   0x00682a    program     static C:\Projects\EggBot2-GH\EBB_firmware\app.X\source\UBW.c
                  __pa_80   0x006834    program     static C:\Projects\EggBot2-GH\EBB_firmware\app.X\source\UBW.c
                  __pa_81   0x00683c    program     static C:\Projects\EggBot2-GH\EBB_firmware\app.X\source\UBW.c
                  __pa_82   0x006846    program     static C:\Projects\EggBot2-GH\EBB_firmware\app.X\source\UBW.c
                  __pa_83   0x006854    program     static C:\Projects\EggBot2-GH\EBB_firmware\app.X\source\UBW.c
                  __pa_84   0x006860    program     static C:\Projects\EggBot2-GH\EBB_firmware\app.X\source\UBW.c
                  __pa_85   0x00686a    program     static C:\Projects\EggBot2-GH\EBB_firmware\app.X\source\UBW.c
                  __pa_86   0x006876    program     static C:\Projects\EggBot2-GH\EBB_firmware\app.X\source\UBW.c
                  __pa_87   0x006880    program     static C:\Projects\EggBot2-GH\EBB_firmware\app.X\source\UBW.c
                  __pa_88   0x00688e    program     static C:\Projects\EggBot2-GH\EBB_firmware\app.X\source\UBW.c
                  __pa_89   0x00689a    program     static C:\Projects\EggBot2-GH\EBB_firmware\app.X\source\UBW.c
                  __pa_90   0x0068a6    program     static C:\Projects\EggBot2-GH\EBB_firmware\app.X\source\UBW.c
                  __pa_91   0x0068ae    program     static C:\Projects\EggBot2-GH\EBB_firmware\app.X\source\UBW.c
                  __pa_92   0x0068b8    program     static C:\Projects\EggBot2-GH\EBB_firmware\app.X\source\UBW.c
                  __pa_93   0x0068c0    program     static C:\Projects\EggBot2-GH\EBB_firmware\app.X\source\UBW.c
                  __pa_94   0x0068c8    program     static C:\Projects\EggBot2-GH\EBB_firmware\app.X\source\UBW.c
                  __pa_95   0x0068d0    program     static C:\Projects\EggBot2-GH\EBB_firmware\app.X\source\UBW.c
                  __pa_96   0x0068d8    program     static C:\Projects\EggBot2-GH\EBB_firmware\app.X\source\UBW.c
                  __pa_97   0x0068e2    program     static C:\Projects\EggBot2-GH\EBB_firmware\app.X\source\UBW.c
                  __pa_98   0x0068ea    program     static C:\Projects\EggBot2-GH\EBB_firmware\app.X\source\UBW.c
                  __pa_99   0x0068f2    program     static C:\Projects\EggBot2-GH\EBB_firmware\app.X\source\UBW.c
                 __pa_100   0x0068fa    program     static C:\Projects\EggBot2-GH\EBB_firmware\app.X\source\UBW.c
                 __pa_101   0x00690a    program     static C:\Projects\EggBot2-GH\EBB_firmware\app.X\source\UBW.c
                 __pa_102   0x006916    program     static C:\Projects\EggBot2-GH\EBB_firmware\app.X\source\UBW.c
                 __pa_103   0x00691e    program     static C:\Projects\EggBot2-GH\EBB_firmware\app.X\source\UBW.c
                 __pa_104   0x006926    program     static C:\Projects\EggBot2-GH\EBB_firmware\app.X\source\UBW.c
                 __pa_105   0x006932    program     static C:\Projects\EggBot2-GH\EBB_firmware\app.X\source\UBW.c
                 __pa_106   0x00693e    program     static C:\Projects\EggBot2-GH\EBB_firmware\app.X\source\UBW.c
                 __pa_107   0x006946    program     static C:\Projects\EggBot2-GH\EBB_firmware\app.X\source\UBW.c
                 __pa_108   0x006952    program     static C:\Projects\EggBot2-GH\EBB_firmware\app.X\source\UBW.c
                 __pa_109   0x006958    program     static C:\Projects\EggBot2-GH\EBB_firmware\app.X\source\UBW.c
                 __pa_110   0x006960    program     static C:\Projects\EggBot2-GH\EBB_firmware\app.X\source\UBW.c
                 __pa_111   0x006966    program     static C:\Projects\EggBot2-GH\EBB_firmware\app.X\source\UBW.c
                 __pa_112   0x00696c    program     static C:\Projects\EggBot2-GH\EBB_firmware\app.X\source\UBW.c
                 __pa_113   0x006974    program     static C:\Projects\EggBot2-GH\EBB_firmware\app.X\source\UBW.c
            USBDeviceInit   0x00697c    program     extern C:\Projects\EggBot2-GH\EBB_firmware\Microchip\USB\usb_device.c
           USBDeviceTasks   0x006a50    program     extern C:\Projects\EggBot2-GH\EBB_firmware\Microchip\USB\usb_device.c
        USBEnableEndpoint   0x006bcc    program     extern C:\Projects\EggBot2-GH\EBB_firmware\Microchip\USB\usb_device.c
     USBTransferOnePacket   0x006c0a    program     extern C:\Projects\EggBot2-GH\EBB_firmware\Microchip\USB\usb_device.c
         USBStallEndpoint   0x006c8c    program     extern C:\Projects\EggBot2-GH\EBB_firmware\Microchip\USB\usb_device.c
              USBCancelIO   0x006cb4    program     extern C:\Projects\EggBot2-GH\EBB_firmware\Microchip\USB\usb_device.c
USBCtrlEPAllowStatusStage   0x006cee    program     extern C:\Projects\EggBot2-GH\EBB_firmware\Microchip\USB\usb_device.c
  USBCtrlEPAllowDataStage   0x006d44    program     extern C:\Projects\EggBot2-GH\EBB_firmware\Microchip\USB\usb_device.c
     USBConfigureEndpoint   0x006d84    program     static C:\Projects\EggBot2-GH\EBB_firmware\Microchip\USB\usb_device.c
 USBCtrlEPServiceComplete   0x006dd6    program     static C:\Projects\EggBot2-GH\EBB_firmware\Microchip\USB\usb_device.c
      USBCtrlTrfTxService   0x006e30    program     static C:\Projects\EggBot2-GH\EBB_firmware\Microchip\USB\usb_device.c
      USBCtrlTrfRxService   0x006eac    program     static C:\Projects\EggBot2-GH\EBB_firmware\Microchip\USB\usb_device.c
      USBStdSetCfgHandler   0x006f6c    program     static C:\Projects\EggBot2-GH\EBB_firmware\Microchip\USB\usb_device.c
      USBStdGetDscHandler   0x00700a    program     static C:\Projects\EggBot2-GH\EBB_firmware\Microchip\USB\usb_device.c
   USBStdGetStatusHandler   0x0070b0    program     static C:\Projects\EggBot2-GH\EBB_firmware\Microchip\USB\usb_device.c
          USBStallHandler   0x00711c    program     static C:\Projects\EggBot2-GH\EBB_firmware\Microchip\USB\usb_device.c
               USBSuspend   0x00713e    program     static C:\Projects\EggBot2-GH\EBB_firmware\Microchip\USB\usb_device.c
       USBWakeFromSuspend   0x00715e    program     static C:\Projects\EggBot2-GH\EBB_firmware\Microchip\USB\usb_device.c
         USBCtrlEPService   0x007182    program     static C:\Projects\EggBot2-GH\EBB_firmware\Microchip\USB\usb_device.c
   USBCtrlTrfSetupHandler   0x00720e    program     static C:\Projects\EggBot2-GH\EBB_firmware\Microchip\USB\usb_device.c
     USBCtrlTrfOutHandler   0x00724e    program     static C:\Projects\EggBot2-GH\EBB_firmware\Microchip\USB\usb_device.c
      USBCtrlTrfInHandler   0x00726c    program     static C:\Projects\EggBot2-GH\EBB_firmware\Microchip\USB\usb_device.c
       USBCheckStdRequest   0x0072e4    program     static C:\Projects\EggBot2-GH\EBB_firmware\Microchip\USB\usb_device.c
  USBStdFeatureReqHandler   0x007396    program     static C:\Projects\EggBot2-GH\EBB_firmware\Microchip\USB\usb_device.c
                   __pa_0   0x0074d8    program     static C:\Projects\EggBot2-GH\EBB_firmware\Microchip\USB\usb_device.c
                   __pa_1   0x0074e0    program     static C:\Projects\EggBot2-GH\EBB_firmware\Microchip\USB\usb_device.c
              __tmplbl_24   0x0074e6    program     static                          
              __tmplbl_35   0x0074e6    program     static                          
              __tmplbl_38   0x0074e6    program     static                          
              __tmplbl_39   0x0074e6    program     static                          
                   __pa_2   0x0074e6    program     static C:\Projects\EggBot2-GH\EBB_firmware\Microchip\USB\usb_device.c
              __tmplbl_40   0x0074e6    program     static                          
                   __pa_3   0x0074ea    program     static C:\Projects\EggBot2-GH\EBB_firmware\Microchip\USB\usb_device.c
                   __pa_4   0x0074f4    program     static C:\Projects\EggBot2-GH\EBB_firmware\Microchip\USB\usb_device.c
                   __pa_5   0x007504    program     static C:\Projects\EggBot2-GH\EBB_firmware\Microchip\USB\usb_device.c
                   __pa_6   0x00750e    program     static C:\Projects\EggBot2-GH\EBB_firmware\Microchip\USB\usb_device.c
                   __pa_7   0x007518    program     static C:\Projects\EggBot2-GH\EBB_firmware\Microchip\USB\usb_device.c
                   __pa_8   0x007528    program     static C:\Projects\EggBot2-GH\EBB_firmware\Microchip\USB\usb_device.c
                   __pa_9   0x007532    program     static C:\Projects\EggBot2-GH\EBB_firmware\Microchip\USB\usb_device.c
                  __pa_10   0x00753e    program     static C:\Projects\EggBot2-GH\EBB_firmware\Microchip\USB\usb_device.c
                  __pa_11   0x007548    program     static C:\Projects\EggBot2-GH\EBB_firmware\Microchip\USB\usb_device.c
                  __pa_12   0x00755c    program     static C:\Projects\EggBot2-GH\EBB_firmware\Microchip\USB\usb_device.c
                  __pa_13   0x007570    program     static C:\Projects\EggBot2-GH\EBB_firmware\Microchip\USB\usb_device.c
                  __pa_14   0x00757e    program     static C:\Projects\EggBot2-GH\EBB_firmware\Microchip\USB\usb_device.c
                  __pa_15   0x00758a    program     static C:\Projects\EggBot2-GH\EBB_firmware\Microchip\USB\usb_device.c
                  __pa_16   0x0075a4    program     static C:\Projects\EggBot2-GH\EBB_firmware\Microchip\USB\usb_device.c
                  __pa_17   0x0075b0    program     static C:\Projects\EggBot2-GH\EBB_firmware\Microchip\USB\usb_device.c
                  __pa_18   0x0075bc    program     static C:\Projects\EggBot2-GH\EBB_firmware\Microchip\USB\usb_device.c
                  __pa_19   0x0075c4    program     static C:\Projects\EggBot2-GH\EBB_firmware\Microchip\USB\usb_device.c
                  __pa_20   0x0075cc    program     static C:\Projects\EggBot2-GH\EBB_firmware\Microchip\USB\usb_device.c
                  __pa_21   0x0075d8    program     static C:\Projects\EggBot2-GH\EBB_firmware\Microchip\USB\usb_device.c
                  __pa_22   0x0075e8    program     static C:\Projects\EggBot2-GH\EBB_firmware\Microchip\USB\usb_device.c
                  __pa_23   0x0075f8    program     static C:\Projects\EggBot2-GH\EBB_firmware\Microchip\USB\usb_device.c
                  __pa_24   0x007606    program     static C:\Projects\EggBot2-GH\EBB_firmware\Microchip\USB\usb_device.c
                  __pa_25   0x007614    program     static C:\Projects\EggBot2-GH\EBB_firmware\Microchip\USB\usb_device.c
                  __pa_26   0x007622    program     static C:\Projects\EggBot2-GH\EBB_firmware\Microchip\USB\usb_device.c
                  __pa_27   0x00762c    program     static C:\Projects\EggBot2-GH\EBB_firmware\Microchip\USB\usb_device.c
                  __pa_28   0x007644    program     static C:\Projects\EggBot2-GH\EBB_firmware\Microchip\USB\usb_device.c
                  __pa_29   0x007650    program     static C:\Projects\EggBot2-GH\EBB_firmware\Microchip\USB\usb_device.c
                  __pa_30   0x007664    program     static C:\Projects\EggBot2-GH\EBB_firmware\Microchip\USB\usb_device.c
              __tmplbl_42   0x007664    program     static                          
                  __pa_31   0x007670    program     static C:\Projects\EggBot2-GH\EBB_firmware\Microchip\USB\usb_device.c
                  __pa_32   0x007682    program     static C:\Projects\EggBot2-GH\EBB_firmware\Microchip\USB\usb_device.c
                  __pa_33   0x007690    program     static C:\Projects\EggBot2-GH\EBB_firmware\Microchip\USB\usb_device.c
                  __pa_34   0x0076a2    program     static C:\Projects\EggBot2-GH\EBB_firmware\Microchip\USB\usb_device.c
                  __pa_35   0x0076ac    program     static C:\Projects\EggBot2-GH\EBB_firmware\Microchip\USB\usb_device.c
                  __pa_36   0x0076b6    program     static C:\Projects\EggBot2-GH\EBB_firmware\Microchip\USB\usb_device.c
                  __pa_37   0x0076bc    program     static C:\Projects\EggBot2-GH\EBB_firmware\Microchip\USB\usb_device.c
                  __pa_38   0x0076c4    program     static C:\Projects\EggBot2-GH\EBB_firmware\Microchip\USB\usb_device.c
                  __pa_39   0x0076ca    program     static C:\Projects\EggBot2-GH\EBB_firmware\Microchip\USB\usb_device.c
                  __pa_40   0x0076d8    program     static C:\Projects\EggBot2-GH\EBB_firmware\Microchip\USB\usb_device.c
                  __pa_41   0x0076e6    program     static C:\Projects\EggBot2-GH\EBB_firmware\Microchip\USB\usb_device.c
                  __pa_42   0x0076f0    program     static C:\Projects\EggBot2-GH\EBB_firmware\Microchip\USB\usb_device.c
                  __pa_43   0x0076fa    program     static C:\Projects\EggBot2-GH\EBB_firmware\Microchip\USB\usb_device.c
                  __pa_44   0x007702    program     static C:\Projects\EggBot2-GH\EBB_firmware\Microchip\USB\usb_device.c
                  __pa_45   0x00770e    program     static C:\Projects\EggBot2-GH\EBB_firmware\Microchip\USB\usb_device.c
                  __pa_46   0x007718    program     static C:\Projects\EggBot2-GH\EBB_firmware\Microchip\USB\usb_device.c
            s_put_n_chars   0x007720    program     static E:\c18v3.46\pic18-lt\cxx-framework\src\traditional\stdclib\vfprintf.c
                 vfprintf   0x00774c    program     extern E:\c18v3.46\pic18-lt\cxx-framework\src\traditional\stdclib\vfprintf.c
              __tmplbl_85   0x007776    program     static                          
              __tmplbl_44   0x008024    program     static                          
              __tmplbl_43   0x00803e    program     static                          
                   __pa_0   0x008060    program     static E:\c18v3.46\pic18-lt\cxx-framework\src\traditional\stdclib\vfprintf.c
                   __pa_1   0x008068    program     static E:\c18v3.46\pic18-lt\cxx-framework\src\traditional\stdclib\vfprintf.c
                   __pa_2   0x008072    program     static E:\c18v3.46\pic18-lt\cxx-framework\src\traditional\stdclib\vfprintf.c
                   __pa_3   0x00807c    program     static E:\c18v3.46\pic18-lt\cxx-framework\src\traditional\stdclib\vfprintf.c
                   __pa_4   0x008094    program     static E:\c18v3.46\pic18-lt\cxx-framework\src\traditional\stdclib\vfprintf.c
                   __pa_5   0x0080a8    program     static E:\c18v3.46\pic18-lt\cxx-framework\src\traditional\stdclib\vfprintf.c
                   __pa_6   0x0080c4    program     static E:\c18v3.46\pic18-lt\cxx-framework\src\traditional\stdclib\vfprintf.c
                   __pa_7   0x0080ce    program     static E:\c18v3.46\pic18-lt\cxx-framework\src\traditional\stdclib\vfprintf.c
                   __pa_8   0x0080da    program     static E:\c18v3.46\pic18-lt\cxx-framework\src\traditional\stdclib\vfprintf.c
                   __pa_9   0x0080fc    program     static E:\c18v3.46\pic18-lt\cxx-framework\src\traditional\stdclib\vfprintf.c
                  __pa_10   0x00811c    program     static E:\c18v3.46\pic18-lt\cxx-framework\src\traditional\stdclib\vfprintf.c
                  __pa_11   0x00812a    program     static E:\c18v3.46\pic18-lt\cxx-framework\src\traditional\stdclib\vfprintf.c
                  __pa_12   0x008140    program     static E:\c18v3.46\pic18-lt\cxx-framework\src\traditional\stdclib\vfprintf.c
                  __pa_13   0x00815a    program     static E:\c18v3.46\pic18-lt\cxx-framework\src\traditional\stdclib\vfprintf.c
                  __pa_14   0x008172    program     static E:\c18v3.46\pic18-lt\cxx-framework\src\traditional\stdclib\vfprintf.c
                  __pa_15   0x008182    program     static E:\c18v3.46\pic18-lt\cxx-framework\src\traditional\stdclib\vfprintf.c
                  __pa_16   0x008198    program     static E:\c18v3.46\pic18-lt\cxx-framework\src\traditional\stdclib\vfprintf.c
                  __pa_17   0x0081aa    program     static E:\c18v3.46\pic18-lt\cxx-framework\src\traditional\stdclib\vfprintf.c
                  __pa_18   0x0081bc    program     static E:\c18v3.46\pic18-lt\cxx-framework\src\traditional\stdclib\vfprintf.c
                  __pa_19   0x0081c6    program     static E:\c18v3.46\pic18-lt\cxx-framework\src\traditional\stdclib\vfprintf.c
                  __pa_20   0x0081d6    program     static E:\c18v3.46\pic18-lt\cxx-framework\src\traditional\stdclib\vfprintf.c
                  __pa_21   0x0081e6    program     static E:\c18v3.46\pic18-lt\cxx-framework\src\traditional\stdclib\vfprintf.c
                  __pa_22   0x0081f6    program     static E:\c18v3.46\pic18-lt\cxx-framework\src\traditional\stdclib\vfprintf.c
              __tmplbl_42   0x0081f6    program     static                          
                  __pa_23   0x008202    program     static E:\c18v3.46\pic18-lt\cxx-framework\src\traditional\stdclib\vfprintf.c
                  __pa_24   0x008210    program     static E:\c18v3.46\pic18-lt\cxx-framework\src\traditional\stdclib\vfprintf.c
                  __pa_25   0x008218    program     static E:\c18v3.46\pic18-lt\cxx-framework\src\traditional\stdclib\vfprintf.c
                  __pa_26   0x008222    program     static E:\c18v3.46\pic18-lt\cxx-framework\src\traditional\stdclib\vfprintf.c
                  __pa_27   0x00822c    program     static E:\c18v3.46\pic18-lt\cxx-framework\src\traditional\stdclib\vfprintf.c
                  __pa_28   0x008234    program     static E:\c18v3.46\pic18-lt\cxx-framework\src\traditional\stdclib\vfprintf.c
                  __pa_29   0x008242    program     static E:\c18v3.46\pic18-lt\cxx-framework\src\traditional\stdclib\vfprintf.c
                  __pa_30   0x00825e    program     static E:\c18v3.46\pic18-lt\cxx-framework\src\traditional\stdclib\vfprintf.c
                  __pa_31   0x008278    program     static E:\c18v3.46\pic18-lt\cxx-framework\src\traditional\stdclib\vfprintf.c
                  __pa_32   0x008292    program     static E:\c18v3.46\pic18-lt\cxx-framework\src\traditional\stdclib\vfprintf.c
                  __pa_33   0x0082aa    program     static E:\c18v3.46\pic18-lt\cxx-framework\src\traditional\stdclib\vfprintf.c
                  __pa_34   0x0082b4    program     static E:\c18v3.46\pic18-lt\cxx-framework\src\traditional\stdclib\vfprintf.c
                  __pa_35   0x0082c2    program     static E:\c18v3.46\pic18-lt\cxx-framework\src\traditional\stdclib\vfprintf.c
                  __pa_36   0x0082ca    program     static E:\c18v3.46\pic18-lt\cxx-framework\src\traditional\stdclib\vfprintf.c
                  __pa_37   0x0082d4    program     static E:\c18v3.46\pic18-lt\cxx-framework\src\traditional\stdclib\vfprintf.c
                  __pa_38   0x0082e4    program     static E:\c18v3.46\pic18-lt\cxx-framework\src\traditional\stdclib\vfprintf.c
                  __pa_39   0x0082f2    program     static E:\c18v3.46\pic18-lt\cxx-framework\src\traditional\stdclib\vfprintf.c
                  __pa_40   0x0082fe    program     static E:\c18v3.46\pic18-lt\cxx-framework\src\traditional\stdclib\vfprintf.c
                  __pa_41   0x00830a    program     static E:\c18v3.46\pic18-lt\cxx-framework\src\traditional\stdclib\vfprintf.c
                  __pa_42   0x008312    program     static E:\c18v3.46\pic18-lt\cxx-framework\src\traditional\stdclib\vfprintf.c
                  __pa_43   0x00831c    program     static E:\c18v3.46\pic18-lt\cxx-framework\src\traditional\stdclib\vfprintf.c
                  __pa_44   0x008322    program     static E:\c18v3.46\pic18-lt\cxx-framework\src\traditional\stdclib\vfprintf.c
                  __pa_45   0x00832c    program     static E:\c18v3.46\pic18-lt\cxx-framework\src\traditional\stdclib\vfprintf.c
                  __pa_46   0x008338    program     static E:\c18v3.46\pic18-lt\cxx-framework\src\traditional\stdclib\vfprintf.c
              __string_30   0x008342    program     static C:\Projects\EggBot2-GH\EBB_firmware\app.X\source\ebb.c
              __string_29   0x00834c    program     static C:\Projects\EggBot2-GH\EBB_firmware\app.X\source\ebb.c
              __string_28   0x00835d    program     static C:\Projects\EggBot2-GH\EBB_firmware\app.X\source\ebb.c
              __string_27   0x008364    program     static C:\Projects\EggBot2-GH\EBB_firmware\app.X\source\ebb.c
              __string_26   0x008370    program     static C:\Projects\EggBot2-GH\EBB_firmware\app.X\source\ebb.c
              __string_25   0x008379    program     static C:\Projects\EggBot2-GH\EBB_firmware\app.X\source\ebb.c
              __string_24   0x008385    program     static C:\Projects\EggBot2-GH\EBB_firmware\app.X\source\ebb.c
              __string_23   0x00838b    program     static C:\Projects\EggBot2-GH\EBB_firmware\app.X\source\ebb.c
              __string_22   0x008392    program     static C:\Projects\EggBot2-GH\EBB_firmware\app.X\source\ebb.c
              __string_21   0x00839b    program     static C:\Projects\EggBot2-GH\EBB_firmware\app.X\source\ebb.c
              __string_20   0x0083a0    program     static C:\Projects\EggBot2-GH\EBB_firmware\app.X\source\ebb.c
              __string_19   0x0083b5    program     static C:\Projects\EggBot2-GH\EBB_firmware\app.X\source\ebb.c
              __string_18   0x0083e0    program     static C:\Projects\EggBot2-GH\EBB_firmware\app.X\source\ebb.c
              __string_17   0x008415    program     static C:\Projects\EggBot2-GH\EBB_firmware\app.X\source\ebb.c
              __string_16   0x008440    program     static C:\Projects\EggBot2-GH\EBB_firmware\app.X\source\ebb.c
              __string_15   0x008475    program     static C:\Projects\EggBot2-GH\EBB_firmware\app.X\source\ebb.c
              __string_14   0x0084a8    program     static C:\Projects\EggBot2-GH\EBB_firmware\app.X\source\ebb.c
              __string_13   0x0084db    program     static C:\Projects\EggBot2-GH\EBB_firmware\app.X\source\ebb.c
              __string_12   0x00850b    program     static C:\Projects\EggBot2-GH\EBB_firmware\app.X\source\ebb.c
              __string_11   0x008531    program     static C:\Projects\EggBot2-GH\EBB_firmware\app.X\source\ebb.c
              __string_10   0x008561    program     static C:\Projects\EggBot2-GH\EBB_firmware\app.X\source\ebb.c
               __string_9   0x008587    program     static C:\Projects\EggBot2-GH\EBB_firmware\app.X\source\ebb.c
               __string_8   0x0085b7    program     static C:\Projects\EggBot2-GH\EBB_firmware\app.X\source\ebb.c
               __string_7   0x0085ea    program     static C:\Projects\EggBot2-GH\EBB_firmware\app.X\source\ebb.c
               __string_6   0x008615    program     static C:\Projects\EggBot2-GH\EBB_firmware\app.X\source\ebb.c
               __string_5   0x008640    program     static C:\Projects\EggBot2-GH\EBB_firmware\app.X\source\ebb.c
               __string_4   0x00866e    program     static C:\Projects\EggBot2-GH\EBB_firmware\app.X\source\ebb.c
               __string_3   0x00869c    program     static C:\Projects\EggBot2-GH\EBB_firmware\app.X\source\ebb.c
               __string_2   0x0086c4    program     static C:\Projects\EggBot2-GH\EBB_firmware\app.X\source\ebb.c
               __string_1   0x0086ee    program     static C:\Projects\EggBot2-GH\EBB_firmware\app.X\source\ebb.c
               __string_0   0x00871c    program     static C:\Projects\EggBot2-GH\EBB_firmware\app.X\source\ebb.c
              __string_32   0x00874c    program     static C:\Projects\EggBot2-GH\EBB_firmware\app.X\source\UBW.c
              __string_31   0x008758    program     static C:\Projects\EggBot2-GH\EBB_firmware\app.X\source\UBW.c
              __string_30   0x00877f    program     static C:\Projects\EggBot2-GH\EBB_firmware\app.X\source\UBW.c
              __string_29   0x008784    program     static C:\Projects\EggBot2-GH\EBB_firmware\app.X\source\UBW.c
              __string_28   0x008790    program     static C:\Projects\EggBot2-GH\EBB_firmware\app.X\source\UBW.c
              __string_27   0x00879c    program     static C:\Projects\EggBot2-GH\EBB_firmware\app.X\source\UBW.c
              __string_26   0x0087a9    program     static C:\Projects\EggBot2-GH\EBB_firmware\app.X\source\UBW.c
              __string_25   0x0087b6    program     static C:\Projects\EggBot2-GH\EBB_firmware\app.X\source\UBW.c
              __string_24   0x0087c2    program     static C:\Projects\EggBot2-GH\EBB_firmware\app.X\source\UBW.c
              __string_23   0x0087ce    program     static C:\Projects\EggBot2-GH\EBB_firmware\app.X\source\UBW.c
              __string_22   0x0087da    program     static C:\Projects\EggBot2-GH\EBB_firmware\app.X\source\UBW.c
              __string_21   0x0087e6    program     static C:\Projects\EggBot2-GH\EBB_firmware\app.X\source\UBW.c
              __string_20   0x0087ec    program     static C:\Projects\EggBot2-GH\EBB_firmware\app.X\source\UBW.c
              __string_19   0x0087f5    program     static C:\Projects\EggBot2-GH\EBB_firmware\app.X\source\UBW.c
              __string_18   0x0087ff    program     static C:\Projects\EggBot2-GH\EBB_firmware\app.X\source\UBW.c
              __string_17   0x00880a    program     static C:\Projects\EggBot2-GH\EBB_firmware\app.X\source\UBW.c
              __string_16   0x00880c    program     static C:\Projects\EggBot2-GH\EBB_firmware\app.X\source\UBW.c
              __string_15   0x008829    program     static C:\Projects\EggBot2-GH\EBB_firmware\app.X\source\UBW.c
              __string_14   0x008831    program     static C:\Projects\EggBot2-GH\EBB_firmware\app.X\source\UBW.c
              __string_13   0x008859    program     static C:\Projects\EggBot2-GH\EBB_firmware\app.X\source\UBW.c
              __string_12   0x00887c    program     static C:\Projects\EggBot2-GH\EBB_firmware\app.X\source\UBW.c
              __string_11   0x008895    program     static C:\Projects\EggBot2-GH\EBB_firmware\app.X\source\UBW.c
              __string_10   0x0088b6    program     static C:\Projects\EggBot2-GH\EBB_firmware\app.X\source\UBW.c
               __string_9   0x0088d5    program     static C:\Projects\EggBot2-GH\EBB_firmware\app.X\source\UBW.c
               __string_8   0x0088f1    program     static C:\Projects\EggBot2-GH\EBB_firmware\app.X\source\UBW.c
               __string_7   0x00890d    program     static C:\Projects\EggBot2-GH\EBB_firmware\app.X\source\UBW.c
               __string_6   0x00892c    program     static C:\Projects\EggBot2-GH\EBB_firmware\app.X\source\UBW.c
               __string_5   0x008932    program     static C:\Projects\EggBot2-GH\EBB_firmware\app.X\source\UBW.c
               __string_4   0x008935    program     static C:\Projects\EggBot2-GH\EBB_firmware\app.X\source\UBW.c
               __string_3   0x008938    program     static C:\Projects\EggBot2-GH\EBB_firmware\app.X\source\UBW.c
               __string_1   0x008944    program     static C:\Projects\EggBot2-GH\EBB_firmware\app.X\source\UBW.c
                 FLO1632U   0x008948    program     extern E:\c18v3.46\pic18-lt\cxx-framework\src\traditional\math\cast16FP.asm
                 FLO1632S   0x00894c    program     extern E:\c18v3.46\pic18-lt\cxx-framework\src\traditional\math\cast16FP.asm
                jI2F16Beg   0x00895c    program     static E:\c18v3.46\pic18-lt\cxx-framework\src\traditional\math\cast16FP.asm
                 FLO3232U   0x008972    program     extern E:\c18v3.46\pic18-lt\cxx-framework\src\traditional\math\cast32FP.asm
                 FLO3232S   0x008976    program     extern E:\c18v3.46\pic18-lt\cxx-framework\src\traditional\math\cast32FP.asm
                jI2F32Beg   0x00898e    program     static E:\c18v3.46\pic18-lt\cxx-framework\src\traditional\math\cast32FP.asm
                    FPD32   0x0089a8    program     extern E:\c18v3.46\pic18-lt\cxx-framework\src\traditional\math\divFP.asm
                 jANotInf   0x0089c6    program     static E:\c18v3.46\pic18-lt\cxx-framework\src\traditional\math\divFP.asm
              jSignedZero   0x0089d0    program     static E:\c18v3.46\pic18-lt\cxx-framework\src\traditional\math\divFP.asm
                jANotZero   0x0089da    program     static E:\c18v3.46\pic18-lt\cxx-framework\src\traditional\math\divFP.asm
                    jLoop   0x008a02    program     static E:\c18v3.46\pic18-lt\cxx-framework\src\traditional\math\divFP.asm
                jNoAdjust   0x008a26    program     static E:\c18v3.46\pic18-lt\cxx-framework\src\traditional\math\divFP.asm
                    jNext   0x008a28    program     static E:\c18v3.46\pic18-lt\cxx-framework\src\traditional\math\divFP.asm
                    FPM32   0x008a4e    program     extern E:\c18v3.46\pic18-lt\cxx-framework\src\traditional\math\mulFP.asm
                 jANotInf   0x008a6c    program     static E:\c18v3.46\pic18-lt\cxx-framework\src\traditional\math\mulFP.asm
              jBothFinite   0x008a7a    program     static E:\c18v3.46\pic18-lt\cxx-framework\src\traditional\math\mulFP.asm
                jHaveZero   0x008a82    program     static E:\c18v3.46\pic18-lt\cxx-framework\src\traditional\math\mulFP.asm
             jBothNotZero   0x008a86    program     static E:\c18v3.46\pic18-lt\cxx-framework\src\traditional\math\mulFP.asm
                    FPS32   0x008b28    program     extern E:\c18v3.46\pic18-lt\cxx-framework\src\traditional\math\addFP.asm
                    FPA32   0x008b2a    program     extern E:\c18v3.46\pic18-lt\cxx-framework\src\traditional\math\addFP.asm
                jBANotInf   0x008b48    program     static E:\c18v3.46\pic18-lt\cxx-framework\src\traditional\math\addFP.asm
                 jANotInf   0x008b52    program     static E:\c18v3.46\pic18-lt\cxx-framework\src\traditional\math\addFP.asm
                 jBNotInf   0x008b60    program     static E:\c18v3.46\pic18-lt\cxx-framework\src\traditional\math\addFP.asm
            jDifOrPosSign   0x008b74    program     static E:\c18v3.46\pic18-lt\cxx-framework\src\traditional\math\addFP.asm
             jNotBothZero   0x008b78    program     static E:\c18v3.46\pic18-lt\cxx-framework\src\traditional\math\addFP.asm
                 jAltBexp   0x008ba4    program     static E:\c18v3.46\pic18-lt\cxx-framework\src\traditional\math\addFP.asm
              jAandWsetup   0x008bb6    program     static E:\c18v3.46\pic18-lt\cxx-framework\src\traditional\math\addFP.asm
                 jANotNeg   0x008be6    program     static E:\c18v3.46\pic18-lt\cxx-framework\src\traditional\math\addFP.asm
                 jWNotNeg   0x008bfa    program     static E:\c18v3.46\pic18-lt\cxx-framework\src\traditional\math\addFP.asm
               jShiftLoop   0x008c00    program     static E:\c18v3.46\pic18-lt\cxx-framework\src\traditional\math\addFP.asm
               jShiftDone   0x008c0e    program     static E:\c18v3.46\pic18-lt\cxx-framework\src\traditional\math\addFP.asm
                jSignDone   0x008c3e    program     static E:\c18v3.46\pic18-lt\cxx-framework\src\traditional\math\addFP.asm
               jFinalSign   0x008c4e    program     static E:\c18v3.46\pic18-lt\cxx-framework\src\traditional\math\addFP.asm
                  INT3232   0x008c56    program     extern E:\c18v3.46\pic18-lt\cxx-framework\src\traditional\math\castFP32.asm
                     jMax   0x008c66    program     static E:\c18v3.46\pic18-lt\cxx-framework\src\traditional\math\castFP32.asm
                  jMaxPos   0x008c6a    program     static E:\c18v3.46\pic18-lt\cxx-framework\src\traditional\math\castFP32.asm
                   jWr123   0x008c70    program     static E:\c18v3.46\pic18-lt\cxx-framework\src\traditional\math\castFP32.asm
                  jMaxNeg   0x008c78    program     static E:\c18v3.46\pic18-lt\cxx-framework\src\traditional\math\castFP32.asm
                    jZero   0x008c7e    program     static E:\c18v3.46\pic18-lt\cxx-framework\src\traditional\math\castFP32.asm
                  jWrZ123   0x008c80    program     static E:\c18v3.46\pic18-lt\cxx-framework\src\traditional\math\castFP32.asm
                  jNotInf   0x008c84    program     static E:\c18v3.46\pic18-lt\cxx-framework\src\traditional\math\castFP32.asm
                    jLoop   0x008c96    program     static E:\c18v3.46\pic18-lt\cxx-framework\src\traditional\math\castFP32.asm
                jLoopExit   0x008caa    program     static E:\c18v3.46\pic18-lt\cxx-framework\src\traditional\math\castFP32.asm
                    jExit   0x008cc2    program     static E:\c18v3.46\pic18-lt\cxx-framework\src\traditional\math\castFP32.asm
            __FpReturnNaN   0x008cc4    program     extern E:\c18v3.46\pic18-lt\cxx-framework\src\traditional\math\packFP.asm
                 __FpExit   0x008cd0    program     extern E:\c18v3.46\pic18-lt\cxx-framework\src\traditional\math\packFP.asm
        __FpReturnSignInf   0x008cd2    program     extern E:\c18v3.46\pic18-lt\cxx-framework\src\traditional\math\packFP.asm
         __FpReturnNegInf   0x008cd6    program     extern E:\c18v3.46\pic18-lt\cxx-framework\src\traditional\math\packFP.asm
         __FpReturnPosInf   0x008cdc    program     extern E:\c18v3.46\pic18-lt\cxx-framework\src\traditional\math\packFP.asm
           jReturnPosInf0   0x008ce0    program     static E:\c18v3.46\pic18-lt\cxx-framework\src\traditional\math\packFP.asm
               jZero1and2   0x008ce4    program     static E:\c18v3.46\pic18-lt\cxx-framework\src\traditional\math\packFP.asm
       __FpReturnSignZero   0x008cea    program     extern E:\c18v3.46\pic18-lt\cxx-framework\src\traditional\math\packFP.asm
        __FpReturnNegZero   0x008cee    program     extern E:\c18v3.46\pic18-lt\cxx-framework\src\traditional\math\packFP.asm
        __FpReturnPosZero   0x008cf6    program     extern E:\c18v3.46\pic18-lt\cxx-framework\src\traditional\math\packFP.asm
                 __FpPack   0x008cfc    program     extern E:\c18v3.46\pic18-lt\cxx-framework\src\traditional\math\packFP.asm
                  jPkLoop   0x008d0a    program     static E:\c18v3.46\pic18-lt\cxx-framework\src\traditional\math\packFP.asm
             jPkShiftDone   0x008d26    program     static E:\c18v3.46\pic18-lt\cxx-framework\src\traditional\math\packFP.asm
               jPkRoundIt   0x008d3c    program     static E:\c18v3.46\pic18-lt\cxx-framework\src\traditional\math\packFP.asm
              __FpReturnW   0x008d54    program     extern E:\c18v3.46\pic18-lt\cxx-framework\src\traditional\math\packFP.asm
             jPkRoundDone   0x008d54    program     static E:\c18v3.46\pic18-lt\cxx-framework\src\traditional\math\packFP.asm
              __FpUnPackA   0x008d74    program     extern E:\c18v3.46\pic18-lt\cxx-framework\src\traditional\math\UnpackFP.asm
                  jUnpkA1   0x008d7e    program     static E:\c18v3.46\pic18-lt\cxx-framework\src\traditional\math\UnpackFP.asm
                 jUnpkANZ   0x008d8c    program     static E:\c18v3.46\pic18-lt\cxx-framework\src\traditional\math\UnpackFP.asm
                  jUnpkA2   0x008d96    program     static E:\c18v3.46\pic18-lt\cxx-framework\src\traditional\math\UnpackFP.asm
                 jUnpkNaN   0x008da0    program     static E:\c18v3.46\pic18-lt\cxx-framework\src\traditional\math\UnpackFP.asm
              __FpUnPackB   0x008da4    program     extern E:\c18v3.46\pic18-lt\cxx-framework\src\traditional\math\UnpackFP.asm
                  jUnpkB1   0x008dae    program     static E:\c18v3.46\pic18-lt\cxx-framework\src\traditional\math\UnpackFP.asm
                 jUnpkBNZ   0x008dbc    program     static E:\c18v3.46\pic18-lt\cxx-framework\src\traditional\math\UnpackFP.asm
                  jUnpkB2   0x008dc6    program     static E:\c18v3.46\pic18-lt\cxx-framework\src\traditional\math\UnpackFP.asm
                 FXD1616S   0x008dd0    program     extern E:\c18v3.46\pic18-lt\cxx-framework\src\traditional\math\fxd1616s.asm
                  DA1616S   0x008de2    program     static E:\c18v3.46\pic18-lt\cxx-framework\src\traditional\math\fxd1616s.asm
                   D1616S   0x008df2    program     static E:\c18v3.46\pic18-lt\cxx-framework\src\traditional\math\fxd1616s.asm
                 D1616SOK   0x008dfc    program     static E:\c18v3.46\pic18-lt\cxx-framework\src\traditional\math\fxd1616s.asm
                D1616SNEG   0x008e00    program     static E:\c18v3.46\pic18-lt\cxx-framework\src\traditional\math\fxd1616s.asm
                  D1616SX   0x008e12    program     static E:\c18v3.46\pic18-lt\cxx-framework\src\traditional\math\fxd1616s.asm
                  TALTB32   0x008e1c    program     extern E:\c18v3.46\pic18-lt\cxx-framework\src\traditional\math\ltFP.asm
              __FpCompare   0x008e2e    program     extern E:\c18v3.46\pic18-lt\cxx-framework\src\traditional\math\compFP.asm
             jBothNotZero   0x008e4c    program     static E:\c18v3.46\pic18-lt\cxx-framework\src\traditional\math\compFP.asm
                 jSignsEQ   0x008e50    program     static E:\c18v3.46\pic18-lt\cxx-framework\src\traditional\math\compFP.asm
                      jEQ   0x008e68    program     static E:\c18v3.46\pic18-lt\cxx-framework\src\traditional\math\compFP.asm
                      jNE   0x008e6c    program     static E:\c18v3.46\pic18-lt\cxx-framework\src\traditional\math\compFP.asm
                    jExch   0x008e74    program     static E:\c18v3.46\pic18-lt\cxx-framework\src\traditional\math\compFP.asm
                  jNoExch   0x008e94    program     static E:\c18v3.46\pic18-lt\cxx-framework\src\traditional\math\compFP.asm
                   jFinal   0x008e9e    program     static E:\c18v3.46\pic18-lt\cxx-framework\src\traditional\math\compFP.asm
                  jAisNeg   0x008eaa    program     static E:\c18v3.46\pic18-lt\cxx-framework\src\traditional\math\compFP.asm
                   jShift   0x008eb0    program     static E:\c18v3.46\pic18-lt\cxx-framework\src\traditional\math\compFP.asm
                   jExpEQ   0x008eba    program     static E:\c18v3.46\pic18-lt\cxx-framework\src\traditional\math\compFP.asm
                  jRotate   0x008ec6    program     static E:\c18v3.46\pic18-lt\cxx-framework\src\traditional\math\compFP.asm
                 FXM1616S   0x008ed8    program     extern E:\c18v3.46\pic18-lt\cxx-framework\src\traditional\math\fxm1616s.asm
               TSIGN1616A   0x008f24    program     static E:\c18v3.46\pic18-lt\cxx-framework\src\traditional\math\fxm1616s.asm
                     sqrt   0x008f32    program     extern E:\c18v3.46\pic18-lt\cxx-framework\src\traditional\stdclib\sqrt.c
                   __pa_0   0x0092d0    program     static E:\c18v3.46\pic18-lt\cxx-framework\src\traditional\stdclib\sqrt.c
                   __pa_1   0x0092da    program     static E:\c18v3.46\pic18-lt\cxx-framework\src\traditional\stdclib\sqrt.c
                   __pa_2   0x0092f4    program     static E:\c18v3.46\pic18-lt\cxx-framework\src\traditional\stdclib\sqrt.c
                   __pa_3   0x00930e    program     static E:\c18v3.46\pic18-lt\cxx-framework\src\traditional\stdclib\sqrt.c
                   __pa_4   0x009320    program     static E:\c18v3.46\pic18-lt\cxx-framework\src\traditional\stdclib\sqrt.c
                   __pa_5   0x009332    program     static E:\c18v3.46\pic18-lt\cxx-framework\src\traditional\stdclib\sqrt.c
                   __pa_6   0x009344    program     static E:\c18v3.46\pic18-lt\cxx-framework\src\traditional\stdclib\sqrt.c
                   __pa_7   0x009352    program     static E:\c18v3.46\pic18-lt\cxx-framework\src\traditional\stdclib\sqrt.c
                   __pa_8   0x00935a    program     static E:\c18v3.46\pic18-lt\cxx-framework\src\traditional\stdclib\sqrt.c
                   __pa_9   0x009364    program     static E:\c18v3.46\pic18-lt\cxx-framework\src\traditional\stdclib\sqrt.c
       USBCheckCDCRequest   0x009374    program     extern C:\Projects\EggBot2-GH\EBB_firmware\Microchip\USB\CDC Device Driver\usb_function_cdc.c
                CDCInitEP   0x009410    program     extern C:\Projects\EggBot2-GH\EBB_firmware\Microchip\USB\CDC Device Driver\usb_function_cdc.c
       USBCDCEventHandler   0x00945a    program     extern C:\Projects\EggBot2-GH\EBB_firmware\Microchip\USB\CDC Device Driver\usb_function_cdc.c
             getsUSBUSART   0x00949e    program     extern C:\Projects\EggBot2-GH\EBB_firmware\Microchip\USB\CDC Device Driver\usb_function_cdc.c
              putUSBUSART   0x009524    program     extern C:\Projects\EggBot2-GH\EBB_firmware\Microchip\USB\CDC Device Driver\usb_function_cdc.c
             putsUSBUSART   0x00953c    program     extern C:\Projects\EggBot2-GH\EBB_firmware\Microchip\USB\CDC Device Driver\usb_function_cdc.c
            putrsUSBUSART   0x009576    program     extern C:\Projects\EggBot2-GH\EBB_firmware\Microchip\USB\CDC Device Driver\usb_function_cdc.c
             CDCTxService   0x0095b2    program     extern C:\Projects\EggBot2-GH\EBB_firmware\Microchip\USB\CDC Device Driver\usb_function_cdc.c
                   __pa_0   0x009694    program     static C:\Projects\EggBot2-GH\EBB_firmware\Microchip\USB\CDC Device Driver\usb_function_cdc.c
                   __pa_1   0x0096a6    program     static C:\Projects\EggBot2-GH\EBB_firmware\Microchip\USB\CDC Device Driver\usb_function_cdc.c
                   __pa_2   0x0096b6    program     static C:\Projects\EggBot2-GH\EBB_firmware\Microchip\USB\CDC Device Driver\usb_function_cdc.c
                   __pa_3   0x0096c2    program     static C:\Projects\EggBot2-GH\EBB_firmware\Microchip\USB\CDC Device Driver\usb_function_cdc.c
                   __pa_4   0x0096d4    program     static C:\Projects\EggBot2-GH\EBB_firmware\Microchip\USB\CDC Device Driver\usb_function_cdc.c
                   __pa_5   0x0096ee    program     static C:\Projects\EggBot2-GH\EBB_firmware\Microchip\USB\CDC Device Driver\usb_function_cdc.c
                   __pa_6   0x0096fc    program     static C:\Projects\EggBot2-GH\EBB_firmware\Microchip\USB\CDC Device Driver\usb_function_cdc.c
                   __pa_7   0x00970a    program     static C:\Projects\EggBot2-GH\EBB_firmware\Microchip\USB\CDC Device Driver\usb_function_cdc.c
                   __pa_8   0x009710    program     static C:\Projects\EggBot2-GH\EBB_firmware\Microchip\USB\CDC Device Driver\usb_function_cdc.c
                   __pa_9   0x00971e    program     static C:\Projects\EggBot2-GH\EBB_firmware\Microchip\USB\CDC Device Driver\usb_function_cdc.c
                  __pa_10   0x00972c    program     static C:\Projects\EggBot2-GH\EBB_firmware\Microchip\USB\CDC Device Driver\usb_function_cdc.c
                  __pa_11   0x00973a    program     static C:\Projects\EggBot2-GH\EBB_firmware\Microchip\USB\CDC Device Driver\usb_function_cdc.c
                  __pa_12   0x009744    program     static C:\Projects\EggBot2-GH\EBB_firmware\Microchip\USB\CDC Device Driver\usb_function_cdc.c
                  __pa_13   0x009754    program     static C:\Projects\EggBot2-GH\EBB_firmware\Microchip\USB\CDC Device Driver\usb_function_cdc.c
                  __pa_14   0x009762    program     static C:\Projects\EggBot2-GH\EBB_firmware\Microchip\USB\CDC Device Driver\usb_function_cdc.c
            RCServo2_Init   0x009770    program     extern C:\Projects\EggBot2-GH\EBB_firmware\app.X\source\RCServo2.c
RCServo2_get_channel_from_RPn   0x009822    program     extern C:\Projects\EggBot2-GH\EBB_firmware\app.X\source\RCServo2.c
      RCServo2_S2_command   0x009860    program     extern C:\Projects\EggBot2-GH\EBB_firmware\app.X\source\RCServo2.c
            RCServo2_Move   0x00990a    program     extern C:\Projects\EggBot2-GH\EBB_firmware\app.X\source\RCServo2.c
                   __pa_0   0x009aa8    program     static C:\Projects\EggBot2-GH\EBB_firmware\app.X\source\RCServo2.c
                   __pa_1   0x009aba    program     static C:\Projects\EggBot2-GH\EBB_firmware\app.X\source\RCServo2.c
                   __pa_2   0x009ac4    program     static C:\Projects\EggBot2-GH\EBB_firmware\app.X\source\RCServo2.c
                   __pa_3   0x009aca    program     static C:\Projects\EggBot2-GH\EBB_firmware\app.X\source\RCServo2.c
                   __pa_4   0x009ad6    program     static C:\Projects\EggBot2-GH\EBB_firmware\app.X\source\RCServo2.c
                   __pa_5   0x009ae2    program     static C:\Projects\EggBot2-GH\EBB_firmware\app.X\source\RCServo2.c
                   __pa_6   0x009aee    program     static C:\Projects\EggBot2-GH\EBB_firmware\app.X\source\RCServo2.c
                   __pa_7   0x009af6    program     static C:\Projects\EggBot2-GH\EBB_firmware\app.X\source\RCServo2.c
                   __pa_8   0x009afa    program     static C:\Projects\EggBot2-GH\EBB_firmware\app.X\source\RCServo2.c
                   __pa_9   0x009b04    program     static C:\Projects\EggBot2-GH\EBB_firmware\app.X\source\RCServo2.c
                  __pa_10   0x009b14    program     static C:\Projects\EggBot2-GH\EBB_firmware\app.X\source\RCServo2.c
          WriteBytesFlash   0x009b20    program     extern E:\c18v3.46\pic18-lt\cxx-framework\src\pmc_common\Flash\WriteBytesFlash.c
        ___while_lbl00001   0x009c0a    program     static                          
        ___while_lbl00003   0x009c2e    program     static                          
           ___if_lbl00005   0x009c68    program     static                          
        ___while_lbl00004   0x009c6a    program     static                          
           ___if_lbl00006   0x009c8a    program     static                          
           ___if_lbl00007   0x009ca2    program     static                          
        ___while_lbl00002   0x009ce6    program     static                          
       ___return_lbl00000   0x009ce6    program     static                          
                     main   0x009cfe    program     extern C:\Projects\EggBot2-GH\EBB_firmware\app.X\source\main.c
         InitializeSystem   0x009d0a    program     static C:\Projects\EggBot2-GH\EBB_firmware\app.X\source\main.c
             USBCBSuspend   0x009d4a    program     extern C:\Projects\EggBot2-GH\EBB_firmware\app.X\source\main.c
     USBCBWakeFromSuspend   0x009d4c    program     extern C:\Projects\EggBot2-GH\EBB_firmware\app.X\source\main.c
        USBCB_SOF_Handler   0x009d4e    program     extern C:\Projects\EggBot2-GH\EBB_firmware\app.X\source\main.c
        USBCBErrorHandler   0x009d50    program     extern C:\Projects\EggBot2-GH\EBB_firmware\app.X\source\main.c
       USBCBCheckOtherReq   0x009d52    program     extern C:\Projects\EggBot2-GH\EBB_firmware\app.X\source\main.c
    USBCBStdSetDscHandler   0x009d56    program     extern C:\Projects\EggBot2-GH\EBB_firmware\app.X\source\main.c
              USBCBInitEP   0x009d58    program     extern C:\Projects\EggBot2-GH\EBB_firmware\app.X\source\main.c
          USBCBSendResume   0x009d5c    program     extern C:\Projects\EggBot2-GH\EBB_firmware\app.X\source\main.c
USER_USB_CALLBACK_EVENT_HANDLER   0x009da0    program     extern C:\Projects\EggBot2-GH\EBB_firmware\app.X\source\main.c
                   __pa_0   0x009e28    program     static C:\Projects\EggBot2-GH\EBB_firmware\app.X\source\main.c
                   __pa_1   0x009e3a    program     static C:\Projects\EggBot2-GH\EBB_firmware\app.X\source\main.c
                    ldexp   0x009e46    program     extern E:\c18v3.46\pic18-lt\cxx-framework\src\traditional\stdclib\ldexp.c
                   __pa_0   0x009f74    program     static E:\c18v3.46\pic18-lt\cxx-framework\src\traditional\stdclib\ldexp.c
                _UnpkMath   0x009f7e    program     extern E:\c18v3.46\pic18-lt\cxx-framework\src\traditional\stdclib\UnpkMath.c
                   __pa_0   0x00a08c    program     static E:\c18v3.46\pic18-lt\cxx-framework\src\traditional\stdclib\UnpkMath.c
                _PackMath   0x00a09a    program     extern E:\c18v3.46\pic18-lt\cxx-framework\src\traditional\stdclib\PackMath.c
                   __pa_0   0x00a162    program     static E:\c18v3.46\pic18-lt\cxx-framework\src\traditional\stdclib\PackMath.c
                   __pa_1   0x00a172    program     static E:\c18v3.46\pic18-lt\cxx-framework\src\traditional\stdclib\PackMath.c
                   __pa_2   0x00a180    program     static E:\c18v3.46\pic18-lt\cxx-framework\src\traditional\stdclib\PackMath.c
                   __pa_3   0x00a18a    program     static E:\c18v3.46\pic18-lt\cxx-framework\src\traditional\stdclib\PackMath.c
                   __pa_4   0x00a198    program     static E:\c18v3.46\pic18-lt\cxx-framework\src\traditional\stdclib\PackMath.c
                   __pa_5   0x00a1a0    program     static E:\c18v3.46\pic18-lt\cxx-framework\src\traditional\stdclib\PackMath.c
                   __pa_6   0x00a1a8    program     static E:\c18v3.46\pic18-lt\cxx-framework\src\traditional\stdclib\PackMath.c
               EraseFlash   0x00a1b4    program     extern E:\c18v3.46\pic18-lt\cxx-framework\src\pmc_common\Flash\EraseFlash.c
                   __pa_0   0x00a29e    program     static E:\c18v3.46\pic18-lt\cxx-framework\src\pmc_common\Flash\EraseFlash.c
                _do_cinit   0x00a2ac    program     extern C:\MCC18\src\traditional\startup\c018i.c
                     test   0x00a2c6    program     static                          
                copy_loop   0x00a31e    program     static                          
            copy_one_byte   0x00a324    program     static                          
             done_copying   0x00a332    program     static                          
       ___return_lbl00001   0x00a348    program     static                          
                     done   0x00a348    program     static                          
                   memset   0x00a34a    program     extern E:\c18v3.46\pic18-lt\cxx-framework\src\traditional\stdclib\memset.asm
                    jLoop   0x00a35e    program     static E:\c18v3.46\pic18-lt\cxx-framework\src\traditional\stdclib\memset.asm
              _2jContinue   0x00a36a    program     static E:\c18v3.46\pic18-lt\cxx-framework\src\traditional\stdclib\memset.asm
                   _3jEnd   0x00a374    program     static E:\c18v3.46\pic18-lt\cxx-framework\src\traditional\stdclib\memset.asm
                     jEnd   0x00a37c    program     static E:\c18v3.46\pic18-lt\cxx-framework\src\traditional\stdclib\memset.asm
                   strlen   0x00a37e    program     extern E:\c18v3.46\pic18-lt\cxx-framework\src\traditional\stdclib\strlen.asm
                    jLoop   0x00a38e    program     static E:\c18v3.46\pic18-lt\cxx-framework\src\traditional\stdclib\strlen.asm
                     jEnd   0x00a398    program     static E:\c18v3.46\pic18-lt\cxx-framework\src\traditional\stdclib\strlen.asm
                strlenpgm   0x00a39a    program     extern E:\c18v3.46\pic18-lt\cxx-framework\src\traditional\stdclib\slenpgm.asm
                    jLoop   0x00a3b8    program     static E:\c18v3.46\pic18-lt\cxx-framework\src\traditional\stdclib\slenpgm.asm
                   _2jEnd   0x00a3ce    program     static E:\c18v3.46\pic18-lt\cxx-framework\src\traditional\stdclib\slenpgm.asm
                     jEnd   0x00a3d0    program     static E:\c18v3.46\pic18-lt\cxx-framework\src\traditional\stdclib\slenpgm.asm
                   printf   0x00a3e4    program     extern E:\c18v3.46\pic18-lt\cxx-framework\src\traditional\stdclib\printf.c
                ReadFlash   0x00a47c    program     extern E:\c18v3.46\pic18-lt\cxx-framework\src\pmc_common\Flash\ReadFlash.c
        ___while_lbl00001   0x00a4c4    program     static                          
        ___while_lbl00002   0x00a4f6    program     static                          
       ___return_lbl00000   0x00a4f6    program     static                          
                     putc   0x00a50e    program     extern E:\c18v3.46\pic18-lt\cxx-framework\src\traditional\stdclib\putc.c
                  FXM3232   0x00a592    program     extern E:\c18v3.46\pic18-lt\cxx-framework\src\traditional\math\fxm3232.c
       ___return_lbl00000   0x00a600    program     static                          
               device_dsc   0x00a602    program     extern C:\Projects\EggBot2-GH\EBB_firmware\app.X\source\usb_descriptors.c
        configDescriptor1   0x00a614    program     extern C:\Projects\EggBot2-GH\EBB_firmware\app.X\source\usb_descriptors.c
               USB_CD_Ptr   0x00a657    program     extern C:\Projects\EggBot2-GH\EBB_firmware\app.X\source\usb_descriptors.c
                  toupper   0x00a65a    program     extern E:\c18v3.46\pic18-lt\cxx-framework\src\traditional\stdclib\toupper.asm
                 jNoMatch   0x00a680    program     static E:\c18v3.46\pic18-lt\cxx-framework\src\traditional\stdclib\toupper.asm
                  isdigit   0x00a682    program     extern E:\c18v3.46\pic18-lt\cxx-framework\src\traditional\stdclib\isdigit.asm
                   jMatch   0x00a6a2    program     static E:\c18v3.46\pic18-lt\cxx-framework\src\traditional\stdclib\isdigit.asm
                 jNoMatch   0x00a6a4    program     static E:\c18v3.46\pic18-lt\cxx-framework\src\traditional\stdclib\isdigit.asm
                 FXD3232U   0x00a6a6    program     extern E:\c18v3.46\pic18-lt\cxx-framework\src\traditional\math\fxd3232u.c
                     loop   0x00a6b4    program     static                          
                   _false   0x00a6e8    program     static                          
       ___return_lbl00000   0x00a6ec    program     static                          
                    st_OK   0x00a6ee    program     extern C:\Projects\EggBot2-GH\EBB_firmware\app.X\source\UBW.c
                  st_LFCR   0x00a6f3    program     extern C:\Projects\EggBot2-GH\EBB_firmware\app.X\source\UBW.c
               st_version   0x00a6f6    program     extern C:\Projects\EggBot2-GH\EBB_firmware\app.X\source\UBW.c
                 FXD1616U   0x00a724    program     extern E:\c18v3.46\pic18-lt\cxx-framework\src\traditional\math\fxd1616u.c
                     loop   0x00a72e    program     static                          
                  endloop   0x00a74a    program     static                          
       ___return_lbl00000   0x00a74e    program     static                          
            __zero_memory   0x00a750    program     extern E:\c18v3.46\pic18-lt\cxx-framework\src\traditional\proc\p18f46j50.asm
               zero_block   0x00a75e    program     static E:\c18v3.46\pic18-lt\cxx-framework\src\traditional\proc\p18f46j50.asm
                   loop_h   0x00a75e    program     static E:\c18v3.46\pic18-lt\cxx-framework\src\traditional\proc\p18f46j50.asm
                compare_l   0x00a766    program     static E:\c18v3.46\pic18-lt\cxx-framework\src\traditional\proc\p18f46j50.asm
                   loop_l   0x00a768    program     static E:\c18v3.46\pic18-lt\cxx-framework\src\traditional\proc\p18f46j50.asm
                 _startup   0x00a770    program     extern C:\MCC18\src\traditional\startup\c018i.c
                     loop   0x00a780    program     static                          
       ___return_lbl00000   0x00a78a    program     static                          
              _usart_putc   0x00a78c    program     extern E:\c18v3.46\pic18-lt\cxx-framework\src\pmc_common\USART\_usartpc.asm
                     loop   0x00a79c    program     static E:\c18v3.46\pic18-lt\cxx-framework\src\pmc_common\USART\_usartpc.asm
                  pow2x16   0x00a7a8    program     extern E:\c18v3.46\pic18-lt\cxx-framework\src\traditional\math\pow2x16.c
       ___return_lbl00000   0x00a7bc    program     static                          
                 s_digits   0x00a7be    program     static E:\c18v3.46\pic18-lt\cxx-framework\src\traditional\stdclib\vfprintf.c
                   __init   0x00a7d0    program     extern E:\c18v3.46\pic18-lt\cxx-framework\src\traditional\stdclib\__init.c
                  __tmp_0   0x000000       data     static C:\Projects\EggBot2-GH\EBB_firmware\app.X\source\RCServo2.c
                  __tmp_0   0x000000       data     static C:\Projects\EggBot2-GH\EBB_firmware\Microchip\USB\CDC Device Driver\usb_function_cdc.c
                  __tmp_0   0x000000       data     static C:\Projects\EggBot2-GH\EBB_firmware\app.X\source\main.c
                  __tmp_0   0x000000       data     static E:\c18v3.46\pic18-lt\cxx-framework\src\traditional\stdclib\PackMath.c
                  __tmp_0   0x000000       data     static E:\c18v3.46\pic18-lt\cxx-framework\src\traditional\stdclib\sqrt.c
                  __tmp_0   0x000000       data     static E:\c18v3.46\pic18-lt\cxx-framework\src\traditional\stdclib\printf.c
                  __tmp_0   0x000000       data     static E:\c18v3.46\pic18-lt\cxx-framework\src\pmc_common\Flash\WriteBytesFlash.c
                  __tmp_0   0x000000       data     static E:\c18v3.46\pic18-lt\cxx-framework\src\pmc_common\Flash\ReadFlash.c
                  __tmp_0   0x000000       data     static E:\c18v3.46\pic18-lt\cxx-framework\src\pmc_common\Flash\EraseFlash.c
                  __tmp_0   0x000000       data     static E:\c18v3.46\pic18-lt\cxx-framework\src\traditional\stdclib\UnpkMath.c
                  __tmp_0   0x000000       data     static E:\c18v3.46\pic18-lt\cxx-framework\src\traditional\stdclib\ldexp.c
                  __tmp_0   0x000000       data     static E:\c18v3.46\pic18-lt\cxx-framework\src\traditional\stdclib\vfprintf.c
                  __tmp_0   0x000000       data     static E:\c18v3.46\pic18-lt\cxx-framework\src\traditional\stdclib\putc.c
                  __tmp_0   0x000000       data     static C:\Projects\EggBot2-GH\EBB_firmware\app.X\source\UBW.c
                  __tmp_0   0x000000       data     static C:\Projects\EggBot2-GH\EBB_firmware\Microchip\USB\usb_device.c
                  __tmp_0   0x000000       data     static C:\Projects\EggBot2-GH\EBB_firmware\app.X\source\ebb.c
                  __REMB3   0x000034       data     extern E:\c18v3.46\pic18-lt\cxx-framework\src\traditional\math\aarg.asm
                 __AARGB7   0x000034       data     extern E:\c18v3.46\pic18-lt\cxx-framework\src\traditional\math\aarg.asm
                  __REMB2   0x000035       data     extern E:\c18v3.46\pic18-lt\cxx-framework\src\traditional\math\aarg.asm
                 __AARGB6   0x000035       data     extern E:\c18v3.46\pic18-lt\cxx-framework\src\traditional\math\aarg.asm
                  __REMB1   0x000036       data     extern E:\c18v3.46\pic18-lt\cxx-framework\src\traditional\math\aarg.asm
                 __AARGB5   0x000036       data     extern E:\c18v3.46\pic18-lt\cxx-framework\src\traditional\math\aarg.asm
                  __REMB0   0x000037       data     extern E:\c18v3.46\pic18-lt\cxx-framework\src\traditional\math\aarg.asm
                 __AARGB4   0x000037       data     extern E:\c18v3.46\pic18-lt\cxx-framework\src\traditional\math\aarg.asm
                 __AARGB3   0x000038       data     extern E:\c18v3.46\pic18-lt\cxx-framework\src\traditional\math\aarg.asm
                 __AARGB2   0x000039       data     extern E:\c18v3.46\pic18-lt\cxx-framework\src\traditional\math\aarg.asm
                 __AARGB1   0x00003a       data     extern E:\c18v3.46\pic18-lt\cxx-framework\src\traditional\math\aarg.asm
                 __AARGB0   0x00003b       data     extern E:\c18v3.46\pic18-lt\cxx-framework\src\traditional\math\aarg.asm
                   __AEXP   0x00003c       data     extern E:\c18v3.46\pic18-lt\cxx-framework\src\traditional\math\aarg.asm
                 __BARGB3   0x00003d       data     extern E:\c18v3.46\pic18-lt\cxx-framework\src\traditional\math\barg.asm
                 __BARGB2   0x00003e       data     extern E:\c18v3.46\pic18-lt\cxx-framework\src\traditional\math\barg.asm
                 __BARGB1   0x00003f       data     extern E:\c18v3.46\pic18-lt\cxx-framework\src\traditional\math\barg.asm
                 __BARGB0   0x000040       data     extern E:\c18v3.46\pic18-lt\cxx-framework\src\traditional\math\barg.asm
                   __BEXP   0x000041       data     extern E:\c18v3.46\pic18-lt\cxx-framework\src\traditional\math\barg.asm
                     SIGN   0x000042       data     extern E:\c18v3.46\pic18-lt\cxx-framework\src\traditional\math\cmath18.asm
            __FPFLAGSbits   0x000043       data     extern E:\c18v3.46\pic18-lt\cxx-framework\src\traditional\math\cmath18.asm
                __FPFLAGS   0x000043       data     extern E:\c18v3.46\pic18-lt\cxx-framework\src\traditional\math\cmath18.asm
                 __TEMPB3   0x000044       data     extern E:\c18v3.46\pic18-lt\cxx-framework\src\traditional\math\temparg.asm
                 __TEMPB2   0x000045       data     extern E:\c18v3.46\pic18-lt\cxx-framework\src\traditional\math\temparg.asm
                 __TEMPB1   0x000046       data     extern E:\c18v3.46\pic18-lt\cxx-framework\src\traditional\math\temparg.asm
                 __TEMPB0   0x000047       data     extern E:\c18v3.46\pic18-lt\cxx-framework\src\traditional\math\temparg.asm
                   __TEMP   0x000047       data     extern E:\c18v3.46\pic18-lt\cxx-framework\src\traditional\math\temparg.asm
                  __tmp_1   0x000048       data     static C:\Projects\EggBot2-GH\EBB_firmware\app.X\source\ebb.c
                  __tmp_1   0x000050       data     static C:\Projects\EggBot2-GH\EBB_firmware\app.X\source\UBW.c
               ISR_A_FIFO   0x000100       data     extern C:\Projects\EggBot2-GH\EBB_firmware\app.X\source\UBW.c
               ISR_D_FIFO   0x000120       data     extern C:\Projects\EggBot2-GH\EBB_firmware\app.X\source\UBW.c
               g_RC_state   0x000129       data     extern C:\Projects\EggBot2-GH\EBB_firmware\app.X\source\UBW.c
               g_RC_value   0x000141       data     extern C:\Projects\EggBot2-GH\EBB_firmware\app.X\source\UBW.c
                 g_TX_buf   0x000200       data     extern C:\Projects\EggBot2-GH\EBB_firmware\app.X\source\UBW.c
         g_RX_command_buf   0x000240       data     extern C:\Projects\EggBot2-GH\EBB_firmware\app.X\source\UBW.c
                    sd000   0x000280       data     extern C:\Projects\EggBot2-GH\EBB_firmware\app.X\source\usb_descriptors.c
                    sd001   0x000284       data     extern C:\Projects\EggBot2-GH\EBB_firmware\app.X\source\usb_descriptors.c
                    sd002   0x00029c       data     extern C:\Projects\EggBot2-GH\EBB_firmware\app.X\source\usb_descriptors.c
                    sd003   0x0002d4       data     extern C:\Projects\EggBot2-GH\EBB_firmware\app.X\source\usb_descriptors.c
               USB_SD_Ptr   0x0002f6       data     extern C:\Projects\EggBot2-GH\EBB_firmware\app.X\source\usb_descriptors.c
              delay_count   0x0002fe       data     static C:\Projects\EggBot2-GH\EBB_firmware\app.X\source\main.c
                 g_RX_buf   0x000300       data     extern C:\Projects\EggBot2-GH\EBB_firmware\app.X\source\UBW.c
                      BDT   0x000400       data     extern C:\Projects\EggBot2-GH\EBB_firmware\Microchip\USB\usb_device.c
                 SetupPkt   0x000430       data     extern C:\Projects\EggBot2-GH\EBB_firmware\Microchip\USB\usb_device.c
              CtrlTrfData   0x000438       data     extern C:\Projects\EggBot2-GH\EBB_firmware\Microchip\USB\usb_device.c
           USBDeviceState   0x000478       data     extern C:\Projects\EggBot2-GH\EBB_firmware\Microchip\USB\usb_device.c
   USBActiveConfiguration   0x000479       data     extern C:\Projects\EggBot2-GH\EBB_firmware\Microchip\USB\usb_device.c
    USBAlternateInterface   0x00047a       data     extern C:\Projects\EggBot2-GH\EBB_firmware\Microchip\USB\usb_device.c
   pBDTEntryEP0OutCurrent   0x00047b       data     extern C:\Projects\EggBot2-GH\EBB_firmware\Microchip\USB\usb_device.c
      pBDTEntryEP0OutNext   0x00047d       data     extern C:\Projects\EggBot2-GH\EBB_firmware\Microchip\USB\usb_device.c
             pBDTEntryOut   0x00047f       data     extern C:\Projects\EggBot2-GH\EBB_firmware\Microchip\USB\usb_device.c
              pBDTEntryIn   0x000485       data     extern C:\Projects\EggBot2-GH\EBB_firmware\Microchip\USB\usb_device.c
        shortPacketStatus   0x00048b       data     extern C:\Projects\EggBot2-GH\EBB_firmware\Microchip\USB\usb_device.c
     controlTransferState   0x00048c       data     extern C:\Projects\EggBot2-GH\EBB_firmware\Microchip\USB\usb_device.c
                  inPipes   0x00048d       data     extern C:\Projects\EggBot2-GH\EBB_firmware\Microchip\USB\usb_device.c
                 outPipes   0x000492       data     extern C:\Projects\EggBot2-GH\EBB_firmware\Microchip\USB\usb_device.c
                     pDst   0x000499       data     extern C:\Projects\EggBot2-GH\EBB_firmware\Microchip\USB\usb_device.c
             RemoteWakeup   0x00049b       data     extern C:\Projects\EggBot2-GH\EBB_firmware\Microchip\USB\usb_device.c
        USBBusIsSuspended   0x00049c       data     extern C:\Projects\EggBot2-GH\EBB_firmware\Microchip\USB\usb_device.c
                USTATcopy   0x00049d       data     extern C:\Projects\EggBot2-GH\EBB_firmware\Microchip\USB\usb_device.c
          endpoint_number   0x00049e       data     extern C:\Projects\EggBot2-GH\EBB_firmware\Microchip\USB\usb_device.c
       BothEP0OutUOWNsSet   0x00049f       data     extern C:\Projects\EggBot2-GH\EBB_firmware\Microchip\USB\usb_device.c
               ep_data_in   0x0004a0       data     extern C:\Projects\EggBot2-GH\EBB_firmware\Microchip\USB\usb_device.c
              ep_data_out   0x0004a3       data     extern C:\Projects\EggBot2-GH\EBB_firmware\Microchip\USB\usb_device.c
USBStatusStageTimeoutCounter   0x0004a6       data     extern C:\Projects\EggBot2-GH\EBB_firmware\Microchip\USB\usb_device.c
USBDeferStatusStagePacket   0x0004a7       data     extern C:\Projects\EggBot2-GH\EBB_firmware\Microchip\USB\usb_device.c
USBStatusStageEnabledFlag1   0x0004a8       data     extern C:\Projects\EggBot2-GH\EBB_firmware\Microchip\USB\usb_device.c
USBStatusStageEnabledFlag2   0x0004a9       data     extern C:\Projects\EggBot2-GH\EBB_firmware\Microchip\USB\usb_device.c
USBDeferINDataStagePackets   0x0004aa       data     extern C:\Projects\EggBot2-GH\EBB_firmware\Microchip\USB\usb_device.c
USBDeferOUTDataStagePackets   0x0004ab       data     extern C:\Projects\EggBot2-GH\EBB_firmware\Microchip\USB\usb_device.c
                gPulsesOn   0x000500       data     extern C:\Projects\EggBot2-GH\EBB_firmware\app.X\source\UBW.c
                gPulseLen   0x000501       data     extern C:\Projects\EggBot2-GH\EBB_firmware\app.X\source\UBW.c
               gPulseRate   0x000509       data     extern C:\Projects\EggBot2-GH\EBB_firmware\app.X\source\UBW.c
           gPulseCounters   0x000511       data     extern C:\Projects\EggBot2-GH\EBB_firmware\app.X\source\UBW.c
gRCServoPoweroffCounterMS   0x000519       data     extern C:\Projects\EggBot2-GH\EBB_firmware\app.X\source\UBW.c
gRCServoPoweroffCounterReloadMS   0x00051d       data     extern C:\Projects\EggBot2-GH\EBB_firmware\app.X\source\UBW.c
             last_command   0x000521       data     static C:\Projects\EggBot2-GH\EBB_firmware\app.X\source\UBW.c
                   in_esc   0x000561       data     static C:\Projects\EggBot2-GH\EBB_firmware\app.X\source\UBW.c
             esc_sequence   0x000562       data     static C:\Projects\EggBot2-GH\EBB_firmware\app.X\source\UBW.c
                    in_cr   0x000565       data     static C:\Projects\EggBot2-GH\EBB_firmware\app.X\source\UBW.c
             button_state   0x000566       data     static C:\Projects\EggBot2-GH\EBB_firmware\app.X\source\UBW.c
               button_ctr   0x000567       data     static C:\Projects\EggBot2-GH\EBB_firmware\app.X\source\UBW.c
                 LEDCount   0x000569       data     static C:\Projects\EggBot2-GH\EBB_firmware\app.X\source\UBW.c
                 LEDState   0x00056b       data     static C:\Projects\EggBot2-GH\EBB_firmware\app.X\source\UBW.c
              RPnTRISPort   0x00056c       data     extern C:\Projects\EggBot2-GH\EBB_firmware\app.X\source\UBW.c
               RPnLATPort   0x00059e       data     extern C:\Projects\EggBot2-GH\EBB_firmware\app.X\source\UBW.c
                   RPnBit   0x0005d0       data     extern C:\Projects\EggBot2-GH\EBB_firmware\app.X\source\UBW.c
             FIFO_StepAdd   0x000800       data     extern C:\Projects\EggBot2-GH\EBB_firmware\app.X\source\ebb.c
             FIFO_SEPower   0x0008c8       data     extern C:\Projects\EggBot2-GH\EBB_firmware\app.X\source\ebb.c
                   stdout   0x0008fa       data     extern E:\c18v3.46\pic18-lt\cxx-framework\src\traditional\stdclib\stdout.c
        FIFO_StepsCounter   0x000900       data     extern C:\Projects\EggBot2-GH\EBB_firmware\app.X\source\ebb.c
             FIFO_DirBits   0x0009c8       data     extern C:\Projects\EggBot2-GH\EBB_firmware\app.X\source\ebb.c
        FIFO_ServoChannel   0x0009e1       data     extern C:\Projects\EggBot2-GH\EBB_firmware\app.X\source\ebb.c
        FIFO_DelayCounter   0x000a00       data     extern C:\Projects\EggBot2-GH\EBB_firmware\app.X\source\ebb.c
       FIFO_ServoPosition   0x000a64       data     extern C:\Projects\EggBot2-GH\EBB_firmware\app.X\source\ebb.c
     time_between_updates   0x000a96       data     extern C:\Projects\EggBot2-GH\EBB_firmware\app.X\source\UBW.c
         ISR_D_RepeatRate   0x000a98       data     extern C:\Projects\EggBot2-GH\EBB_firmware\app.X\source\UBW.c
            ISR_D_FIFO_in   0x000a9a       data     extern C:\Projects\EggBot2-GH\EBB_firmware\app.X\source\UBW.c
           ISR_D_FIFO_out   0x000a9b       data     extern C:\Projects\EggBot2-GH\EBB_firmware\app.X\source\UBW.c
        ISR_D_FIFO_length   0x000a9c       data     extern C:\Projects\EggBot2-GH\EBB_firmware\app.X\source\UBW.c
         ISR_A_RepeatRate   0x000a9d       data     extern C:\Projects\EggBot2-GH\EBB_firmware\app.X\source\UBW.c
            ISR_A_FIFO_in   0x000a9f       data     extern C:\Projects\EggBot2-GH\EBB_firmware\app.X\source\UBW.c
           ISR_A_FIFO_out   0x000aa0       data     extern C:\Projects\EggBot2-GH\EBB_firmware\app.X\source\UBW.c
        ISR_A_FIFO_length   0x000aa1       data     extern C:\Projects\EggBot2-GH\EBB_firmware\app.X\source\UBW.c
               error_byte   0x000aa2       data     extern C:\Projects\EggBot2-GH\EBB_firmware\app.X\source\UBW.c
          g_RC_primed_ptr   0x000aa3       data     extern C:\Projects\EggBot2-GH\EBB_firmware\app.X\source\UBW.c
            g_RC_next_ptr   0x000aa4       data     extern C:\Projects\EggBot2-GH\EBB_firmware\app.X\source\UBW.c
          g_RC_timing_ptr   0x000aa5       data     extern C:\Projects\EggBot2-GH\EBB_firmware\app.X\source\UBW.c
           D_tick_counter   0x000aa6       data     extern C:\Projects\EggBot2-GH\EBB_firmware\app.X\source\UBW.c
           A_tick_counter   0x000aa8       data     extern C:\Projects\EggBot2-GH\EBB_firmware\app.X\source\UBW.c
            A_cur_channel   0x000aaa       data     extern C:\Projects\EggBot2-GH\EBB_firmware\app.X\source\UBW.c
           AnalogInitiate   0x000aab       data     extern C:\Projects\EggBot2-GH\EBB_firmware\app.X\source\UBW.c
    AnalogEnabledChannels   0x000aac       data     extern C:\Projects\EggBot2-GH\EBB_firmware\app.X\source\UBW.c
               ChannelBit   0x000aae       data     extern C:\Projects\EggBot2-GH\EBB_firmware\app.X\source\UBW.c
           g_USART_RX_buf   0x000ab0       data     extern C:\Projects\EggBot2-GH\EBB_firmware\app.X\source\UBW.c
           g_USART_TX_buf   0x000aba       data     extern C:\Projects\EggBot2-GH\EBB_firmware\app.X\source\UBW.c
                g_BO_init   0x000ac4       data     extern C:\Projects\EggBot2-GH\EBB_firmware\app.X\source\UBW.c
         g_BO_strobe_mask   0x000ac5       data     extern C:\Projects\EggBot2-GH\EBB_firmware\app.X\source\UBW.c
           g_BO_wait_mask   0x000ac6       data     extern C:\Projects\EggBot2-GH\EBB_firmware\app.X\source\UBW.c
          g_BO_wait_delay   0x000ac7       data     extern C:\Projects\EggBot2-GH\EBB_firmware\app.X\source\UBW.c
        g_BO_strobe_delay   0x000ac8       data     extern C:\Projects\EggBot2-GH\EBB_firmware\app.X\source\UBW.c
              g_TX_buf_in   0x000ac9       data     extern C:\Projects\EggBot2-GH\EBB_firmware\app.X\source\UBW.c
             g_TX_buf_out   0x000aca       data     extern C:\Projects\EggBot2-GH\EBB_firmware\app.X\source\UBW.c
              g_RX_buf_in   0x000acb       data     extern C:\Projects\EggBot2-GH\EBB_firmware\app.X\source\UBW.c
             g_RX_buf_out   0x000acc       data     extern C:\Projects\EggBot2-GH\EBB_firmware\app.X\source\UBW.c
        g_USART_RX_buf_in   0x000acd       data     extern C:\Projects\EggBot2-GH\EBB_firmware\app.X\source\UBW.c
       g_USART_RX_buf_out   0x000ace       data     extern C:\Projects\EggBot2-GH\EBB_firmware\app.X\source\UBW.c
        g_USART_TX_buf_in   0x000acf       data     extern C:\Projects\EggBot2-GH\EBB_firmware\app.X\source\UBW.c
       g_USART_TX_buf_out   0x000ad0       data     extern C:\Projects\EggBot2-GH\EBB_firmware\app.X\source\UBW.c
             g_ack_enable   0x000ad1       data     extern C:\Projects\EggBot2-GH\EBB_firmware\app.X\source\UBW.c
           last_fifo_size   0x000ad2       data     static C:\Projects\EggBot2-GH\EBB_firmware\app.X\source\UBW.c
       globalStepCounter1   0x000ad3       data     static C:\Projects\EggBot2-GH\EBB_firmware\app.X\source\ebb.c
       globalStepCounter2   0x000ad7       data     static C:\Projects\EggBot2-GH\EBB_firmware\app.X\source\ebb.c
                  OutByte   0x000adb       data     static C:\Projects\EggBot2-GH\EBB_firmware\app.X\source\ebb.c
                 TookStep   0x000adc       data     static C:\Projects\EggBot2-GH\EBB_firmware\app.X\source\ebb.c
                  AllDone   0x000add       data     static C:\Projects\EggBot2-GH\EBB_firmware\app.X\source\ebb.c
                        i   0x000ade       data     static C:\Projects\EggBot2-GH\EBB_firmware\app.X\source\ebb.c
           DemoModeActive   0x000adf       data     extern C:\Projects\EggBot2-GH\EBB_firmware\app.X\source\ebb.c
             comd_counter   0x000ae1       data     extern C:\Projects\EggBot2-GH\EBB_firmware\app.X\source\ebb.c
            SolenoidState   0x000ae3       data     static C:\Projects\EggBot2-GH\EBB_firmware\app.X\source\ebb.c
            SolenoidDelay   0x000ae4       data     static C:\Projects\EggBot2-GH\EBB_firmware\app.X\source\ebb.c
      DriverConfiguration   0x000ae6       data     static C:\Projects\EggBot2-GH\EBB_firmware\app.X\source\ebb.c
                 PenState   0x000ae7       data     static C:\Projects\EggBot2-GH\EBB_firmware\app.X\source\ebb.c
                NodeCount   0x000ae8       data     static C:\Projects\EggBot2-GH\EBB_firmware\app.X\source\ebb.c
                    Layer   0x000aec       data     static C:\Projects\EggBot2-GH\EBB_firmware\app.X\source\ebb.c
             ButtonPushed   0x000aed       data     static C:\Projects\EggBot2-GH\EBB_firmware\app.X\source\ebb.c
              UseAltPause   0x000aee       data     static C:\Projects\EggBot2-GH\EBB_firmware\app.X\source\ebb.c
              QC_ms_timer   0x000aef       data     extern C:\Projects\EggBot2-GH\EBB_firmware\app.X\source\ebb.c
      StoredEngraverPower   0x000af0       data     static C:\Projects\EggBot2-GH\EBB_firmware\app.X\source\ebb.c
             gUseSolenoid   0x000af2       data     extern C:\Projects\EggBot2-GH\EBB_firmware\app.X\source\ebb.c
           gUseRCPenServo   0x000af3       data     extern C:\Projects\EggBot2-GH\EBB_firmware\app.X\source\ebb.c
                     prom   0x000af4       data     static C:\MCC18\src\traditional\startup\c018i.c
                curr_byte   0x000af7       data     static C:\MCC18\src\traditional\startup\c018i.c
               curr_entry   0x000af9       data     static C:\MCC18\src\traditional\startup\c018i.c
                 data_ptr   0x000afb       data     static C:\MCC18\src\traditional\startup\c018i.c
                    errno   0x000afe       data     extern E:\c18v3.46\pic18-lt\cxx-framework\src\traditional\stdclib\errno.c
           FIFO_ServoRate   0x000b00       data     extern C:\Projects\EggBot2-GH\EBB_firmware\app.X\source\ebb.c
          FIFO_StepAddInc   0x000b32       data     extern C:\Projects\EggBot2-GH\EBB_firmware\app.X\source\ebb.c
             FIFO_Command   0x000c00       data     extern C:\Projects\EggBot2-GH\EBB_firmware\app.X\source\ebb.c
            FIFO_ServoRPn   0x000c19       data     extern C:\Projects\EggBot2-GH\EBB_firmware\app.X\source\ebb.c
             FIFO_SEState   0x000c32       data     extern C:\Projects\EggBot2-GH\EBB_firmware\app.X\source\ebb.c
              cdc_data_tx   0x000c4b       data     extern C:\Projects\EggBot2-GH\EBB_firmware\Microchip\USB\CDC Device Driver\usb_function_cdc.c
              cdc_data_rx   0x000c8b       data     extern C:\Projects\EggBot2-GH\EBB_firmware\Microchip\USB\CDC Device Driver\usb_function_cdc.c
              line_coding   0x000ccb       data     extern C:\Projects\EggBot2-GH\EBB_firmware\Microchip\USB\CDC Device Driver\usb_function_cdc.c
               cdc_notice   0x000cd2       data     extern C:\Projects\EggBot2-GH\EBB_firmware\Microchip\USB\CDC Device Driver\usb_function_cdc.c
               cdc_rx_len   0x000cda       data     extern C:\Projects\EggBot2-GH\EBB_firmware\Microchip\USB\CDC Device Driver\usb_function_cdc.c
            cdc_trf_state   0x000cdb       data     extern C:\Projects\EggBot2-GH\EBB_firmware\Microchip\USB\CDC Device Driver\usb_function_cdc.c
                  pCDCSrc   0x000cdc       data     extern C:\Projects\EggBot2-GH\EBB_firmware\Microchip\USB\CDC Device Driver\usb_function_cdc.c
                  pCDCDst   0x000cde       data     extern C:\Projects\EggBot2-GH\EBB_firmware\Microchip\USB\CDC Device Driver\usb_function_cdc.c
               cdc_tx_len   0x000ce0       data     extern C:\Projects\EggBot2-GH\EBB_firmware\Microchip\USB\CDC Device Driver\usb_function_cdc.c
             cdc_mem_type   0x000ce1       data     extern C:\Projects\EggBot2-GH\EBB_firmware\Microchip\USB\CDC Device Driver\usb_function_cdc.c
         CDCDataOutHandle   0x000ce2       data     extern C:\Projects\EggBot2-GH\EBB_firmware\Microchip\USB\CDC Device Driver\usb_function_cdc.c
          CDCDataInHandle   0x000ce4       data     extern C:\Projects\EggBot2-GH\EBB_firmware\Microchip\USB\CDC Device Driver\usb_function_cdc.c
    control_signal_bitmap   0x000ce6       data     extern C:\Projects\EggBot2-GH\EBB_firmware\Microchip\USB\CDC Device Driver\usb_function_cdc.c
              BaudRateGen   0x000ce7       data     extern C:\Projects\EggBot2-GH\EBB_firmware\Microchip\USB\CDC Device Driver\usb_function_cdc.c
dummy_encapsulated_cmd_response   0x000ceb       data     extern C:\Projects\EggBot2-GH\EBB_firmware\Microchip\USB\CDC Device Driver\usb_function_cdc.c
                  StepAcc   0x000cf3       data     static C:\Projects\EggBot2-GH\EBB_firmware\app.X\source\ebb.c
                 FIFOSize   0x000cfb       data     extern C:\Projects\EggBot2-GH\EBB_firmware\app.X\source\ebb.c
                   FIFOIn   0x000cfc       data     extern C:\Projects\EggBot2-GH\EBB_firmware\app.X\source\ebb.c
                  FIFOOut   0x000cfd       data     extern C:\Projects\EggBot2-GH\EBB_firmware\app.X\source\ebb.c
                FIFODepth   0x000cfe       data     extern C:\Projects\EggBot2-GH\EBB_firmware\app.X\source\ebb.c
             gLimitChecks   0x000cff       data     extern C:\Projects\EggBot2-GH\EBB_firmware\app.X\source\ebb.c
            gRC2msCounter   0x000e00       data     extern C:\Projects\EggBot2-GH\EBB_firmware\app.X\source\RCServo2.c
                gRC2Value   0x000e01       data     extern C:\Projects\EggBot2-GH\EBB_firmware\app.X\source\RCServo2.c
                  gRC2RPn   0x000e31       data     extern C:\Projects\EggBot2-GH\EBB_firmware\app.X\source\RCServo2.c
               gRC2Target   0x000e49       data     extern C:\Projects\EggBot2-GH\EBB_firmware\app.X\source\RCServo2.c
                 gRC2Rate   0x000e79       data     extern C:\Projects\EggBot2-GH\EBB_firmware\app.X\source\RCServo2.c
                  gRC2Ptr   0x000ea9       data     extern C:\Projects\EggBot2-GH\EBB_firmware\app.X\source\RCServo2.c
                gRC2Slots   0x000eaa       data     extern C:\Projects\EggBot2-GH\EBB_firmware\app.X\source\RCServo2.c
               gRC2SlotMS   0x000eab       data     extern C:\Projects\EggBot2-GH\EBB_firmware\app.X\source\RCServo2.c
              gRC2RPORPtr   0x000eac       data     extern C:\Projects\EggBot2-GH\EBB_firmware\app.X\source\RCServo2.c
             g_servo2_max   0x000eae       data     extern C:\Projects\EggBot2-GH\EBB_firmware\app.X\source\RCServo2.c
             g_servo2_min   0x000eb0       data     extern C:\Projects\EggBot2-GH\EBB_firmware\app.X\source\RCServo2.c
         g_servo2_rate_up   0x000eb2       data     extern C:\Projects\EggBot2-GH\EBB_firmware\app.X\source\RCServo2.c
       g_servo2_rate_down   0x000eb4       data     extern C:\Projects\EggBot2-GH\EBB_firmware\app.X\source\RCServo2.c
             g_servo2_RPn   0x000eb6       data     extern C:\Projects\EggBot2-GH\EBB_firmware\app.X\source\RCServo2.c
                    RPOR0   0x000ec6       data     extern E:\c18v3.46\pic18-lt\cxx-framework\src\traditional\proc\p18f46j50.asm
                    RPOR1   0x000ec7       data     extern E:\c18v3.46\pic18-lt\cxx-framework\src\traditional\proc\p18f46j50.asm
                    RPOR2   0x000ec8       data     extern E:\c18v3.46\pic18-lt\cxx-framework\src\traditional\proc\p18f46j50.asm
                    RPOR3   0x000ec9       data     extern E:\c18v3.46\pic18-lt\cxx-framework\src\traditional\proc\p18f46j50.asm
                    RPOR4   0x000eca       data     extern E:\c18v3.46\pic18-lt\cxx-framework\src\traditional\proc\p18f46j50.asm
                    RPOR5   0x000ecb       data     extern E:\c18v3.46\pic18-lt\cxx-framework\src\traditional\proc\p18f46j50.asm
                    RPOR6   0x000ecc       data     extern E:\c18v3.46\pic18-lt\cxx-framework\src\traditional\proc\p18f46j50.asm
                    RPOR7   0x000ecd       data     extern E:\c18v3.46\pic18-lt\cxx-framework\src\traditional\proc\p18f46j50.asm
                    RPOR8   0x000ece       data     extern E:\c18v3.46\pic18-lt\cxx-framework\src\traditional\proc\p18f46j50.asm
                    RPOR9   0x000ecf       data     extern E:\c18v3.46\pic18-lt\cxx-framework\src\traditional\proc\p18f46j50.asm
                   RPOR10   0x000ed0       data     extern E:\c18v3.46\pic18-lt\cxx-framework\src\traditional\proc\p18f46j50.asm
                   RPOR11   0x000ed1       data     extern E:\c18v3.46\pic18-lt\cxx-framework\src\traditional\proc\p18f46j50.asm
                   RPOR12   0x000ed2       data     extern E:\c18v3.46\pic18-lt\cxx-framework\src\traditional\proc\p18f46j50.asm
                   RPOR13   0x000ed3       data     extern E:\c18v3.46\pic18-lt\cxx-framework\src\traditional\proc\p18f46j50.asm
                   RPOR17   0x000ed7       data     extern E:\c18v3.46\pic18-lt\cxx-framework\src\traditional\proc\p18f46j50.asm
                   RPOR18   0x000ed8       data     extern E:\c18v3.46\pic18-lt\cxx-framework\src\traditional\proc\p18f46j50.asm
                   RPOR19   0x000ed9       data     extern E:\c18v3.46\pic18-lt\cxx-framework\src\traditional\proc\p18f46j50.asm
                   RPOR20   0x000eda       data     extern E:\c18v3.46\pic18-lt\cxx-framework\src\traditional\proc\p18f46j50.asm
                   RPOR21   0x000edb       data     extern E:\c18v3.46\pic18-lt\cxx-framework\src\traditional\proc\p18f46j50.asm
                   RPOR22   0x000edc       data     extern E:\c18v3.46\pic18-lt\cxx-framework\src\traditional\proc\p18f46j50.asm
                   RPOR23   0x000edd       data     extern E:\c18v3.46\pic18-lt\cxx-framework\src\traditional\proc\p18f46j50.asm
                   RPOR24   0x000ede       data     extern E:\c18v3.46\pic18-lt\cxx-framework\src\traditional\proc\p18f46j50.asm
                   RPINR1   0x000ee7       data     extern E:\c18v3.46\pic18-lt\cxx-framework\src\traditional\proc\p18f46j50.asm
                   RPINR2   0x000ee8       data     extern E:\c18v3.46\pic18-lt\cxx-framework\src\traditional\proc\p18f46j50.asm
                   RPINR3   0x000ee9       data     extern E:\c18v3.46\pic18-lt\cxx-framework\src\traditional\proc\p18f46j50.asm
                   RPINR4   0x000eea       data     extern E:\c18v3.46\pic18-lt\cxx-framework\src\traditional\proc\p18f46j50.asm
                   RPINR6   0x000eec       data     extern E:\c18v3.46\pic18-lt\cxx-framework\src\traditional\proc\p18f46j50.asm
                   RPINR7   0x000eed       data     extern E:\c18v3.46\pic18-lt\cxx-framework\src\traditional\proc\p18f46j50.asm
                   RPINR8   0x000eee       data     extern E:\c18v3.46\pic18-lt\cxx-framework\src\traditional\proc\p18f46j50.asm
                  RPINR12   0x000ef2       data     extern E:\c18v3.46\pic18-lt\cxx-framework\src\traditional\proc\p18f46j50.asm
                  RPINR13   0x000ef3       data     extern E:\c18v3.46\pic18-lt\cxx-framework\src\traditional\proc\p18f46j50.asm
                  RPINR16   0x000ef6       data     extern E:\c18v3.46\pic18-lt\cxx-framework\src\traditional\proc\p18f46j50.asm
                  RPINR17   0x000ef7       data     extern E:\c18v3.46\pic18-lt\cxx-framework\src\traditional\proc\p18f46j50.asm
                  RPINR21   0x000efb       data     extern E:\c18v3.46\pic18-lt\cxx-framework\src\traditional\proc\p18f46j50.asm
                  RPINR22   0x000efc       data     extern E:\c18v3.46\pic18-lt\cxx-framework\src\traditional\proc\p18f46j50.asm
                  RPINR23   0x000efd       data     extern E:\c18v3.46\pic18-lt\cxx-framework\src\traditional\proc\p18f46j50.asm
                  RPINR24   0x000efe       data     extern E:\c18v3.46\pic18-lt\cxx-framework\src\traditional\proc\p18f46j50.asm
                   PPSCON   0x000eff       data     extern E:\c18v3.46\pic18-lt\cxx-framework\src\traditional\proc\p18f46j50.asm
               PPSCONbits   0x000eff       data     extern E:\c18v3.46\pic18-lt\cxx-framework\src\traditional\proc\p18f46j50.asm
                 UEP0bits   0x000f26       data     extern E:\c18v3.46\pic18-lt\cxx-framework\src\traditional\proc\p18f46j50.asm
                     UEP0   0x000f26       data     extern E:\c18v3.46\pic18-lt\cxx-framework\src\traditional\proc\p18f46j50.asm
                     UEP1   0x000f27       data     extern E:\c18v3.46\pic18-lt\cxx-framework\src\traditional\proc\p18f46j50.asm
                 UEP1bits   0x000f27       data     extern E:\c18v3.46\pic18-lt\cxx-framework\src\traditional\proc\p18f46j50.asm
                 UEP2bits   0x000f28       data     extern E:\c18v3.46\pic18-lt\cxx-framework\src\traditional\proc\p18f46j50.asm
                     UEP2   0x000f28       data     extern E:\c18v3.46\pic18-lt\cxx-framework\src\traditional\proc\p18f46j50.asm
                 UEP3bits   0x000f29       data     extern E:\c18v3.46\pic18-lt\cxx-framework\src\traditional\proc\p18f46j50.asm
                     UEP3   0x000f29       data     extern E:\c18v3.46\pic18-lt\cxx-framework\src\traditional\proc\p18f46j50.asm
                 UEP4bits   0x000f2a       data     extern E:\c18v3.46\pic18-lt\cxx-framework\src\traditional\proc\p18f46j50.asm
                     UEP4   0x000f2a       data     extern E:\c18v3.46\pic18-lt\cxx-framework\src\traditional\proc\p18f46j50.asm
                     UEP5   0x000f2b       data     extern E:\c18v3.46\pic18-lt\cxx-framework\src\traditional\proc\p18f46j50.asm
                 UEP5bits   0x000f2b       data     extern E:\c18v3.46\pic18-lt\cxx-framework\src\traditional\proc\p18f46j50.asm
                     UEP6   0x000f2c       data     extern E:\c18v3.46\pic18-lt\cxx-framework\src\traditional\proc\p18f46j50.asm
                 UEP6bits   0x000f2c       data     extern E:\c18v3.46\pic18-lt\cxx-framework\src\traditional\proc\p18f46j50.asm
                 UEP7bits   0x000f2d       data     extern E:\c18v3.46\pic18-lt\cxx-framework\src\traditional\proc\p18f46j50.asm
                     UEP7   0x000f2d       data     extern E:\c18v3.46\pic18-lt\cxx-framework\src\traditional\proc\p18f46j50.asm
                 UEP8bits   0x000f2e       data     extern E:\c18v3.46\pic18-lt\cxx-framework\src\traditional\proc\p18f46j50.asm
                     UEP8   0x000f2e       data     extern E:\c18v3.46\pic18-lt\cxx-framework\src\traditional\proc\p18f46j50.asm
                 UEP9bits   0x000f2f       data     extern E:\c18v3.46\pic18-lt\cxx-framework\src\traditional\proc\p18f46j50.asm
                     UEP9   0x000f2f       data     extern E:\c18v3.46\pic18-lt\cxx-framework\src\traditional\proc\p18f46j50.asm
                UEP10bits   0x000f30       data     extern E:\c18v3.46\pic18-lt\cxx-framework\src\traditional\proc\p18f46j50.asm
                    UEP10   0x000f30       data     extern E:\c18v3.46\pic18-lt\cxx-framework\src\traditional\proc\p18f46j50.asm
                UEP11bits   0x000f31       data     extern E:\c18v3.46\pic18-lt\cxx-framework\src\traditional\proc\p18f46j50.asm
                    UEP11   0x000f31       data     extern E:\c18v3.46\pic18-lt\cxx-framework\src\traditional\proc\p18f46j50.asm
                    UEP12   0x000f32       data     extern E:\c18v3.46\pic18-lt\cxx-framework\src\traditional\proc\p18f46j50.asm
                UEP12bits   0x000f32       data     extern E:\c18v3.46\pic18-lt\cxx-framework\src\traditional\proc\p18f46j50.asm
                    UEP13   0x000f33       data     extern E:\c18v3.46\pic18-lt\cxx-framework\src\traditional\proc\p18f46j50.asm
                UEP13bits   0x000f33       data     extern E:\c18v3.46\pic18-lt\cxx-framework\src\traditional\proc\p18f46j50.asm
                    UEP14   0x000f34       data     extern E:\c18v3.46\pic18-lt\cxx-framework\src\traditional\proc\p18f46j50.asm
                UEP14bits   0x000f34       data     extern E:\c18v3.46\pic18-lt\cxx-framework\src\traditional\proc\p18f46j50.asm
                    UEP15   0x000f35       data     extern E:\c18v3.46\pic18-lt\cxx-framework\src\traditional\proc\p18f46j50.asm
                UEP15bits   0x000f35       data     extern E:\c18v3.46\pic18-lt\cxx-framework\src\traditional\proc\p18f46j50.asm
                  UIEbits   0x000f36       data     extern E:\c18v3.46\pic18-lt\cxx-framework\src\traditional\proc\p18f46j50.asm
                      UIE   0x000f36       data     extern E:\c18v3.46\pic18-lt\cxx-framework\src\traditional\proc\p18f46j50.asm
                 UEIEbits   0x000f37       data     extern E:\c18v3.46\pic18-lt\cxx-framework\src\traditional\proc\p18f46j50.asm
                     UEIE   0x000f37       data     extern E:\c18v3.46\pic18-lt\cxx-framework\src\traditional\proc\p18f46j50.asm
                    UADDR   0x000f38       data     extern E:\c18v3.46\pic18-lt\cxx-framework\src\traditional\proc\p18f46j50.asm
                UADDRbits   0x000f38       data     extern E:\c18v3.46\pic18-lt\cxx-framework\src\traditional\proc\p18f46j50.asm
                     UCFG   0x000f39       data     extern E:\c18v3.46\pic18-lt\cxx-framework\src\traditional\proc\p18f46j50.asm
                 UCFGbits   0x000f39       data     extern E:\c18v3.46\pic18-lt\cxx-framework\src\traditional\proc\p18f46j50.asm
              PADCFG1bits   0x000f3c       data     extern E:\c18v3.46\pic18-lt\cxx-framework\src\traditional\proc\p18f46j50.asm
                  PADCFG1   0x000f3c       data     extern E:\c18v3.46\pic18-lt\cxx-framework\src\traditional\proc\p18f46j50.asm
              REFOCONbits   0x000f3d       data     extern E:\c18v3.46\pic18-lt\cxx-framework\src\traditional\proc\p18f46j50.asm
                  REFOCON   0x000f3d       data     extern E:\c18v3.46\pic18-lt\cxx-framework\src\traditional\proc\p18f46j50.asm
               RTCCALbits   0x000f3e       data     extern E:\c18v3.46\pic18-lt\cxx-framework\src\traditional\proc\p18f46j50.asm
                   RTCCAL   0x000f3e       data     extern E:\c18v3.46\pic18-lt\cxx-framework\src\traditional\proc\p18f46j50.asm
               RTCCFGbits   0x000f3f       data     extern E:\c18v3.46\pic18-lt\cxx-framework\src\traditional\proc\p18f46j50.asm
                   RTCCFG   0x000f3f       data     extern E:\c18v3.46\pic18-lt\cxx-framework\src\traditional\proc\p18f46j50.asm
               ODCON3bits   0x000f40       data     extern E:\c18v3.46\pic18-lt\cxx-framework\src\traditional\proc\p18f46j50.asm
                   ODCON3   0x000f40       data     extern E:\c18v3.46\pic18-lt\cxx-framework\src\traditional\proc\p18f46j50.asm
                   ODCON2   0x000f41       data     extern E:\c18v3.46\pic18-lt\cxx-framework\src\traditional\proc\p18f46j50.asm
               ODCON2bits   0x000f41       data     extern E:\c18v3.46\pic18-lt\cxx-framework\src\traditional\proc\p18f46j50.asm
               ODCON1bits   0x000f42       data     extern E:\c18v3.46\pic18-lt\cxx-framework\src\traditional\proc\p18f46j50.asm
                   ODCON1   0x000f42       data     extern E:\c18v3.46\pic18-lt\cxx-framework\src\traditional\proc\p18f46j50.asm
                   ANCON0   0x000f48       data     extern E:\c18v3.46\pic18-lt\cxx-framework\src\traditional\proc\p18f46j50.asm
               ANCON0bits   0x000f48       data     extern E:\c18v3.46\pic18-lt\cxx-framework\src\traditional\proc\p18f46j50.asm
                   ANCON1   0x000f49       data     extern E:\c18v3.46\pic18-lt\cxx-framework\src\traditional\proc\p18f46j50.asm
               ANCON1bits   0x000f49       data     extern E:\c18v3.46\pic18-lt\cxx-framework\src\traditional\proc\p18f46j50.asm
              DSWAKELbits   0x000f4a       data     extern E:\c18v3.46\pic18-lt\cxx-framework\src\traditional\proc\p18f46j50.asm
                  DSWAKEL   0x000f4a       data     extern E:\c18v3.46\pic18-lt\cxx-framework\src\traditional\proc\p18f46j50.asm
              DSWAKEHbits   0x000f4b       data     extern E:\c18v3.46\pic18-lt\cxx-framework\src\traditional\proc\p18f46j50.asm
                  DSWAKEH   0x000f4b       data     extern E:\c18v3.46\pic18-lt\cxx-framework\src\traditional\proc\p18f46j50.asm
               DSCONLbits   0x000f4c       data     extern E:\c18v3.46\pic18-lt\cxx-framework\src\traditional\proc\p18f46j50.asm
                   DSCONL   0x000f4c       data     extern E:\c18v3.46\pic18-lt\cxx-framework\src\traditional\proc\p18f46j50.asm
               DSCONHbits   0x000f4d       data     extern E:\c18v3.46\pic18-lt\cxx-framework\src\traditional\proc\p18f46j50.asm
                   DSCONH   0x000f4d       data     extern E:\c18v3.46\pic18-lt\cxx-framework\src\traditional\proc\p18f46j50.asm
                   DSGPR0   0x000f4e       data     extern E:\c18v3.46\pic18-lt\cxx-framework\src\traditional\proc\p18f46j50.asm
                   DSGPR1   0x000f4f       data     extern E:\c18v3.46\pic18-lt\cxx-framework\src\traditional\proc\p18f46j50.asm
                  TCLKCON   0x000f52       data     extern E:\c18v3.46\pic18-lt\cxx-framework\src\traditional\proc\p18f46j50.asm
              TCLKCONbits   0x000f52       data     extern E:\c18v3.46\pic18-lt\cxx-framework\src\traditional\proc\p18f46j50.asm
                   CVRCON   0x000f53       data     extern E:\c18v3.46\pic18-lt\cxx-framework\src\traditional\proc\p18f46j50.asm
               CVRCONbits   0x000f53       data     extern E:\c18v3.46\pic18-lt\cxx-framework\src\traditional\proc\p18f46j50.asm
                  PMSTATL   0x000f54       data     extern E:\c18v3.46\pic18-lt\cxx-framework\src\traditional\proc\p18f46j50.asm
              PMSTATLbits   0x000f54       data     extern E:\c18v3.46\pic18-lt\cxx-framework\src\traditional\proc\p18f46j50.asm
                  PMSTATH   0x000f55       data     extern E:\c18v3.46\pic18-lt\cxx-framework\src\traditional\proc\p18f46j50.asm
              PMSTATHbits   0x000f55       data     extern E:\c18v3.46\pic18-lt\cxx-framework\src\traditional\proc\p18f46j50.asm
                     PMEL   0x000f56       data     extern E:\c18v3.46\pic18-lt\cxx-framework\src\traditional\proc\p18f46j50.asm
                 PMELbits   0x000f56       data     extern E:\c18v3.46\pic18-lt\cxx-framework\src\traditional\proc\p18f46j50.asm
                     PMEH   0x000f57       data     extern E:\c18v3.46\pic18-lt\cxx-framework\src\traditional\proc\p18f46j50.asm
                 PMEHbits   0x000f57       data     extern E:\c18v3.46\pic18-lt\cxx-framework\src\traditional\proc\p18f46j50.asm
                  PMDIN2L   0x000f58       data     extern E:\c18v3.46\pic18-lt\cxx-framework\src\traditional\proc\p18f46j50.asm
                  PMDIN2H   0x000f59       data     extern E:\c18v3.46\pic18-lt\cxx-framework\src\traditional\proc\p18f46j50.asm
                 PMDOUT2L   0x000f5a       data     extern E:\c18v3.46\pic18-lt\cxx-framework\src\traditional\proc\p18f46j50.asm
                 PMDOUT2H   0x000f5b       data     extern E:\c18v3.46\pic18-lt\cxx-framework\src\traditional\proc\p18f46j50.asm
              PMMODELbits   0x000f5c       data     extern E:\c18v3.46\pic18-lt\cxx-framework\src\traditional\proc\p18f46j50.asm
                  PMMODEL   0x000f5c       data     extern E:\c18v3.46\pic18-lt\cxx-framework\src\traditional\proc\p18f46j50.asm
              PMMODEHbits   0x000f5d       data     extern E:\c18v3.46\pic18-lt\cxx-framework\src\traditional\proc\p18f46j50.asm
                  PMMODEH   0x000f5d       data     extern E:\c18v3.46\pic18-lt\cxx-framework\src\traditional\proc\p18f46j50.asm
                   PMCONL   0x000f5e       data     extern E:\c18v3.46\pic18-lt\cxx-framework\src\traditional\proc\p18f46j50.asm
               PMCONLbits   0x000f5e       data     extern E:\c18v3.46\pic18-lt\cxx-framework\src\traditional\proc\p18f46j50.asm
               PMCONHbits   0x000f5f       data     extern E:\c18v3.46\pic18-lt\cxx-framework\src\traditional\proc\p18f46j50.asm
                   PMCONH   0x000f5f       data     extern E:\c18v3.46\pic18-lt\cxx-framework\src\traditional\proc\p18f46j50.asm
                     UFRM   0x000f60       data     extern E:\c18v3.46\pic18-lt\cxx-framework\src\traditional\proc\p18f46j50.asm
                    UFRML   0x000f60       data     extern E:\c18v3.46\pic18-lt\cxx-framework\src\traditional\proc\p18f46j50.asm
                UFRMLbits   0x000f60       data     extern E:\c18v3.46\pic18-lt\cxx-framework\src\traditional\proc\p18f46j50.asm
                    UFRMH   0x000f61       data     extern E:\c18v3.46\pic18-lt\cxx-framework\src\traditional\proc\p18f46j50.asm
                UFRMHbits   0x000f61       data     extern E:\c18v3.46\pic18-lt\cxx-framework\src\traditional\proc\p18f46j50.asm
                  UIRbits   0x000f62       data     extern E:\c18v3.46\pic18-lt\cxx-framework\src\traditional\proc\p18f46j50.asm
                      UIR   0x000f62       data     extern E:\c18v3.46\pic18-lt\cxx-framework\src\traditional\proc\p18f46j50.asm
                 UEIRbits   0x000f63       data     extern E:\c18v3.46\pic18-lt\cxx-framework\src\traditional\proc\p18f46j50.asm
                     UEIR   0x000f63       data     extern E:\c18v3.46\pic18-lt\cxx-framework\src\traditional\proc\p18f46j50.asm
                USTATbits   0x000f64       data     extern E:\c18v3.46\pic18-lt\cxx-framework\src\traditional\proc\p18f46j50.asm
                    USTAT   0x000f64       data     extern E:\c18v3.46\pic18-lt\cxx-framework\src\traditional\proc\p18f46j50.asm
                     UCON   0x000f65       data     extern E:\c18v3.46\pic18-lt\cxx-framework\src\traditional\proc\p18f46j50.asm
                 UCONbits   0x000f65       data     extern E:\c18v3.46\pic18-lt\cxx-framework\src\traditional\proc\p18f46j50.asm
               DMABCHbits   0x000f66       data     extern E:\c18v3.46\pic18-lt\cxx-framework\src\traditional\proc\p18f46j50.asm
                   DMABCH   0x000f66       data     extern E:\c18v3.46\pic18-lt\cxx-framework\src\traditional\proc\p18f46j50.asm
                   DMABCL   0x000f67       data     extern E:\c18v3.46\pic18-lt\cxx-framework\src\traditional\proc\p18f46j50.asm
              RXADDRHbits   0x000f68       data     extern E:\c18v3.46\pic18-lt\cxx-framework\src\traditional\proc\p18f46j50.asm
                  RXADDRH   0x000f68       data     extern E:\c18v3.46\pic18-lt\cxx-framework\src\traditional\proc\p18f46j50.asm
                  RXADDRL   0x000f69       data     extern E:\c18v3.46\pic18-lt\cxx-framework\src\traditional\proc\p18f46j50.asm
                  TXADDRH   0x000f6a       data     extern E:\c18v3.46\pic18-lt\cxx-framework\src\traditional\proc\p18f46j50.asm
              TXADDRHbits   0x000f6a       data     extern E:\c18v3.46\pic18-lt\cxx-framework\src\traditional\proc\p18f46j50.asm
                  TXADDRL   0x000f6b       data     extern E:\c18v3.46\pic18-lt\cxx-framework\src\traditional\proc\p18f46j50.asm
                  PMDIN1L   0x000f6c       data     extern E:\c18v3.46\pic18-lt\cxx-framework\src\traditional\proc\p18f46j50.asm
                  PMDIN1H   0x000f6d       data     extern E:\c18v3.46\pic18-lt\cxx-framework\src\traditional\proc\p18f46j50.asm
                  PMADDRL   0x000f6e       data     extern E:\c18v3.46\pic18-lt\cxx-framework\src\traditional\proc\p18f46j50.asm
                 PMDOUT1L   0x000f6e       data     extern E:\c18v3.46\pic18-lt\cxx-framework\src\traditional\proc\p18f46j50.asm
                 PMDOUT1H   0x000f6f       data     extern E:\c18v3.46\pic18-lt\cxx-framework\src\traditional\proc\p18f46j50.asm
                  PMADDRH   0x000f6f       data     extern E:\c18v3.46\pic18-lt\cxx-framework\src\traditional\proc\p18f46j50.asm
              PMADDRHbits   0x000f6f       data     extern E:\c18v3.46\pic18-lt\cxx-framework\src\traditional\proc\p18f46j50.asm
                   CMSTAT   0x000f70       data     extern E:\c18v3.46\pic18-lt\cxx-framework\src\traditional\proc\p18f46j50.asm
                 CMSTATUS   0x000f70       data     extern E:\c18v3.46\pic18-lt\cxx-framework\src\traditional\proc\p18f46j50.asm
             CMSTATUSbits   0x000f70       data     extern E:\c18v3.46\pic18-lt\cxx-framework\src\traditional\proc\p18f46j50.asm
               CMSTATbits   0x000f70       data     extern E:\c18v3.46\pic18-lt\cxx-framework\src\traditional\proc\p18f46j50.asm
                 SSP2CON2   0x000f71       data     extern E:\c18v3.46\pic18-lt\cxx-framework\src\traditional\proc\p18f46j50.asm
             SSP2CON2bits   0x000f71       data     extern E:\c18v3.46\pic18-lt\cxx-framework\src\traditional\proc\p18f46j50.asm
                 SSP2CON1   0x000f72       data     extern E:\c18v3.46\pic18-lt\cxx-framework\src\traditional\proc\p18f46j50.asm
             SSP2CON1bits   0x000f72       data     extern E:\c18v3.46\pic18-lt\cxx-framework\src\traditional\proc\p18f46j50.asm
                 SSP2STAT   0x000f73       data     extern E:\c18v3.46\pic18-lt\cxx-framework\src\traditional\proc\p18f46j50.asm
             SSP2STATbits   0x000f73       data     extern E:\c18v3.46\pic18-lt\cxx-framework\src\traditional\proc\p18f46j50.asm
              SSP2ADDbits   0x000f74       data     extern E:\c18v3.46\pic18-lt\cxx-framework\src\traditional\proc\p18f46j50.asm
                  SSP2ADD   0x000f74       data     extern E:\c18v3.46\pic18-lt\cxx-framework\src\traditional\proc\p18f46j50.asm
                  SSP2BUF   0x000f75       data     extern E:\c18v3.46\pic18-lt\cxx-framework\src\traditional\proc\p18f46j50.asm
                T4CONbits   0x000f76       data     extern E:\c18v3.46\pic18-lt\cxx-framework\src\traditional\proc\p18f46j50.asm
                    T4CON   0x000f76       data     extern E:\c18v3.46\pic18-lt\cxx-framework\src\traditional\proc\p18f46j50.asm
                      PR4   0x000f77       data     extern E:\c18v3.46\pic18-lt\cxx-framework\src\traditional\proc\p18f46j50.asm
                     TMR4   0x000f78       data     extern E:\c18v3.46\pic18-lt\cxx-framework\src\traditional\proc\p18f46j50.asm
                T3CONbits   0x000f79       data     extern E:\c18v3.46\pic18-lt\cxx-framework\src\traditional\proc\p18f46j50.asm
                    T3CON   0x000f79       data     extern E:\c18v3.46\pic18-lt\cxx-framework\src\traditional\proc\p18f46j50.asm
                    TMR3L   0x000f7a       data     extern E:\c18v3.46\pic18-lt\cxx-framework\src\traditional\proc\p18f46j50.asm
                    TMR3H   0x000f7b       data     extern E:\c18v3.46\pic18-lt\cxx-framework\src\traditional\proc\p18f46j50.asm
             BAUDCON2bits   0x000f7c       data     extern E:\c18v3.46\pic18-lt\cxx-framework\src\traditional\proc\p18f46j50.asm
                 BAUDCON2   0x000f7c       data     extern E:\c18v3.46\pic18-lt\cxx-framework\src\traditional\proc\p18f46j50.asm
                  SPBRGH2   0x000f7d       data     extern E:\c18v3.46\pic18-lt\cxx-framework\src\traditional\proc\p18f46j50.asm
                 BAUDCON1   0x000f7e       data     extern E:\c18v3.46\pic18-lt\cxx-framework\src\traditional\proc\p18f46j50.asm
                  BAUDCON   0x000f7e       data     extern E:\c18v3.46\pic18-lt\cxx-framework\src\traditional\proc\p18f46j50.asm
              BAUDCTLbits   0x000f7e       data     extern E:\c18v3.46\pic18-lt\cxx-framework\src\traditional\proc\p18f46j50.asm
                  BAUDCTL   0x000f7e       data     extern E:\c18v3.46\pic18-lt\cxx-framework\src\traditional\proc\p18f46j50.asm
             BAUDCON1bits   0x000f7e       data     extern E:\c18v3.46\pic18-lt\cxx-framework\src\traditional\proc\p18f46j50.asm
              BAUDCONbits   0x000f7e       data     extern E:\c18v3.46\pic18-lt\cxx-framework\src\traditional\proc\p18f46j50.asm
                  SPBRGH1   0x000f7f       data     extern E:\c18v3.46\pic18-lt\cxx-framework\src\traditional\proc\p18f46j50.asm
                   SPBRGH   0x000f7f       data     extern E:\c18v3.46\pic18-lt\cxx-framework\src\traditional\proc\p18f46j50.asm
                PORTAbits   0x000f80       data     extern E:\c18v3.46\pic18-lt\cxx-framework\src\traditional\proc\p18f46j50.asm
                    PORTA   0x000f80       data     extern E:\c18v3.46\pic18-lt\cxx-framework\src\traditional\proc\p18f46j50.asm
                    PORTB   0x000f81       data     extern E:\c18v3.46\pic18-lt\cxx-framework\src\traditional\proc\p18f46j50.asm
                PORTBbits   0x000f81       data     extern E:\c18v3.46\pic18-lt\cxx-framework\src\traditional\proc\p18f46j50.asm
                    PORTC   0x000f82       data     extern E:\c18v3.46\pic18-lt\cxx-framework\src\traditional\proc\p18f46j50.asm
                PORTCbits   0x000f82       data     extern E:\c18v3.46\pic18-lt\cxx-framework\src\traditional\proc\p18f46j50.asm
                    PORTD   0x000f83       data     extern E:\c18v3.46\pic18-lt\cxx-framework\src\traditional\proc\p18f46j50.asm
                PORTDbits   0x000f83       data     extern E:\c18v3.46\pic18-lt\cxx-framework\src\traditional\proc\p18f46j50.asm
                    PORTE   0x000f84       data     extern E:\c18v3.46\pic18-lt\cxx-framework\src\traditional\proc\p18f46j50.asm
                PORTEbits   0x000f84       data     extern E:\c18v3.46\pic18-lt\cxx-framework\src\traditional\proc\p18f46j50.asm
              HLVDCONbits   0x000f85       data     extern E:\c18v3.46\pic18-lt\cxx-framework\src\traditional\proc\p18f46j50.asm
                  HLVDCON   0x000f85       data     extern E:\c18v3.46\pic18-lt\cxx-framework\src\traditional\proc\p18f46j50.asm
                  DMACON2   0x000f86       data     extern E:\c18v3.46\pic18-lt\cxx-framework\src\traditional\proc\p18f46j50.asm
              DMACON2bits   0x000f86       data     extern E:\c18v3.46\pic18-lt\cxx-framework\src\traditional\proc\p18f46j50.asm
              DMACON1bits   0x000f88       data     extern E:\c18v3.46\pic18-lt\cxx-framework\src\traditional\proc\p18f46j50.asm
                  DMACON1   0x000f88       data     extern E:\c18v3.46\pic18-lt\cxx-framework\src\traditional\proc\p18f46j50.asm
                     LATA   0x000f89       data     extern E:\c18v3.46\pic18-lt\cxx-framework\src\traditional\proc\p18f46j50.asm
                 LATAbits   0x000f89       data     extern E:\c18v3.46\pic18-lt\cxx-framework\src\traditional\proc\p18f46j50.asm
                     LATB   0x000f8a       data     extern E:\c18v3.46\pic18-lt\cxx-framework\src\traditional\proc\p18f46j50.asm
                 LATBbits   0x000f8a       data     extern E:\c18v3.46\pic18-lt\cxx-framework\src\traditional\proc\p18f46j50.asm
                     LATC   0x000f8b       data     extern E:\c18v3.46\pic18-lt\cxx-framework\src\traditional\proc\p18f46j50.asm
                 LATCbits   0x000f8b       data     extern E:\c18v3.46\pic18-lt\cxx-framework\src\traditional\proc\p18f46j50.asm
                     LATD   0x000f8c       data     extern E:\c18v3.46\pic18-lt\cxx-framework\src\traditional\proc\p18f46j50.asm
                 LATDbits   0x000f8c       data     extern E:\c18v3.46\pic18-lt\cxx-framework\src\traditional\proc\p18f46j50.asm
                 LATEbits   0x000f8d       data     extern E:\c18v3.46\pic18-lt\cxx-framework\src\traditional\proc\p18f46j50.asm
                     LATE   0x000f8d       data     extern E:\c18v3.46\pic18-lt\cxx-framework\src\traditional\proc\p18f46j50.asm
                 ALRMVALL   0x000f8e       data     extern E:\c18v3.46\pic18-lt\cxx-framework\src\traditional\proc\p18f46j50.asm
                 ALRMVALH   0x000f8f       data     extern E:\c18v3.46\pic18-lt\cxx-framework\src\traditional\proc\p18f46j50.asm
              ALRMRPTbits   0x000f90       data     extern E:\c18v3.46\pic18-lt\cxx-framework\src\traditional\proc\p18f46j50.asm
                  ALRMRPT   0x000f90       data     extern E:\c18v3.46\pic18-lt\cxx-framework\src\traditional\proc\p18f46j50.asm
              ALRMCFGbits   0x000f91       data     extern E:\c18v3.46\pic18-lt\cxx-framework\src\traditional\proc\p18f46j50.asm
                  ALRMCFG   0x000f91       data     extern E:\c18v3.46\pic18-lt\cxx-framework\src\traditional\proc\p18f46j50.asm
                TRISAbits   0x000f92       data     extern E:\c18v3.46\pic18-lt\cxx-framework\src\traditional\proc\p18f46j50.asm
                    TRISA   0x000f92       data     extern E:\c18v3.46\pic18-lt\cxx-framework\src\traditional\proc\p18f46j50.asm
                TRISBbits   0x000f93       data     extern E:\c18v3.46\pic18-lt\cxx-framework\src\traditional\proc\p18f46j50.asm
                    TRISB   0x000f93       data     extern E:\c18v3.46\pic18-lt\cxx-framework\src\traditional\proc\p18f46j50.asm
                    TRISC   0x000f94       data     extern E:\c18v3.46\pic18-lt\cxx-framework\src\traditional\proc\p18f46j50.asm
                TRISCbits   0x000f94       data     extern E:\c18v3.46\pic18-lt\cxx-framework\src\traditional\proc\p18f46j50.asm
                    TRISD   0x000f95       data     extern E:\c18v3.46\pic18-lt\cxx-framework\src\traditional\proc\p18f46j50.asm
                TRISDbits   0x000f95       data     extern E:\c18v3.46\pic18-lt\cxx-framework\src\traditional\proc\p18f46j50.asm
                TRISEbits   0x000f96       data     extern E:\c18v3.46\pic18-lt\cxx-framework\src\traditional\proc\p18f46j50.asm
                    TRISE   0x000f96       data     extern E:\c18v3.46\pic18-lt\cxx-framework\src\traditional\proc\p18f46j50.asm
                   T3GCON   0x000f97       data     extern E:\c18v3.46\pic18-lt\cxx-framework\src\traditional\proc\p18f46j50.asm
               T3GCONbits   0x000f97       data     extern E:\c18v3.46\pic18-lt\cxx-framework\src\traditional\proc\p18f46j50.asm
                  RTCVALL   0x000f98       data     extern E:\c18v3.46\pic18-lt\cxx-framework\src\traditional\proc\p18f46j50.asm
                  RTCVALH   0x000f99       data     extern E:\c18v3.46\pic18-lt\cxx-framework\src\traditional\proc\p18f46j50.asm
               T1GCONbits   0x000f9a       data     extern E:\c18v3.46\pic18-lt\cxx-framework\src\traditional\proc\p18f46j50.asm
                   T1GCON   0x000f9a       data     extern E:\c18v3.46\pic18-lt\cxx-framework\src\traditional\proc\p18f46j50.asm
                  OSCTUNE   0x000f9b       data     extern E:\c18v3.46\pic18-lt\cxx-framework\src\traditional\proc\p18f46j50.asm
              OSCTUNEbits   0x000f9b       data     extern E:\c18v3.46\pic18-lt\cxx-framework\src\traditional\proc\p18f46j50.asm
               RCSTA2bits   0x000f9c       data     extern E:\c18v3.46\pic18-lt\cxx-framework\src\traditional\proc\p18f46j50.asm
                   RCSTA2   0x000f9c       data     extern E:\c18v3.46\pic18-lt\cxx-framework\src\traditional\proc\p18f46j50.asm
                     PIE1   0x000f9d       data     extern E:\c18v3.46\pic18-lt\cxx-framework\src\traditional\proc\p18f46j50.asm
                 PIE1bits   0x000f9d       data     extern E:\c18v3.46\pic18-lt\cxx-framework\src\traditional\proc\p18f46j50.asm
                     PIR1   0x000f9e       data     extern E:\c18v3.46\pic18-lt\cxx-framework\src\traditional\proc\p18f46j50.asm
                 PIR1bits   0x000f9e       data     extern E:\c18v3.46\pic18-lt\cxx-framework\src\traditional\proc\p18f46j50.asm
                 IPR1bits   0x000f9f       data     extern E:\c18v3.46\pic18-lt\cxx-framework\src\traditional\proc\p18f46j50.asm
                     IPR1   0x000f9f       data     extern E:\c18v3.46\pic18-lt\cxx-framework\src\traditional\proc\p18f46j50.asm
                     PIE2   0x000fa0       data     extern E:\c18v3.46\pic18-lt\cxx-framework\src\traditional\proc\p18f46j50.asm
                 PIE2bits   0x000fa0       data     extern E:\c18v3.46\pic18-lt\cxx-framework\src\traditional\proc\p18f46j50.asm
                 PIR2bits   0x000fa1       data     extern E:\c18v3.46\pic18-lt\cxx-framework\src\traditional\proc\p18f46j50.asm
                     PIR2   0x000fa1       data     extern E:\c18v3.46\pic18-lt\cxx-framework\src\traditional\proc\p18f46j50.asm
                 IPR2bits   0x000fa2       data     extern E:\c18v3.46\pic18-lt\cxx-framework\src\traditional\proc\p18f46j50.asm
                     IPR2   0x000fa2       data     extern E:\c18v3.46\pic18-lt\cxx-framework\src\traditional\proc\p18f46j50.asm
                 PIE3bits   0x000fa3       data     extern E:\c18v3.46\pic18-lt\cxx-framework\src\traditional\proc\p18f46j50.asm
                     PIE3   0x000fa3       data     extern E:\c18v3.46\pic18-lt\cxx-framework\src\traditional\proc\p18f46j50.asm
                     PIR3   0x000fa4       data     extern E:\c18v3.46\pic18-lt\cxx-framework\src\traditional\proc\p18f46j50.asm
                 PIR3bits   0x000fa4       data     extern E:\c18v3.46\pic18-lt\cxx-framework\src\traditional\proc\p18f46j50.asm
                 IPR3bits   0x000fa5       data     extern E:\c18v3.46\pic18-lt\cxx-framework\src\traditional\proc\p18f46j50.asm
                     IPR3   0x000fa5       data     extern E:\c18v3.46\pic18-lt\cxx-framework\src\traditional\proc\p18f46j50.asm
               EECON1bits   0x000fa6       data     extern E:\c18v3.46\pic18-lt\cxx-framework\src\traditional\proc\p18f46j50.asm
                   EECON1   0x000fa6       data     extern E:\c18v3.46\pic18-lt\cxx-framework\src\traditional\proc\p18f46j50.asm
                   EECON2   0x000fa7       data     extern E:\c18v3.46\pic18-lt\cxx-framework\src\traditional\proc\p18f46j50.asm
               TXSTA2bits   0x000fa8       data     extern E:\c18v3.46\pic18-lt\cxx-framework\src\traditional\proc\p18f46j50.asm
                   TXSTA2   0x000fa8       data     extern E:\c18v3.46\pic18-lt\cxx-framework\src\traditional\proc\p18f46j50.asm
                   TXREG2   0x000fa9       data     extern E:\c18v3.46\pic18-lt\cxx-framework\src\traditional\proc\p18f46j50.asm
                   RCREG2   0x000faa       data     extern E:\c18v3.46\pic18-lt\cxx-framework\src\traditional\proc\p18f46j50.asm
                   SPBRG2   0x000fab       data     extern E:\c18v3.46\pic18-lt\cxx-framework\src\traditional\proc\p18f46j50.asm
                    RCSTA   0x000fac       data     extern E:\c18v3.46\pic18-lt\cxx-framework\src\traditional\proc\p18f46j50.asm
                   RCSTA1   0x000fac       data     extern E:\c18v3.46\pic18-lt\cxx-framework\src\traditional\proc\p18f46j50.asm
                RCSTAbits   0x000fac       data     extern E:\c18v3.46\pic18-lt\cxx-framework\src\traditional\proc\p18f46j50.asm
               RCSTA1bits   0x000fac       data     extern E:\c18v3.46\pic18-lt\cxx-framework\src\traditional\proc\p18f46j50.asm
                    TXSTA   0x000fad       data     extern E:\c18v3.46\pic18-lt\cxx-framework\src\traditional\proc\p18f46j50.asm
               TXSTA1bits   0x000fad       data     extern E:\c18v3.46\pic18-lt\cxx-framework\src\traditional\proc\p18f46j50.asm
                   TXSTA1   0x000fad       data     extern E:\c18v3.46\pic18-lt\cxx-framework\src\traditional\proc\p18f46j50.asm
                TXSTAbits   0x000fad       data     extern E:\c18v3.46\pic18-lt\cxx-framework\src\traditional\proc\p18f46j50.asm
                   TXREG1   0x000fae       data     extern E:\c18v3.46\pic18-lt\cxx-framework\src\traditional\proc\p18f46j50.asm
                    TXREG   0x000fae       data     extern E:\c18v3.46\pic18-lt\cxx-framework\src\traditional\proc\p18f46j50.asm
                    RCREG   0x000faf       data     extern E:\c18v3.46\pic18-lt\cxx-framework\src\traditional\proc\p18f46j50.asm
                   RCREG1   0x000faf       data     extern E:\c18v3.46\pic18-lt\cxx-framework\src\traditional\proc\p18f46j50.asm
                   SPBRG1   0x000fb0       data     extern E:\c18v3.46\pic18-lt\cxx-framework\src\traditional\proc\p18f46j50.asm
                    SPBRG   0x000fb0       data     extern E:\c18v3.46\pic18-lt\cxx-framework\src\traditional\proc\p18f46j50.asm
             CTMUICONbits   0x000fb1       data     extern E:\c18v3.46\pic18-lt\cxx-framework\src\traditional\proc\p18f46j50.asm
                 CTMUICON   0x000fb1       data     extern E:\c18v3.46\pic18-lt\cxx-framework\src\traditional\proc\p18f46j50.asm
             CTMUCONLbits   0x000fb2       data     extern E:\c18v3.46\pic18-lt\cxx-framework\src\traditional\proc\p18f46j50.asm
                 CTMUCONL   0x000fb2       data     extern E:\c18v3.46\pic18-lt\cxx-framework\src\traditional\proc\p18f46j50.asm
             CTMUCONHbits   0x000fb3       data     extern E:\c18v3.46\pic18-lt\cxx-framework\src\traditional\proc\p18f46j50.asm
                 CTMUCONH   0x000fb3       data     extern E:\c18v3.46\pic18-lt\cxx-framework\src\traditional\proc\p18f46j50.asm
                 ECCP2CON   0x000fb4       data     extern E:\c18v3.46\pic18-lt\cxx-framework\src\traditional\proc\p18f46j50.asm
             ECCP2CONbits   0x000fb4       data     extern E:\c18v3.46\pic18-lt\cxx-framework\src\traditional\proc\p18f46j50.asm
              CCP2CONbits   0x000fb4       data     extern E:\c18v3.46\pic18-lt\cxx-framework\src\traditional\proc\p18f46j50.asm
                  CCP2CON   0x000fb4       data     extern E:\c18v3.46\pic18-lt\cxx-framework\src\traditional\proc\p18f46j50.asm
                    CCPR2   0x000fb5       data     extern E:\c18v3.46\pic18-lt\cxx-framework\src\traditional\proc\p18f46j50.asm
                   CCPR2L   0x000fb5       data     extern E:\c18v3.46\pic18-lt\cxx-framework\src\traditional\proc\p18f46j50.asm
                   CCPR2H   0x000fb6       data     extern E:\c18v3.46\pic18-lt\cxx-framework\src\traditional\proc\p18f46j50.asm
             ECCP2DELbits   0x000fb7       data     extern E:\c18v3.46\pic18-lt\cxx-framework\src\traditional\proc\p18f46j50.asm
                 ECCP2DEL   0x000fb7       data     extern E:\c18v3.46\pic18-lt\cxx-framework\src\traditional\proc\p18f46j50.asm
                  PWM2CON   0x000fb7       data     extern E:\c18v3.46\pic18-lt\cxx-framework\src\traditional\proc\p18f46j50.asm
              PWM2CONbits   0x000fb7       data     extern E:\c18v3.46\pic18-lt\cxx-framework\src\traditional\proc\p18f46j50.asm
                  ECCP2AS   0x000fb8       data     extern E:\c18v3.46\pic18-lt\cxx-framework\src\traditional\proc\p18f46j50.asm
              ECCP2ASbits   0x000fb8       data     extern E:\c18v3.46\pic18-lt\cxx-framework\src\traditional\proc\p18f46j50.asm
                 PSTR2CON   0x000fb9       data     extern E:\c18v3.46\pic18-lt\cxx-framework\src\traditional\proc\p18f46j50.asm
             PSTR2CONbits   0x000fb9       data     extern E:\c18v3.46\pic18-lt\cxx-framework\src\traditional\proc\p18f46j50.asm
              CCP1CONbits   0x000fba       data     extern E:\c18v3.46\pic18-lt\cxx-framework\src\traditional\proc\p18f46j50.asm
                  CCP1CON   0x000fba       data     extern E:\c18v3.46\pic18-lt\cxx-framework\src\traditional\proc\p18f46j50.asm
             ECCP1CONbits   0x000fba       data     extern E:\c18v3.46\pic18-lt\cxx-framework\src\traditional\proc\p18f46j50.asm
                 ECCP1CON   0x000fba       data     extern E:\c18v3.46\pic18-lt\cxx-framework\src\traditional\proc\p18f46j50.asm
                   CCPR1L   0x000fbb       data     extern E:\c18v3.46\pic18-lt\cxx-framework\src\traditional\proc\p18f46j50.asm
                    CCPR1   0x000fbb       data     extern E:\c18v3.46\pic18-lt\cxx-framework\src\traditional\proc\p18f46j50.asm
                   CCPR1H   0x000fbc       data     extern E:\c18v3.46\pic18-lt\cxx-framework\src\traditional\proc\p18f46j50.asm
             ECCP1DELbits   0x000fbd       data     extern E:\c18v3.46\pic18-lt\cxx-framework\src\traditional\proc\p18f46j50.asm
                 ECCP1DEL   0x000fbd       data     extern E:\c18v3.46\pic18-lt\cxx-framework\src\traditional\proc\p18f46j50.asm
                  PWM1CON   0x000fbd       data     extern E:\c18v3.46\pic18-lt\cxx-framework\src\traditional\proc\p18f46j50.asm
              PWM1CONbits   0x000fbd       data     extern E:\c18v3.46\pic18-lt\cxx-framework\src\traditional\proc\p18f46j50.asm
              ECCP1ASbits   0x000fbe       data     extern E:\c18v3.46\pic18-lt\cxx-framework\src\traditional\proc\p18f46j50.asm
                  ECCP1AS   0x000fbe       data     extern E:\c18v3.46\pic18-lt\cxx-framework\src\traditional\proc\p18f46j50.asm
             PSTR1CONbits   0x000fbf       data     extern E:\c18v3.46\pic18-lt\cxx-framework\src\traditional\proc\p18f46j50.asm
                 PSTR1CON   0x000fbf       data     extern E:\c18v3.46\pic18-lt\cxx-framework\src\traditional\proc\p18f46j50.asm
                   WDTCON   0x000fc0       data     extern E:\c18v3.46\pic18-lt\cxx-framework\src\traditional\proc\p18f46j50.asm
               WDTCONbits   0x000fc0       data     extern E:\c18v3.46\pic18-lt\cxx-framework\src\traditional\proc\p18f46j50.asm
               ADCON1bits   0x000fc1       data     extern E:\c18v3.46\pic18-lt\cxx-framework\src\traditional\proc\p18f46j50.asm
                   ADCON1   0x000fc1       data     extern E:\c18v3.46\pic18-lt\cxx-framework\src\traditional\proc\p18f46j50.asm
               ADCON0bits   0x000fc2       data     extern E:\c18v3.46\pic18-lt\cxx-framework\src\traditional\proc\p18f46j50.asm
                   ADCON0   0x000fc2       data     extern E:\c18v3.46\pic18-lt\cxx-framework\src\traditional\proc\p18f46j50.asm
                    ADRES   0x000fc3       data     extern E:\c18v3.46\pic18-lt\cxx-framework\src\traditional\proc\p18f46j50.asm
                   ADRESL   0x000fc3       data     extern E:\c18v3.46\pic18-lt\cxx-framework\src\traditional\proc\p18f46j50.asm
                   ADRESH   0x000fc4       data     extern E:\c18v3.46\pic18-lt\cxx-framework\src\traditional\proc\p18f46j50.asm
              SSPCON2bits   0x000fc5       data     extern E:\c18v3.46\pic18-lt\cxx-framework\src\traditional\proc\p18f46j50.asm
                  SSPCON2   0x000fc5       data     extern E:\c18v3.46\pic18-lt\cxx-framework\src\traditional\proc\p18f46j50.asm
             SSP1CON2bits   0x000fc5       data     extern E:\c18v3.46\pic18-lt\cxx-framework\src\traditional\proc\p18f46j50.asm
                 SSP1CON2   0x000fc5       data     extern E:\c18v3.46\pic18-lt\cxx-framework\src\traditional\proc\p18f46j50.asm
              SSPCON1bits   0x000fc6       data     extern E:\c18v3.46\pic18-lt\cxx-framework\src\traditional\proc\p18f46j50.asm
                  SSPCON1   0x000fc6       data     extern E:\c18v3.46\pic18-lt\cxx-framework\src\traditional\proc\p18f46j50.asm
             SSP1CON1bits   0x000fc6       data     extern E:\c18v3.46\pic18-lt\cxx-framework\src\traditional\proc\p18f46j50.asm
                 SSP1CON1   0x000fc6       data     extern E:\c18v3.46\pic18-lt\cxx-framework\src\traditional\proc\p18f46j50.asm
              SSPSTATbits   0x000fc7       data     extern E:\c18v3.46\pic18-lt\cxx-framework\src\traditional\proc\p18f46j50.asm
                  SSPSTAT   0x000fc7       data     extern E:\c18v3.46\pic18-lt\cxx-framework\src\traditional\proc\p18f46j50.asm
             SSP1STATbits   0x000fc7       data     extern E:\c18v3.46\pic18-lt\cxx-framework\src\traditional\proc\p18f46j50.asm
                 SSP1STAT   0x000fc7       data     extern E:\c18v3.46\pic18-lt\cxx-framework\src\traditional\proc\p18f46j50.asm
               SSPADDbits   0x000fc8       data     extern E:\c18v3.46\pic18-lt\cxx-framework\src\traditional\proc\p18f46j50.asm
                   SSPADD   0x000fc8       data     extern E:\c18v3.46\pic18-lt\cxx-framework\src\traditional\proc\p18f46j50.asm
              SSP1ADDbits   0x000fc8       data     extern E:\c18v3.46\pic18-lt\cxx-framework\src\traditional\proc\p18f46j50.asm
                  SSP1ADD   0x000fc8       data     extern E:\c18v3.46\pic18-lt\cxx-framework\src\traditional\proc\p18f46j50.asm
                  SSP1BUF   0x000fc9       data     extern E:\c18v3.46\pic18-lt\cxx-framework\src\traditional\proc\p18f46j50.asm
                   SSPBUF   0x000fc9       data     extern E:\c18v3.46\pic18-lt\cxx-framework\src\traditional\proc\p18f46j50.asm
                T2CONbits   0x000fca       data     extern E:\c18v3.46\pic18-lt\cxx-framework\src\traditional\proc\p18f46j50.asm
                    T2CON   0x000fca       data     extern E:\c18v3.46\pic18-lt\cxx-framework\src\traditional\proc\p18f46j50.asm
                      PR2   0x000fcb       data     extern E:\c18v3.46\pic18-lt\cxx-framework\src\traditional\proc\p18f46j50.asm
                     TMR2   0x000fcc       data     extern E:\c18v3.46\pic18-lt\cxx-framework\src\traditional\proc\p18f46j50.asm
                    T1CON   0x000fcd       data     extern E:\c18v3.46\pic18-lt\cxx-framework\src\traditional\proc\p18f46j50.asm
                T1CONbits   0x000fcd       data     extern E:\c18v3.46\pic18-lt\cxx-framework\src\traditional\proc\p18f46j50.asm
                    TMR1L   0x000fce       data     extern E:\c18v3.46\pic18-lt\cxx-framework\src\traditional\proc\p18f46j50.asm
                    TMR1H   0x000fcf       data     extern E:\c18v3.46\pic18-lt\cxx-framework\src\traditional\proc\p18f46j50.asm
                     RCON   0x000fd0       data     extern E:\c18v3.46\pic18-lt\cxx-framework\src\traditional\proc\p18f46j50.asm
                 RCONbits   0x000fd0       data     extern E:\c18v3.46\pic18-lt\cxx-framework\src\traditional\proc\p18f46j50.asm
              CM2CON1bits   0x000fd1       data     extern E:\c18v3.46\pic18-lt\cxx-framework\src\traditional\proc\p18f46j50.asm
                  CM2CON1   0x000fd1       data     extern E:\c18v3.46\pic18-lt\cxx-framework\src\traditional\proc\p18f46j50.asm
                   CM2CON   0x000fd1       data     extern E:\c18v3.46\pic18-lt\cxx-framework\src\traditional\proc\p18f46j50.asm
               CM2CONbits   0x000fd1       data     extern E:\c18v3.46\pic18-lt\cxx-framework\src\traditional\proc\p18f46j50.asm
               CM1CONbits   0x000fd2       data     extern E:\c18v3.46\pic18-lt\cxx-framework\src\traditional\proc\p18f46j50.asm
                   CM1CON   0x000fd2       data     extern E:\c18v3.46\pic18-lt\cxx-framework\src\traditional\proc\p18f46j50.asm
                  CM1CON1   0x000fd2       data     extern E:\c18v3.46\pic18-lt\cxx-framework\src\traditional\proc\p18f46j50.asm
              CM1CON1bits   0x000fd2       data     extern E:\c18v3.46\pic18-lt\cxx-framework\src\traditional\proc\p18f46j50.asm
               OSCCONbits   0x000fd3       data     extern E:\c18v3.46\pic18-lt\cxx-framework\src\traditional\proc\p18f46j50.asm
                   OSCCON   0x000fd3       data     extern E:\c18v3.46\pic18-lt\cxx-framework\src\traditional\proc\p18f46j50.asm
                    T0CON   0x000fd5       data     extern E:\c18v3.46\pic18-lt\cxx-framework\src\traditional\proc\p18f46j50.asm
                T0CONbits   0x000fd5       data     extern E:\c18v3.46\pic18-lt\cxx-framework\src\traditional\proc\p18f46j50.asm
                    TMR0L   0x000fd6       data     extern E:\c18v3.46\pic18-lt\cxx-framework\src\traditional\proc\p18f46j50.asm
                    TMR0H   0x000fd7       data     extern E:\c18v3.46\pic18-lt\cxx-framework\src\traditional\proc\p18f46j50.asm
                   STATUS   0x000fd8       data     extern E:\c18v3.46\pic18-lt\cxx-framework\src\traditional\proc\p18f46j50.asm
               STATUSbits   0x000fd8       data     extern E:\c18v3.46\pic18-lt\cxx-framework\src\traditional\proc\p18f46j50.asm
                    FSR2L   0x000fd9       data     extern E:\c18v3.46\pic18-lt\cxx-framework\src\traditional\proc\p18f46j50.asm
                     FSR2   0x000fd9       data     extern E:\c18v3.46\pic18-lt\cxx-framework\src\traditional\proc\p18f46j50.asm
                    FSR2H   0x000fda       data     extern E:\c18v3.46\pic18-lt\cxx-framework\src\traditional\proc\p18f46j50.asm
                   PLUSW2   0x000fdb       data     extern E:\c18v3.46\pic18-lt\cxx-framework\src\traditional\proc\p18f46j50.asm
                  PREINC2   0x000fdc       data     extern E:\c18v3.46\pic18-lt\cxx-framework\src\traditional\proc\p18f46j50.asm
                 POSTDEC2   0x000fdd       data     extern E:\c18v3.46\pic18-lt\cxx-framework\src\traditional\proc\p18f46j50.asm
                 POSTINC2   0x000fde       data     extern E:\c18v3.46\pic18-lt\cxx-framework\src\traditional\proc\p18f46j50.asm
                    INDF2   0x000fdf       data     extern E:\c18v3.46\pic18-lt\cxx-framework\src\traditional\proc\p18f46j50.asm
                      BSR   0x000fe0       data     extern E:\c18v3.46\pic18-lt\cxx-framework\src\traditional\proc\p18f46j50.asm
                     FSR1   0x000fe1       data     extern E:\c18v3.46\pic18-lt\cxx-framework\src\traditional\proc\p18f46j50.asm
                    FSR1L   0x000fe1       data     extern E:\c18v3.46\pic18-lt\cxx-framework\src\traditional\proc\p18f46j50.asm
                    FSR1H   0x000fe2       data     extern E:\c18v3.46\pic18-lt\cxx-framework\src\traditional\proc\p18f46j50.asm
                   PLUSW1   0x000fe3       data     extern E:\c18v3.46\pic18-lt\cxx-framework\src\traditional\proc\p18f46j50.asm
                  PREINC1   0x000fe4       data     extern E:\c18v3.46\pic18-lt\cxx-framework\src\traditional\proc\p18f46j50.asm
                 POSTDEC1   0x000fe5       data     extern E:\c18v3.46\pic18-lt\cxx-framework\src\traditional\proc\p18f46j50.asm
                 POSTINC1   0x000fe6       data     extern E:\c18v3.46\pic18-lt\cxx-framework\src\traditional\proc\p18f46j50.asm
                    INDF1   0x000fe7       data     extern E:\c18v3.46\pic18-lt\cxx-framework\src\traditional\proc\p18f46j50.asm
                     WREG   0x000fe8       data     extern E:\c18v3.46\pic18-lt\cxx-framework\src\traditional\proc\p18f46j50.asm
                    FSR0L   0x000fe9       data     extern E:\c18v3.46\pic18-lt\cxx-framework\src\traditional\proc\p18f46j50.asm
                     FSR0   0x000fe9       data     extern E:\c18v3.46\pic18-lt\cxx-framework\src\traditional\proc\p18f46j50.asm
                    FSR0H   0x000fea       data     extern E:\c18v3.46\pic18-lt\cxx-framework\src\traditional\proc\p18f46j50.asm
                   PLUSW0   0x000feb       data     extern E:\c18v3.46\pic18-lt\cxx-framework\src\traditional\proc\p18f46j50.asm
                  PREINC0   0x000fec       data     extern E:\c18v3.46\pic18-lt\cxx-framework\src\traditional\proc\p18f46j50.asm
                 POSTDEC0   0x000fed       data     extern E:\c18v3.46\pic18-lt\cxx-framework\src\traditional\proc\p18f46j50.asm
                 POSTINC0   0x000fee       data     extern E:\c18v3.46\pic18-lt\cxx-framework\src\traditional\proc\p18f46j50.asm
                    INDF0   0x000fef       data     extern E:\c18v3.46\pic18-lt\cxx-framework\src\traditional\proc\p18f46j50.asm
              INTCON3bits   0x000ff0       data     extern E:\c18v3.46\pic18-lt\cxx-framework\src\traditional\proc\p18f46j50.asm
                  INTCON3   0x000ff0       data     extern E:\c18v3.46\pic18-lt\cxx-framework\src\traditional\proc\p18f46j50.asm
              INTCON2bits   0x000ff1       data     extern E:\c18v3.46\pic18-lt\cxx-framework\src\traditional\proc\p18f46j50.asm
                  INTCON2   0x000ff1       data     extern E:\c18v3.46\pic18-lt\cxx-framework\src\traditional\proc\p18f46j50.asm
               INTCONbits   0x000ff2       data     extern E:\c18v3.46\pic18-lt\cxx-framework\src\traditional\proc\p18f46j50.asm
                   INTCON   0x000ff2       data     extern E:\c18v3.46\pic18-lt\cxx-framework\src\traditional\proc\p18f46j50.asm
                    PRODL   0x000ff3       data     extern E:\c18v3.46\pic18-lt\cxx-framework\src\traditional\proc\p18f46j50.asm
                     PROD   0x000ff3       data     extern E:\c18v3.46\pic18-lt\cxx-framework\src\traditional\proc\p18f46j50.asm
                    PRODH   0x000ff4       data     extern E:\c18v3.46\pic18-lt\cxx-framework\src\traditional\proc\p18f46j50.asm
                   TABLAT   0x000ff5       data     extern E:\c18v3.46\pic18-lt\cxx-framework\src\traditional\proc\p18f46j50.asm
                  TBLPTRL   0x000ff6       data     extern E:\c18v3.46\pic18-lt\cxx-framework\src\traditional\proc\p18f46j50.asm
                   TBLPTR   0x000ff6       data     extern E:\c18v3.46\pic18-lt\cxx-framework\src\traditional\proc\p18f46j50.asm
                  TBLPTRH   0x000ff7       data     extern E:\c18v3.46\pic18-lt\cxx-framework\src\traditional\proc\p18f46j50.asm
                  TBLPTRU   0x000ff8       data     extern E:\c18v3.46\pic18-lt\cxx-framework\src\traditional\proc\p18f46j50.asm
                       PC   0x000ff9       data     extern E:\c18v3.46\pic18-lt\cxx-framework\src\traditional\proc\p18f46j50.asm
                      PCL   0x000ff9       data     extern E:\c18v3.46\pic18-lt\cxx-framework\src\traditional\proc\p18f46j50.asm
                   PCLATH   0x000ffa       data     extern E:\c18v3.46\pic18-lt\cxx-framework\src\traditional\proc\p18f46j50.asm
                   PCLATU   0x000ffb       data     extern E:\c18v3.46\pic18-lt\cxx-framework\src\traditional\proc\p18f46j50.asm
               STKPTRbits   0x000ffc       data     extern E:\c18v3.46\pic18-lt\cxx-framework\src\traditional\proc\p18f46j50.asm
                   STKPTR   0x000ffc       data     extern E:\c18v3.46\pic18-lt\cxx-framework\src\traditional\proc\p18f46j50.asm
                     TOSL   0x000ffd       data     extern E:\c18v3.46\pic18-lt\cxx-framework\src\traditional\proc\p18f46j50.asm
                      TOS   0x000ffd       data     extern E:\c18v3.46\pic18-lt\cxx-framework\src\traditional\proc\p18f46j50.asm
                     TOSH   0x000ffe       data     extern E:\c18v3.46\pic18-lt\cxx-framework\src\traditional\proc\p18f46j50.asm
                     TOSU   0x000fff       data     extern E:\c18v3.46\pic18-lt\cxx-framework\src\traditional\proc\p18f46j50.asm


