MPLINK 5.00, LINKER
Linker Map File - Created Wed Oct 04 22:08:36 2023

                                 Section Info
                  Section       Type    Address   Location Size(Bytes)
                ---------  ---------  ---------  ---------  ---------
    REMAPPED_RESET_VECTOR       code   0x001000    program   0x000006
REMAPPED_HIGH_INTERRUPT_VECTOR       code   0x001008    program   0x000006
REMAPPED_LOW_INTERRUPT_VECTOR       code   0x001018    program   0x000006
                   .cinit    romdata   0x00102a    program   0x000026
              .code_ebb.o       code   0x001050    program   0x003302
              .code_UBW.o       code   0x004352    program   0x002b1e
       .code_usb_device.o       code   0x006e70    program   0x000d3e
             .stringtable    romdata   0x007bae    program   0x00049c
         .code_RCServo2.o       code   0x00804a    program   0x0003ea
 .code_usb_function_cdc.o       code   0x008434    program   0x0003c6
        .code_ebb_print.o       code   0x0087fa    program   0x000230
  .code_WriteBytesFlash.o       code   0x008a2a    program   0x0001de
             .code_main.o       code   0x008c08    program   0x00014e
       .code_EraseFlash.o       code   0x008d56    program   0x0000f8
           .romdata_UBW.o    romdata   0x008e4e    program   0x0000ac
               _cinit_scn       code   0x008efa    program   0x00009e
        .code_ReadFlash.o       code   0x008f98    program   0x000092
           .code_u1open.o       code   0x00902a    program   0x000072
          .code_fxm3232.o       code   0x00909c    program   0x000070
                     PROG       code   0x00910c    program   0x000068
.romdata_usb_descriptors.o    romdata   0x009174    program   0x000057
        .romdata___init.o    romdata   0x0091cb    program   0x000000
        .idata___init.o_i    romdata   0x0091cb    program   0x000000
      .romdata_fxd3232u.o    romdata   0x0091cb    program   0x000000
       .idata_fxm3232.o_i    romdata   0x0091cb    program   0x000000
       .romdata_fxm3232.o    romdata   0x0091cb    program   0x000000
.romdata_WriteBytesFlash.o    romdata   0x0091cb    program   0x000000
.idata_WriteBytesFlash.o_i    romdata   0x0091cb    program   0x000000
        .idata_u1open.o_i    romdata   0x0091cb    program   0x000000
        .romdata_u1open.o    romdata   0x0091cb    program   0x000000
        .romdata_u1defs.o    romdata   0x0091cb    program   0x000000
        .idata_u1defs.o_i    romdata   0x0091cb    program   0x000000
       .romdata_u1write.o    romdata   0x0091cb    program   0x000000
     .idata_ReadFlash.o_i    romdata   0x0091cb    program   0x000000
       .idata_u1write.o_i    romdata   0x0091cb    program   0x000000
     .romdata_ReadFlash.o    romdata   0x0091cb    program   0x000000
       .idata_pow2x16.o_i    romdata   0x0091cb    program   0x000000
       .romdata_pow2x16.o    romdata   0x0091cb    program   0x000000
         .idata_c018i.o_i    romdata   0x0091cb    program   0x000000
         .romdata_c018i.o    romdata   0x0091cb    program   0x000000
    .idata_usb_device.o_i    romdata   0x0091cb    program   0x000000
    .romdata_usb_device.o    romdata   0x0091cb    program   0x000000
.idata_usb_function_cdc.o_i    romdata   0x0091cb    program   0x000000
.romdata_usb_function_cdc.o    romdata   0x0091cb    program   0x000000
           .romdata_ebb.o    romdata   0x0091cb    program   0x000000
          .idata_main.o_i    romdata   0x0091cb    program   0x000000
          .romdata_main.o    romdata   0x0091cb    program   0x000000
      .idata_RCServo2.o_i    romdata   0x0091cb    program   0x000000
      .idata_fxd3232u.o_i    romdata   0x0091cb    program   0x000000
    .romdata_EraseFlash.o    romdata   0x0091cb    program   0x000000
    .idata_EraseFlash.o_i    romdata   0x0091cb    program   0x000000
     .romdata_ebb_print.o    romdata   0x0091cb    program   0x000000
     .idata_ebb_print.o_i    romdata   0x0091cb    program   0x000000
      .romdata_RCServo2.o    romdata   0x0091cb    program   0x000000
           .code_u1defs.o       code   0x0091cc    program   0x000000
  .code_usb_descriptors.o       code   0x0091cc    program   0x000000
         .code_fxd3232u.o       code   0x0091cc    program   0x000048
            .code_c018i.o       code   0x0091cc    program   0x000000
                   STRING       code   0x009214    program   0x000034
          .code_u1write.o       code   0x009248    program   0x00002e
                    CTYPE       code   0x009276    program   0x000028
                    .code       code   0x00929e    program   0x000020
             _startup_scn       code   0x0092be    program   0x00001c
          .code_pow2x16.o       code   0x0092da    program   0x000016
           .code___init.o       code   0x0092f0    program   0x000002
.idata_usb_descriptors.o_i    romdata   0x0092f2    program   0x00007e
           .idata_ebb.o_i    romdata   0x009370    program   0x000002
           .idata_UBW.o_i    romdata   0x009372    program   0x00004b
               ISR_access      udata   0x000000       data   0x000023
                MATH_DATA      udata   0x000023       data   0x000010
                 .tmpdata      udata   0x000033       data   0x000008
              low_ISR_tmp      udata   0x00003b       data   0x000004
             high_ISR_tmp      udata   0x00003f       data   0x000004
         RC2Servo_globals      udata   0x000060       data   0x00002b
             .udata_UBW.o      udata   0x00008b       data   0x00006f
      .idata_EraseFlash.o      idata   0x0000fa       data   0x000000
      .udata_EraseFlash.o      udata   0x0000fa       data   0x000000
       .idata_ReadFlash.o      idata   0x0000fa       data   0x000000
         .udata_u1write.o      udata   0x0000fa       data   0x000000
 .udata_usb_descriptors.o      udata   0x0000fa       data   0x000000
         .idata_u1write.o      idata   0x0000fa       data   0x000000
       .idata_ebb_print.o      idata   0x0000fa       data   0x000000
          .idata_u1defs.o      idata   0x0000fa       data   0x000000
         .idata_pow2x16.o      idata   0x0000fa       data   0x000000
         .udata_pow2x16.o      udata   0x0000fa       data   0x000000
          .idata___init.o      idata   0x0000fa       data   0x000000
          .udata___init.o      udata   0x0000fa       data   0x000000
 .idata_WriteBytesFlash.o      idata   0x0000fa       data   0x000000
 .udata_WriteBytesFlash.o      udata   0x0000fa       data   0x000000
        .idata_RCServo2.o      idata   0x0000fa       data   0x000000
        .udata_RCServo2.o      udata   0x0000fa       data   0x000000
            .idata_main.o      idata   0x0000fa       data   0x000000
        .udata_fxd3232u.o      udata   0x0000fa       data   0x000000
           .idata_c018i.o      idata   0x0000fa       data   0x000000
        .idata_fxd3232u.o      idata   0x0000fa       data   0x000000
         .udata_fxm3232.o      udata   0x0000fa       data   0x000000
         .idata_fxm3232.o      idata   0x0000fa       data   0x000000
.idata_usb_function_cdc.o      idata   0x0000fa       data   0x000000
          .udata_u1open.o      udata   0x0000fa       data   0x000000
          .idata_u1open.o      idata   0x0000fa       data   0x000000
      .idata_usb_device.o      idata   0x0000fa       data   0x000000
       .udata_ReadFlash.o      udata   0x0000fa       data   0x000000
                  ISR_buf      udata   0x000100       data   0x000071
       .udata_ebb_print.o      udata   0x000171       data   0x00000e
              ISR_globals      udata   0x000180       data   0x000043
      .udata_usb_device.o      udata   0x0001c3       data   0x000034
               com_tx_buf      udata   0x000200       data   0x000080
 .idata_usb_descriptors.o      idata   0x000280       data   0x00007e
            .udata_main.o      udata   0x0002fe       data   0x000002
               com_rx_buf      udata   0x000300       data   0x000100
                  USB_BDT      udata   0x000400       data   0x000078
.udata_usb_function_cdc.o      udata   0x000500       data   0x0000a8
             .idata_UBW.o      idata   0x0005a8       data   0x00004b
           .udata_c018i.o      udata   0x0005f3       data   0x00000a
             .idata_ebb.o      idata   0x0005fd       data   0x000002
          .udata_u1defs.o      udata   0x0005ff       data   0x000001
                 FIFO_scn      udata   0x000600       data   0x000524
             .udata_ebb.o      udata   0x000b24       data   0x00008d
                   .stack      udata   0x000d00       data   0x0001c0
              SFR_BANKED0      udata   0x000ec6       data   0x00000e
              SFR_BANKED1      udata   0x000ed7       data   0x000008
              SFR_BANKED2      udata   0x000ee7       data   0x000004
              SFR_BANKED3      udata   0x000eec       data   0x000003
              SFR_BANKED4      udata   0x000ef2       data   0x000002
              SFR_BANKED5      udata   0x000ef6       data   0x000002
              SFR_BANKED6      udata   0x000efb       data   0x000005
              SFR_BANKED7      udata   0x000f26       data   0x000014
              SFR_BANKED8      udata   0x000f3c       data   0x000007
              SFR_BANKED9      udata   0x000f48       data   0x000008
             SFR_BANKED10      udata   0x000f52       data   0x00000e
            SFR_UNBANKED0      udata   0x000f60       data   0x0000a0



                              Program Memory Usage 
                               Start         End      
                           ---------   ---------      
                            0x001000    0x001005      
                            0x001008    0x00100d      
                            0x001018    0x00101d      
                            0x00102a    0x0091ca      
                            0x0091cc    0x0093bc      
            33700 out of 63498 program addresses used, program memory utilization is 53%



                              Symbols - Sorted by Name
                     Name    Address   Location    Storage File                     
                ---------  ---------  ---------  --------- ---------                
          AnalogConfigure   0x005a4c    program     extern C:\Projects\EggBot_GH\EBB_firmware\app.X\source\UBW.c
           BlinkUSBStatus   0x006796    program     extern C:\Projects\EggBot_GH\EBB_firmware\app.X\source\UBW.c
                CDCInitEP   0x0084d0    program     extern C:\Projects\EggBot_GH\EBB_firmware\Microchip\USB\CDC Device Driver\usb_function_cdc.c
             CDCTxService   0x008666    program     extern C:\Projects\EggBot_GH\EBB_firmware\Microchip\USB\CDC Device Driver\usb_function_cdc.c
                   D3232S   0x00913c    program     static E:\3.46\pic18-lt\cxx-framework\src\traditional\math\fxd3232s.asm
                D3232SNEG   0x00914a    program     static E:\3.46\pic18-lt\cxx-framework\src\traditional\math\fxd3232s.asm
                 D3232SOK   0x009146    program     static E:\3.46\pic18-lt\cxx-framework\src\traditional\math\fxd3232s.asm
                  D3232SX   0x00916a    program     static E:\3.46\pic18-lt\cxx-framework\src\traditional\math\fxd3232s.asm
                  DA3232S   0x009126    program     static E:\3.46\pic18-lt\cxx-framework\src\traditional\math\fxd3232s.asm
                 EBB_Init   0x001b68    program     extern C:\Projects\EggBot_GH\EBB_firmware\app.X\source\ebb.c
               EraseFlash   0x008d56    program     extern E:\3.46\pic18-lt\cxx-framework\src\pmc_common\Flash\EraseFlash.c
                 FXD3232S   0x00910c    program     extern E:\3.46\pic18-lt\cxx-framework\src\traditional\math\fxd3232s.asm
                 FXD3232U   0x0091cc    program     extern E:\3.46\pic18-lt\cxx-framework\src\traditional\math\fxd3232u.c
                  FXM3232   0x00909c    program     extern E:\3.46\pic18-lt\cxx-framework\src\traditional\math\fxm3232.c
         InitializeSystem   0x008c18    program     static C:\Projects\EggBot_GH\EBB_firmware\app.X\source\main.c
                LongDelay   0x00608a    program     extern C:\Projects\EggBot_GH\EBB_firmware\app.X\source\UBW.c
               Open1USART   0x00902a    program     extern E:\3.46\pic18-lt\cxx-framework\src\pmc_common\USART\u1open.c
                ProcessIO   0x0049f0    program     extern C:\Projects\EggBot_GH\EBB_firmware\app.X\source\UBW.c
            RCServo2_Init   0x00804a    program     extern C:\Projects\EggBot_GH\EBB_firmware\app.X\source\RCServo2.c
            RCServo2_Move   0x0081e4    program     extern C:\Projects\EggBot_GH\EBB_firmware\app.X\source\RCServo2.c
      RCServo2_S2_command   0x00813a    program     extern C:\Projects\EggBot_GH\EBB_firmware\app.X\source\RCServo2.c
RCServo2_get_channel_from_RPn   0x0080fc    program     extern C:\Projects\EggBot_GH\EBB_firmware\app.X\source\RCServo2.c
                   RPnBit   0x008ee1    program     extern C:\Projects\EggBot_GH\EBB_firmware\app.X\source\UBW.c
               RPnLATPort   0x008eaf    program     extern C:\Projects\EggBot_GH\EBB_firmware\app.X\source\UBW.c
              RPnTRISPort   0x008e7d    program     extern C:\Projects\EggBot_GH\EBB_firmware\app.X\source\UBW.c
                ReadFlash   0x008f98    program     extern E:\3.46\pic18-lt\cxx-framework\src\pmc_common\Flash\ReadFlash.c
        Remapped_High_ISR   0x001008    program     extern C:\Projects\EggBot_GH\EBB_firmware\app.X\source\main.c
         Remapped_Low_ISR   0x001018    program     extern C:\Projects\EggBot_GH\EBB_firmware\app.X\source\main.c
         SetPinLATFromRPn   0x006872    program     extern C:\Projects\EggBot_GH\EBB_firmware\app.X\source\UBW.c
        SetPinTRISFromRPn   0x0068ce    program     extern C:\Projects\EggBot_GH\EBB_firmware\app.X\source\UBW.c
       USBCBCheckOtherReq   0x008c74    program     extern C:\Projects\EggBot_GH\EBB_firmware\app.X\source\main.c
        USBCBErrorHandler   0x008c72    program     extern C:\Projects\EggBot_GH\EBB_firmware\app.X\source\main.c
              USBCBInitEP   0x008c7a    program     extern C:\Projects\EggBot_GH\EBB_firmware\app.X\source\main.c
          USBCBSendResume   0x008c7e    program     extern C:\Projects\EggBot_GH\EBB_firmware\app.X\source\main.c
    USBCBStdSetDscHandler   0x008c78    program     extern C:\Projects\EggBot_GH\EBB_firmware\app.X\source\main.c
             USBCBSuspend   0x008c6c    program     extern C:\Projects\EggBot_GH\EBB_firmware\app.X\source\main.c
     USBCBWakeFromSuspend   0x008c6e    program     extern C:\Projects\EggBot_GH\EBB_firmware\app.X\source\main.c
        USBCB_SOF_Handler   0x008c70    program     extern C:\Projects\EggBot_GH\EBB_firmware\app.X\source\main.c
       USBCDCEventHandler   0x008512    program     extern C:\Projects\EggBot_GH\EBB_firmware\Microchip\USB\CDC Device Driver\usb_function_cdc.c
              USBCancelIO   0x00719c    program     extern C:\Projects\EggBot_GH\EBB_firmware\Microchip\USB\usb_device.c
       USBCheckCDCRequest   0x008434    program     extern C:\Projects\EggBot_GH\EBB_firmware\Microchip\USB\CDC Device Driver\usb_function_cdc.c
       USBCheckStdRequest   0x00779c    program     static C:\Projects\EggBot_GH\EBB_firmware\Microchip\USB\usb_device.c
     USBConfigureEndpoint   0x00725c    program     static C:\Projects\EggBot_GH\EBB_firmware\Microchip\USB\usb_device.c
  USBCtrlEPAllowDataStage   0x00721e    program     extern C:\Projects\EggBot_GH\EBB_firmware\Microchip\USB\usb_device.c
USBCtrlEPAllowStatusStage   0x0071d2    program     extern C:\Projects\EggBot_GH\EBB_firmware\Microchip\USB\usb_device.c
         USBCtrlEPService   0x007640    program     static C:\Projects\EggBot_GH\EBB_firmware\Microchip\USB\usb_device.c
 USBCtrlEPServiceComplete   0x0072b8    program     static C:\Projects\EggBot_GH\EBB_firmware\Microchip\USB\usb_device.c
      USBCtrlTrfInHandler   0x007722    program     static C:\Projects\EggBot_GH\EBB_firmware\Microchip\USB\usb_device.c
     USBCtrlTrfOutHandler   0x007704    program     static C:\Projects\EggBot_GH\EBB_firmware\Microchip\USB\usb_device.c
      USBCtrlTrfRxService   0x007392    program     static C:\Projects\EggBot_GH\EBB_firmware\Microchip\USB\usb_device.c
   USBCtrlTrfSetupHandler   0x0076ce    program     static C:\Projects\EggBot_GH\EBB_firmware\Microchip\USB\usb_device.c
      USBCtrlTrfTxService   0x007312    program     static C:\Projects\EggBot_GH\EBB_firmware\Microchip\USB\usb_device.c
            USBDeviceInit   0x006e70    program     extern C:\Projects\EggBot_GH\EBB_firmware\Microchip\USB\usb_device.c
           USBDeviceTasks   0x006f3c    program     extern C:\Projects\EggBot_GH\EBB_firmware\Microchip\USB\usb_device.c
        USBEnableEndpoint   0x007096    program     extern C:\Projects\EggBot_GH\EBB_firmware\Microchip\USB\usb_device.c
         USBStallEndpoint   0x00716a    program     extern C:\Projects\EggBot_GH\EBB_firmware\Microchip\USB\usb_device.c
          USBStallHandler   0x0075ee    program     static C:\Projects\EggBot_GH\EBB_firmware\Microchip\USB\usb_device.c
  USBStdFeatureReqHandler   0x007844    program     static C:\Projects\EggBot_GH\EBB_firmware\Microchip\USB\usb_device.c
      USBStdGetDscHandler   0x0074d2    program     static C:\Projects\EggBot_GH\EBB_firmware\Microchip\USB\usb_device.c
   USBStdGetStatusHandler   0x007578    program     static C:\Projects\EggBot_GH\EBB_firmware\Microchip\USB\usb_device.c
      USBStdSetCfgHandler   0x00745a    program     static C:\Projects\EggBot_GH\EBB_firmware\Microchip\USB\usb_device.c
               USBSuspend   0x007610    program     static C:\Projects\EggBot_GH\EBB_firmware\Microchip\USB\usb_device.c
     USBTransferOnePacket   0x0070de    program     extern C:\Projects\EggBot_GH\EBB_firmware\Microchip\USB\usb_device.c
       USBWakeFromSuspend   0x007626    program     static C:\Projects\EggBot_GH\EBB_firmware\Microchip\USB\usb_device.c
               USB_CD_Ptr   0x0091c9    program     extern C:\Projects\EggBot_GH\EBB_firmware\app.X\source\usb_descriptors.c
USER_USB_CALLBACK_EVENT_HANDLER   0x008cc2    program     extern C:\Projects\EggBot_GH\EBB_firmware\app.X\source\main.c
                 UserInit   0x004812    program     extern C:\Projects\EggBot_GH\EBB_firmware\app.X\source\UBW.c
              Write1USART   0x009248    program     extern E:\3.46\pic18-lt\cxx-framework\src\pmc_common\USART\u1write.c
          WriteBytesFlash   0x008a2a    program     extern E:\3.46\pic18-lt\cxx-framework\src\pmc_common\Flash\WriteBytesFlash.c
              _2jContinue   0x009234    program     static E:\3.46\pic18-lt\cxx-framework\src\traditional\stdclib\memset.asm
                   _3jEnd   0x00923e    program     static E:\3.46\pic18-lt\cxx-framework\src\traditional\stdclib\memset.asm
       ___case_0_lbl00269   0x005708    program     static                          
       ___case_1_lbl00270   0x005708    program     static                          
       ___case_2_lbl00268   0x0056f4    program     static                          
       ___case_3_lbl00272   0x00570e    program     static                          
      ___default_lbl00271   0x005708    program     static                          
         ___else_lbl00245   0x0054a0    program     static                          
         ___else_lbl00248   0x0054de    program     static                          
         ___else_lbl00250   0x005520    program     static                          
         ___else_lbl00252   0x005504    program     static                          
         ___else_lbl00257   0x0055a6    program     static                          
         ___else_lbl00259   0x00558a    program     static                          
         ___else_lbl00261   0x0055cc    program     static                          
         ___else_lbl00264   0x00564e    program     static                          
         ___else_lbl00266   0x005680    program     static                          
         ___else_lbl00274   0x0056de    program     static                          
         ___else_lbl00276   0x005764    program     static                          
         ___else_lbl00278   0x005740    program     static                          
         ___else_lbl00280   0x0057ba    program     static                          
         ___else_lbl00282   0x00578a    program     static                          
         ___else_lbl00284   0x005810    program     static                          
         ___else_lbl00286   0x0057e0    program     static                          
         ___else_lbl00288   0x005862    program     static                          
         ___else_lbl00290   0x005834    program     static                          
         ___else_lbl00294   0x0058f0    program     static                          
         ___else_lbl00296   0x0058c2    program     static                          
         ___else_lbl00298   0x0058f6    program     static                          
         ___else_lbl00300   0x0058a6    program     static                          
         ___else_lbl00302   0x005868    program     static                          
         ___else_lbl00304   0x005816    program     static                          
         ___else_lbl00306   0x0057c0    program     static                          
         ___else_lbl00308   0x00576a    program     static                          
         ___else_lbl00310   0x005722    program     static                          
         ___else_lbl00312   0x0056aa    program     static                          
         ___else_lbl00314   0x005686    program     static                          
         ___else_lbl00316   0x005658    program     static                          
         ___else_lbl00318   0x005626    program     static                          
         ___else_lbl00320   0x005600    program     static                          
         ___else_lbl00322   0x0055d4    program     static                          
         ___else_lbl00324   0x0055ac    program     static                          
         ___else_lbl00326   0x00556a    program     static                          
         ___else_lbl00328   0x005526    program     static                          
         ___else_lbl00330   0x0054e4    program     static                          
         ___else_lbl00332   0x0054a6    program     static                          
          ___for_lbl00413   0x001bd0    program     static                          
          ___for_lbl00414   0x001bd4    program     static                          
          ___for_lbl00415   0x001b74    program     static                          
          ___for_lbl00416   0x001cc0    program     static                          
          ___for_lbl00417   0x001cc4    program     static                          
          ___for_lbl00418   0x001cac    program     static                          
          ___for_lbl00452   0x0060ac    program     static                          
          ___for_lbl00453   0x0060b0    program     static                          
          ___for_lbl00456   0x006096    program     static                          
           ___if_lbl00005   0x008b72    program     static                          
           ___if_lbl00006   0x008b94    program     static                          
           ___if_lbl00007   0x008bac    program     static                          
           ___if_lbl00242   0x00546e    program     static                          
           ___if_lbl00244   0x0054a4    program     static                          
           ___if_lbl00247   0x0054e2    program     static                          
           ___if_lbl00249   0x005524    program     static                          
           ___if_lbl00251   0x005524    program     static                          
           ___if_lbl00253   0x005558    program     static                          
           ___if_lbl00256   0x0055aa    program     static                          
           ___if_lbl00258   0x0055aa    program     static                          
           ___if_lbl00260   0x0055d2    program     static                          
           ___if_lbl00262   0x0055fe    program     static                          
           ___if_lbl00263   0x005656    program     static                          
           ___if_lbl00265   0x005684    program     static                          
           ___if_lbl00273   0x00571c    program     static                          
           ___if_lbl00275   0x005768    program     static                          
           ___if_lbl00277   0x005768    program     static                          
           ___if_lbl00279   0x0057be    program     static                          
           ___if_lbl00281   0x0057be    program     static                          
           ___if_lbl00283   0x005814    program     static                          
           ___if_lbl00285   0x005814    program     static                          
           ___if_lbl00287   0x005866    program     static                          
           ___if_lbl00289   0x005866    program     static                          
           ___if_lbl00293   0x0058f4    program     static                          
           ___if_lbl00295   0x0058f4    program     static                          
           ___if_lbl00297   0x0058fa    program     static                          
           ___if_lbl00299   0x0058fa    program     static                          
           ___if_lbl00301   0x0058fa    program     static                          
           ___if_lbl00303   0x0058fa    program     static                          
           ___if_lbl00305   0x0058fa    program     static                          
           ___if_lbl00307   0x0058fa    program     static                          
           ___if_lbl00309   0x0058fa    program     static                          
           ___if_lbl00311   0x0058fa    program     static                          
           ___if_lbl00313   0x0058fa    program     static                          
           ___if_lbl00315   0x0058fa    program     static                          
           ___if_lbl00317   0x0058fa    program     static                          
           ___if_lbl00319   0x0058fa    program     static                          
           ___if_lbl00321   0x0058fa    program     static                          
           ___if_lbl00323   0x0058fa    program     static                          
           ___if_lbl00325   0x0058fa    program     static                          
           ___if_lbl00327   0x0058fa    program     static                          
           ___if_lbl00329   0x0058fa    program     static                          
           ___if_lbl00331   0x0058fa    program     static                          
       ___return_lbl00000   0x001004    program     static                          
       ___return_lbl00000   0x009212    program     static                          
       ___return_lbl00000   0x00910a    program     static                          
       ___return_lbl00000   0x009012    program     static                          
       ___return_lbl00000   0x008bf0    program     static                          
       ___return_lbl00000   0x0092ee    program     static                          
       ___return_lbl00000   0x0092d8    program     static                          
       ___return_lbl00001   0x00100c    program     static                          
       ___return_lbl00001   0x008f96    program     static                          
       ___return_lbl00002   0x00101c    program     static                          
       ___return_lbl00056   0x004798    program     static                          
       ___return_lbl00241   0x005900    program     static                          
       ___return_lbl00412   0x001d00    program     static                          
       ___return_lbl00451   0x0060b0    program     static                          
       ___return_lbl00457   0x0060c8    program     static                          
       ___return_lbl00458   0x0060d6    program     static                          
   ___switchexit_lbl00267   0x00571c    program     static                          
        ___while_lbl00001   0x008b14    program     static                          
        ___while_lbl00001   0x008fe0    program     static                          
        ___while_lbl00002   0x009012    program     static                          
        ___while_lbl00002   0x008bf0    program     static                          
        ___while_lbl00003   0x008b38    program     static                          
        ___while_lbl00004   0x008b74    program     static                          
        ___while_lbl00057   0x00476e    program     static                          
        ___while_lbl00058   0x004798    program     static                          
        ___while_lbl00254   0x005558    program     static                          
        ___while_lbl00255   0x005562    program     static                          
        ___while_lbl00291   0x00587a    program     static                          
        ___while_lbl00292   0x0058a4    program     static                          
        ___while_lbl00454   0x00609e    program     static                          
        ___while_lbl00455   0x0060ac    program     static                          
                   __init   0x0092f0    program     extern E:\3.46\pic18-lt\cxx-framework\src\traditional\stdclib\__init.c
                   __pa_0   0x00796e    program     static C:\Projects\EggBot_GH\EBB_firmware\Microchip\USB\usb_device.c
                   __pa_0   0x0083a4    program     static C:\Projects\EggBot_GH\EBB_firmware\app.X\source\RCServo2.c
                   __pa_0   0x00894c    program     static C:\Projects\EggBot_GH\EBB_firmware\app.X\source\ebb_print.c
                   __pa_0   0x003522    program     static C:\Projects\EggBot_GH\EBB_firmware\app.X\source\ebb.c
                   __pa_0   0x008e40    program     static E:\3.46\pic18-lt\cxx-framework\src\pmc_common\Flash\EraseFlash.c
                   __pa_0   0x00692a    program     static C:\Projects\EggBot_GH\EBB_firmware\app.X\source\UBW.c
                   __pa_0   0x008740    program     static C:\Projects\EggBot_GH\EBB_firmware\Microchip\USB\CDC Device Driver\usb_function_cdc.c
                   __pa_1   0x0083ac    program     static C:\Projects\EggBot_GH\EBB_firmware\app.X\source\RCServo2.c
                   __pa_1   0x006930    program     static C:\Projects\EggBot_GH\EBB_firmware\app.X\source\UBW.c
                   __pa_1   0x007976    program     static C:\Projects\EggBot_GH\EBB_firmware\Microchip\USB\usb_device.c
                   __pa_1   0x008966    program     static C:\Projects\EggBot_GH\EBB_firmware\app.X\source\ebb_print.c
                   __pa_1   0x00875a    program     static C:\Projects\EggBot_GH\EBB_firmware\Microchip\USB\CDC Device Driver\usb_function_cdc.c
                   __pa_1   0x00352e    program     static C:\Projects\EggBot_GH\EBB_firmware\app.X\source\ebb.c
                  __pa_10   0x008a0a    program     static C:\Projects\EggBot_GH\EBB_firmware\app.X\source\ebb_print.c
                  __pa_10   0x006982    program     static C:\Projects\EggBot_GH\EBB_firmware\app.X\source\UBW.c
                  __pa_10   0x00840c    program     static C:\Projects\EggBot_GH\EBB_firmware\app.X\source\RCServo2.c
                  __pa_10   0x0087e0    program     static C:\Projects\EggBot_GH\EBB_firmware\Microchip\USB\CDC Device Driver\usb_function_cdc.c
                  __pa_10   0x0079d4    program     static C:\Projects\EggBot_GH\EBB_firmware\Microchip\USB\usb_device.c
                  __pa_10   0x0036f0    program     static C:\Projects\EggBot_GH\EBB_firmware\app.X\source\ebb.c
                 __pa_100   0x006dcc    program     static C:\Projects\EggBot_GH\EBB_firmware\app.X\source\UBW.c
                 __pa_100   0x003cc4    program     static C:\Projects\EggBot_GH\EBB_firmware\app.X\source\ebb.c
                 __pa_101   0x006ddc    program     static C:\Projects\EggBot_GH\EBB_firmware\app.X\source\UBW.c
                 __pa_101   0x003cce    program     static C:\Projects\EggBot_GH\EBB_firmware\app.X\source\ebb.c
                 __pa_102   0x003cd8    program     static C:\Projects\EggBot_GH\EBB_firmware\app.X\source\ebb.c
                 __pa_102   0x006de4    program     static C:\Projects\EggBot_GH\EBB_firmware\app.X\source\UBW.c
                 __pa_103   0x003ce2    program     static C:\Projects\EggBot_GH\EBB_firmware\app.X\source\ebb.c
                 __pa_103   0x006dee    program     static C:\Projects\EggBot_GH\EBB_firmware\app.X\source\UBW.c
                 __pa_104   0x003cec    program     static C:\Projects\EggBot_GH\EBB_firmware\app.X\source\ebb.c
                 __pa_104   0x006df6    program     static C:\Projects\EggBot_GH\EBB_firmware\app.X\source\UBW.c
                 __pa_105   0x003cfc    program     static C:\Projects\EggBot_GH\EBB_firmware\app.X\source\ebb.c
                 __pa_105   0x006dfe    program     static C:\Projects\EggBot_GH\EBB_firmware\app.X\source\UBW.c
                 __pa_106   0x003d0c    program     static C:\Projects\EggBot_GH\EBB_firmware\app.X\source\ebb.c
                 __pa_106   0x006e06    program     static C:\Projects\EggBot_GH\EBB_firmware\app.X\source\UBW.c
                 __pa_107   0x006e12    program     static C:\Projects\EggBot_GH\EBB_firmware\app.X\source\UBW.c
                 __pa_107   0x003d1c    program     static C:\Projects\EggBot_GH\EBB_firmware\app.X\source\ebb.c
                 __pa_108   0x006e1a    program     static C:\Projects\EggBot_GH\EBB_firmware\app.X\source\UBW.c
                 __pa_108   0x003d2c    program     static C:\Projects\EggBot_GH\EBB_firmware\app.X\source\ebb.c
                 __pa_109   0x006e22    program     static C:\Projects\EggBot_GH\EBB_firmware\app.X\source\UBW.c
                 __pa_109   0x003d32    program     static C:\Projects\EggBot_GH\EBB_firmware\app.X\source\ebb.c
                  __pa_11   0x008416    program     static C:\Projects\EggBot_GH\EBB_firmware\app.X\source\RCServo2.c
                  __pa_11   0x0079e4    program     static C:\Projects\EggBot_GH\EBB_firmware\Microchip\USB\usb_device.c
                  __pa_11   0x00698c    program     static C:\Projects\EggBot_GH\EBB_firmware\app.X\source\UBW.c
                  __pa_11   0x0087ee    program     static C:\Projects\EggBot_GH\EBB_firmware\Microchip\USB\CDC Device Driver\usb_function_cdc.c
                  __pa_11   0x008a12    program     static C:\Projects\EggBot_GH\EBB_firmware\app.X\source\ebb_print.c
                  __pa_11   0x00370e    program     static C:\Projects\EggBot_GH\EBB_firmware\app.X\source\ebb.c
                 __pa_110   0x003d42    program     static C:\Projects\EggBot_GH\EBB_firmware\app.X\source\ebb.c
                 __pa_110   0x006e2a    program     static C:\Projects\EggBot_GH\EBB_firmware\app.X\source\UBW.c
                 __pa_111   0x003d4a    program     static C:\Projects\EggBot_GH\EBB_firmware\app.X\source\ebb.c
                 __pa_111   0x006e30    program     static C:\Projects\EggBot_GH\EBB_firmware\app.X\source\UBW.c
                 __pa_112   0x003d52    program     static C:\Projects\EggBot_GH\EBB_firmware\app.X\source\ebb.c
                 __pa_112   0x006e38    program     static C:\Projects\EggBot_GH\EBB_firmware\app.X\source\UBW.c
                 __pa_113   0x006e3e    program     static C:\Projects\EggBot_GH\EBB_firmware\app.X\source\UBW.c
                 __pa_113   0x003d60    program     static C:\Projects\EggBot_GH\EBB_firmware\app.X\source\ebb.c
                 __pa_114   0x006e4c    program     static C:\Projects\EggBot_GH\EBB_firmware\app.X\source\UBW.c
                 __pa_114   0x003d6e    program     static C:\Projects\EggBot_GH\EBB_firmware\app.X\source\ebb.c
                 __pa_115   0x006e54    program     static C:\Projects\EggBot_GH\EBB_firmware\app.X\source\UBW.c
                 __pa_115   0x003d7c    program     static C:\Projects\EggBot_GH\EBB_firmware\app.X\source\ebb.c
                 __pa_116   0x006e5e    program     static C:\Projects\EggBot_GH\EBB_firmware\app.X\source\UBW.c
                 __pa_116   0x003d8a    program     static C:\Projects\EggBot_GH\EBB_firmware\app.X\source\ebb.c
                 __pa_117   0x003d98    program     static C:\Projects\EggBot_GH\EBB_firmware\app.X\source\ebb.c
                 __pa_117   0x006e68    program     static C:\Projects\EggBot_GH\EBB_firmware\app.X\source\UBW.c
                 __pa_118   0x003da6    program     static C:\Projects\EggBot_GH\EBB_firmware\app.X\source\ebb.c
                 __pa_119   0x003db0    program     static C:\Projects\EggBot_GH\EBB_firmware\app.X\source\ebb.c
                  __pa_12   0x003724    program     static C:\Projects\EggBot_GH\EBB_firmware\app.X\source\ebb.c
                  __pa_12   0x008a1e    program     static C:\Projects\EggBot_GH\EBB_firmware\app.X\source\ebb_print.c
                  __pa_12   0x006996    program     static C:\Projects\EggBot_GH\EBB_firmware\app.X\source\UBW.c
                  __pa_12   0x008426    program     static C:\Projects\EggBot_GH\EBB_firmware\app.X\source\RCServo2.c
                  __pa_12   0x0079ee    program     static C:\Projects\EggBot_GH\EBB_firmware\Microchip\USB\usb_device.c
                 __pa_120   0x003dba    program     static C:\Projects\EggBot_GH\EBB_firmware\app.X\source\ebb.c
                 __pa_121   0x003dc4    program     static C:\Projects\EggBot_GH\EBB_firmware\app.X\source\ebb.c
                 __pa_122   0x003dce    program     static C:\Projects\EggBot_GH\EBB_firmware\app.X\source\ebb.c
                 __pa_123   0x003dd8    program     static C:\Projects\EggBot_GH\EBB_firmware\app.X\source\ebb.c
                 __pa_124   0x003de2    program     static C:\Projects\EggBot_GH\EBB_firmware\app.X\source\ebb.c
                 __pa_125   0x003dec    program     static C:\Projects\EggBot_GH\EBB_firmware\app.X\source\ebb.c
                 __pa_126   0x003df6    program     static C:\Projects\EggBot_GH\EBB_firmware\app.X\source\ebb.c
                 __pa_127   0x003e00    program     static C:\Projects\EggBot_GH\EBB_firmware\app.X\source\ebb.c
                 __pa_128   0x003e56    program     static C:\Projects\EggBot_GH\EBB_firmware\app.X\source\ebb.c
                 __pa_129   0x003e5c    program     static C:\Projects\EggBot_GH\EBB_firmware\app.X\source\ebb.c
                  __pa_13   0x0069a4    program     static C:\Projects\EggBot_GH\EBB_firmware\app.X\source\UBW.c
                  __pa_13   0x00372e    program     static C:\Projects\EggBot_GH\EBB_firmware\app.X\source\ebb.c
                  __pa_13   0x007a02    program     static C:\Projects\EggBot_GH\EBB_firmware\Microchip\USB\usb_device.c
                 __pa_130   0x003e68    program     static C:\Projects\EggBot_GH\EBB_firmware\app.X\source\ebb.c
                 __pa_131   0x003ea4    program     static C:\Projects\EggBot_GH\EBB_firmware\app.X\source\ebb.c
                 __pa_132   0x003eaa    program     static C:\Projects\EggBot_GH\EBB_firmware\app.X\source\ebb.c
                 __pa_133   0x003eb4    program     static C:\Projects\EggBot_GH\EBB_firmware\app.X\source\ebb.c
                 __pa_134   0x003eba    program     static C:\Projects\EggBot_GH\EBB_firmware\app.X\source\ebb.c
                 __pa_135   0x003ec4    program     static C:\Projects\EggBot_GH\EBB_firmware\app.X\source\ebb.c
                 __pa_136   0x003ed2    program     static C:\Projects\EggBot_GH\EBB_firmware\app.X\source\ebb.c
                 __pa_137   0x003eea    program     static C:\Projects\EggBot_GH\EBB_firmware\app.X\source\ebb.c
                 __pa_138   0x003efc    program     static C:\Projects\EggBot_GH\EBB_firmware\app.X\source\ebb.c
                 __pa_139   0x003f10    program     static C:\Projects\EggBot_GH\EBB_firmware\app.X\source\ebb.c
                  __pa_14   0x0069bc    program     static C:\Projects\EggBot_GH\EBB_firmware\app.X\source\UBW.c
                  __pa_14   0x003738    program     static C:\Projects\EggBot_GH\EBB_firmware\app.X\source\ebb.c
                  __pa_14   0x007a16    program     static C:\Projects\EggBot_GH\EBB_firmware\Microchip\USB\usb_device.c
                 __pa_140   0x003f2e    program     static C:\Projects\EggBot_GH\EBB_firmware\app.X\source\ebb.c
                 __pa_141   0x003f4c    program     static C:\Projects\EggBot_GH\EBB_firmware\app.X\source\ebb.c
                 __pa_142   0x003f6a    program     static C:\Projects\EggBot_GH\EBB_firmware\app.X\source\ebb.c
                 __pa_143   0x003f80    program     static C:\Projects\EggBot_GH\EBB_firmware\app.X\source\ebb.c
                 __pa_144   0x003f9a    program     static C:\Projects\EggBot_GH\EBB_firmware\app.X\source\ebb.c
                 __pa_145   0x003fa8    program     static C:\Projects\EggBot_GH\EBB_firmware\app.X\source\ebb.c
                 __pa_146   0x003fb4    program     static C:\Projects\EggBot_GH\EBB_firmware\app.X\source\ebb.c
                 __pa_147   0x003fbe    program     static C:\Projects\EggBot_GH\EBB_firmware\app.X\source\ebb.c
                 __pa_148   0x003fc8    program     static C:\Projects\EggBot_GH\EBB_firmware\app.X\source\ebb.c
                 __pa_149   0x003fd2    program     static C:\Projects\EggBot_GH\EBB_firmware\app.X\source\ebb.c
                  __pa_15   0x007a22    program     static C:\Projects\EggBot_GH\EBB_firmware\Microchip\USB\usb_device.c
                  __pa_15   0x00373e    program     static C:\Projects\EggBot_GH\EBB_firmware\app.X\source\ebb.c
                  __pa_15   0x0069c4    program     static C:\Projects\EggBot_GH\EBB_firmware\app.X\source\UBW.c
                 __pa_150   0x003fdc    program     static C:\Projects\EggBot_GH\EBB_firmware\app.X\source\ebb.c
                 __pa_151   0x003ff4    program     static C:\Projects\EggBot_GH\EBB_firmware\app.X\source\ebb.c
                 __pa_152   0x00400c    program     static C:\Projects\EggBot_GH\EBB_firmware\app.X\source\ebb.c
                 __pa_153   0x004014    program     static C:\Projects\EggBot_GH\EBB_firmware\app.X\source\ebb.c
                 __pa_154   0x00401e    program     static C:\Projects\EggBot_GH\EBB_firmware\app.X\source\ebb.c
                 __pa_155   0x004026    program     static C:\Projects\EggBot_GH\EBB_firmware\app.X\source\ebb.c
                 __pa_156   0x004030    program     static C:\Projects\EggBot_GH\EBB_firmware\app.X\source\ebb.c
                 __pa_157   0x004046    program     static C:\Projects\EggBot_GH\EBB_firmware\app.X\source\ebb.c
                 __pa_158   0x004054    program     static C:\Projects\EggBot_GH\EBB_firmware\app.X\source\ebb.c
                 __pa_159   0x004060    program     static C:\Projects\EggBot_GH\EBB_firmware\app.X\source\ebb.c
                  __pa_16   0x007a3c    program     static C:\Projects\EggBot_GH\EBB_firmware\Microchip\USB\usb_device.c
                  __pa_16   0x003748    program     static C:\Projects\EggBot_GH\EBB_firmware\app.X\source\ebb.c
                  __pa_16   0x0069d0    program     static C:\Projects\EggBot_GH\EBB_firmware\app.X\source\UBW.c
                 __pa_160   0x004068    program     static C:\Projects\EggBot_GH\EBB_firmware\app.X\source\ebb.c
                 __pa_161   0x00407a    program     static C:\Projects\EggBot_GH\EBB_firmware\app.X\source\ebb.c
                 __pa_162   0x00408c    program     static C:\Projects\EggBot_GH\EBB_firmware\app.X\source\ebb.c
                 __pa_163   0x004098    program     static C:\Projects\EggBot_GH\EBB_firmware\app.X\source\ebb.c
                 __pa_164   0x0040a4    program     static C:\Projects\EggBot_GH\EBB_firmware\app.X\source\ebb.c
                 __pa_165   0x0040b4    program     static C:\Projects\EggBot_GH\EBB_firmware\app.X\source\ebb.c
                 __pa_166   0x0040c6    program     static C:\Projects\EggBot_GH\EBB_firmware\app.X\source\ebb.c
                 __pa_167   0x0040d8    program     static C:\Projects\EggBot_GH\EBB_firmware\app.X\source\ebb.c
                 __pa_168   0x0040dc    program     static C:\Projects\EggBot_GH\EBB_firmware\app.X\source\ebb.c
                 __pa_169   0x0040ec    program     static C:\Projects\EggBot_GH\EBB_firmware\app.X\source\ebb.c
                  __pa_17   0x007a48    program     static C:\Projects\EggBot_GH\EBB_firmware\Microchip\USB\usb_device.c
                  __pa_17   0x003762    program     static C:\Projects\EggBot_GH\EBB_firmware\app.X\source\ebb.c
                  __pa_17   0x0069d8    program     static C:\Projects\EggBot_GH\EBB_firmware\app.X\source\UBW.c
                 __pa_170   0x0040f6    program     static C:\Projects\EggBot_GH\EBB_firmware\app.X\source\ebb.c
                 __pa_171   0x004100    program     static C:\Projects\EggBot_GH\EBB_firmware\app.X\source\ebb.c
                 __pa_172   0x00410a    program     static C:\Projects\EggBot_GH\EBB_firmware\app.X\source\ebb.c
                 __pa_173   0x00411a    program     static C:\Projects\EggBot_GH\EBB_firmware\app.X\source\ebb.c
                 __pa_174   0x004128    program     static C:\Projects\EggBot_GH\EBB_firmware\app.X\source\ebb.c
                 __pa_175   0x004136    program     static C:\Projects\EggBot_GH\EBB_firmware\app.X\source\ebb.c
                 __pa_176   0x004144    program     static C:\Projects\EggBot_GH\EBB_firmware\app.X\source\ebb.c
                 __pa_177   0x004152    program     static C:\Projects\EggBot_GH\EBB_firmware\app.X\source\ebb.c
                 __pa_178   0x004160    program     static C:\Projects\EggBot_GH\EBB_firmware\app.X\source\ebb.c
                 __pa_179   0x00416c    program     static C:\Projects\EggBot_GH\EBB_firmware\app.X\source\ebb.c
                  __pa_18   0x003780    program     static C:\Projects\EggBot_GH\EBB_firmware\app.X\source\ebb.c
                  __pa_18   0x0069e2    program     static C:\Projects\EggBot_GH\EBB_firmware\app.X\source\UBW.c
                  __pa_18   0x007a54    program     static C:\Projects\EggBot_GH\EBB_firmware\Microchip\USB\usb_device.c
                 __pa_180   0x004178    program     static C:\Projects\EggBot_GH\EBB_firmware\app.X\source\ebb.c
                 __pa_181   0x004186    program     static C:\Projects\EggBot_GH\EBB_firmware\app.X\source\ebb.c
                 __pa_182   0x004194    program     static C:\Projects\EggBot_GH\EBB_firmware\app.X\source\ebb.c
                 __pa_183   0x00419c    program     static C:\Projects\EggBot_GH\EBB_firmware\app.X\source\ebb.c
                 __pa_184   0x0041a6    program     static C:\Projects\EggBot_GH\EBB_firmware\app.X\source\ebb.c
                 __pa_185   0x0041b0    program     static C:\Projects\EggBot_GH\EBB_firmware\app.X\source\ebb.c
                 __pa_186   0x0041ba    program     static C:\Projects\EggBot_GH\EBB_firmware\app.X\source\ebb.c
                 __pa_187   0x0041c2    program     static C:\Projects\EggBot_GH\EBB_firmware\app.X\source\ebb.c
                 __pa_188   0x0041ca    program     static C:\Projects\EggBot_GH\EBB_firmware\app.X\source\ebb.c
                 __pa_189   0x0041d2    program     static C:\Projects\EggBot_GH\EBB_firmware\app.X\source\ebb.c
                  __pa_19   0x007a5c    program     static C:\Projects\EggBot_GH\EBB_firmware\Microchip\USB\usb_device.c
                  __pa_19   0x003788    program     static C:\Projects\EggBot_GH\EBB_firmware\app.X\source\ebb.c
                  __pa_19   0x0069ea    program     static C:\Projects\EggBot_GH\EBB_firmware\app.X\source\UBW.c
                 __pa_190   0x0041da    program     static C:\Projects\EggBot_GH\EBB_firmware\app.X\source\ebb.c
                 __pa_191   0x0041fe    program     static C:\Projects\EggBot_GH\EBB_firmware\app.X\source\ebb.c
                 __pa_192   0x004214    program     static C:\Projects\EggBot_GH\EBB_firmware\app.X\source\ebb.c
                 __pa_193   0x00422e    program     static C:\Projects\EggBot_GH\EBB_firmware\app.X\source\ebb.c
                 __pa_194   0x00423c    program     static C:\Projects\EggBot_GH\EBB_firmware\app.X\source\ebb.c
                 __pa_195   0x004254    program     static C:\Projects\EggBot_GH\EBB_firmware\app.X\source\ebb.c
                 __pa_196   0x004260    program     static C:\Projects\EggBot_GH\EBB_firmware\app.X\source\ebb.c
                 __pa_197   0x004268    program     static C:\Projects\EggBot_GH\EBB_firmware\app.X\source\ebb.c
                 __pa_198   0x004270    program     static C:\Projects\EggBot_GH\EBB_firmware\app.X\source\ebb.c
                 __pa_199   0x004278    program     static C:\Projects\EggBot_GH\EBB_firmware\app.X\source\ebb.c
                   __pa_2   0x007980    program     static C:\Projects\EggBot_GH\EBB_firmware\Microchip\USB\usb_device.c
                   __pa_2   0x003544    program     static C:\Projects\EggBot_GH\EBB_firmware\app.X\source\ebb.c
                   __pa_2   0x006936    program     static C:\Projects\EggBot_GH\EBB_firmware\app.X\source\UBW.c
                   __pa_2   0x008980    program     static C:\Projects\EggBot_GH\EBB_firmware\app.X\source\ebb_print.c
                   __pa_2   0x0083b6    program     static C:\Projects\EggBot_GH\EBB_firmware\app.X\source\RCServo2.c
                   __pa_2   0x00876a    program     static C:\Projects\EggBot_GH\EBB_firmware\Microchip\USB\CDC Device Driver\usb_function_cdc.c
                  __pa_20   0x007a64    program     static C:\Projects\EggBot_GH\EBB_firmware\Microchip\USB\usb_device.c
                  __pa_20   0x003790    program     static C:\Projects\EggBot_GH\EBB_firmware\app.X\source\ebb.c
                  __pa_20   0x0069fe    program     static C:\Projects\EggBot_GH\EBB_firmware\app.X\source\UBW.c
                 __pa_200   0x004280    program     static C:\Projects\EggBot_GH\EBB_firmware\app.X\source\ebb.c
                 __pa_201   0x00428a    program     static C:\Projects\EggBot_GH\EBB_firmware\app.X\source\ebb.c
                 __pa_202   0x00429c    program     static C:\Projects\EggBot_GH\EBB_firmware\app.X\source\ebb.c
                 __pa_203   0x0042a6    program     static C:\Projects\EggBot_GH\EBB_firmware\app.X\source\ebb.c
                 __pa_204   0x0042b4    program     static C:\Projects\EggBot_GH\EBB_firmware\app.X\source\ebb.c
                 __pa_205   0x0042c2    program     static C:\Projects\EggBot_GH\EBB_firmware\app.X\source\ebb.c
                 __pa_206   0x0042ce    program     static C:\Projects\EggBot_GH\EBB_firmware\app.X\source\ebb.c
                 __pa_207   0x0042da    program     static C:\Projects\EggBot_GH\EBB_firmware\app.X\source\ebb.c
                 __pa_208   0x0042e2    program     static C:\Projects\EggBot_GH\EBB_firmware\app.X\source\ebb.c
                 __pa_209   0x0042e8    program     static C:\Projects\EggBot_GH\EBB_firmware\app.X\source\ebb.c
                  __pa_21   0x006a0a    program     static C:\Projects\EggBot_GH\EBB_firmware\app.X\source\UBW.c
                  __pa_21   0x007a70    program     static C:\Projects\EggBot_GH\EBB_firmware\Microchip\USB\usb_device.c
                  __pa_21   0x003798    program     static C:\Projects\EggBot_GH\EBB_firmware\app.X\source\ebb.c
                 __pa_210   0x0042f2    program     static C:\Projects\EggBot_GH\EBB_firmware\app.X\source\ebb.c
                 __pa_211   0x0042fa    program     static C:\Projects\EggBot_GH\EBB_firmware\app.X\source\ebb.c
                 __pa_212   0x004300    program     static C:\Projects\EggBot_GH\EBB_firmware\app.X\source\ebb.c
                 __pa_213   0x004308    program     static C:\Projects\EggBot_GH\EBB_firmware\app.X\source\ebb.c
                 __pa_214   0x00430e    program     static C:\Projects\EggBot_GH\EBB_firmware\app.X\source\ebb.c
                 __pa_215   0x00431e    program     static C:\Projects\EggBot_GH\EBB_firmware\app.X\source\ebb.c
                 __pa_216   0x00432a    program     static C:\Projects\EggBot_GH\EBB_firmware\app.X\source\ebb.c
                 __pa_217   0x004334    program     static C:\Projects\EggBot_GH\EBB_firmware\app.X\source\ebb.c
                 __pa_218   0x004340    program     static C:\Projects\EggBot_GH\EBB_firmware\app.X\source\ebb.c
                 __pa_219   0x004348    program     static C:\Projects\EggBot_GH\EBB_firmware\app.X\source\ebb.c
                  __pa_22   0x006a12    program     static C:\Projects\EggBot_GH\EBB_firmware\app.X\source\UBW.c
                  __pa_22   0x00379e    program     static C:\Projects\EggBot_GH\EBB_firmware\app.X\source\ebb.c
                  __pa_22   0x007a80    program     static C:\Projects\EggBot_GH\EBB_firmware\Microchip\USB\usb_device.c
                  __pa_23   0x0037b2    program     static C:\Projects\EggBot_GH\EBB_firmware\app.X\source\ebb.c
                  __pa_23   0x006a1c    program     static C:\Projects\EggBot_GH\EBB_firmware\app.X\source\UBW.c
                  __pa_23   0x007a8e    program     static C:\Projects\EggBot_GH\EBB_firmware\Microchip\USB\usb_device.c
                  __pa_24   0x006a2a    program     static C:\Projects\EggBot_GH\EBB_firmware\app.X\source\UBW.c
                  __pa_24   0x0037c6    program     static C:\Projects\EggBot_GH\EBB_firmware\app.X\source\ebb.c
                  __pa_24   0x007a9c    program     static C:\Projects\EggBot_GH\EBB_firmware\Microchip\USB\usb_device.c
                  __pa_25   0x006a3c    program     static C:\Projects\EggBot_GH\EBB_firmware\app.X\source\UBW.c
                  __pa_25   0x0037d2    program     static C:\Projects\EggBot_GH\EBB_firmware\app.X\source\ebb.c
                  __pa_25   0x007aaa    program     static C:\Projects\EggBot_GH\EBB_firmware\Microchip\USB\usb_device.c
                  __pa_26   0x0037fc    program     static C:\Projects\EggBot_GH\EBB_firmware\app.X\source\ebb.c
                  __pa_26   0x006a44    program     static C:\Projects\EggBot_GH\EBB_firmware\app.X\source\UBW.c
                  __pa_26   0x007ab8    program     static C:\Projects\EggBot_GH\EBB_firmware\Microchip\USB\usb_device.c
                  __pa_27   0x006a50    program     static C:\Projects\EggBot_GH\EBB_firmware\app.X\source\UBW.c
                  __pa_27   0x00380e    program     static C:\Projects\EggBot_GH\EBB_firmware\app.X\source\ebb.c
                  __pa_27   0x007ac2    program     static C:\Projects\EggBot_GH\EBB_firmware\Microchip\USB\usb_device.c
                  __pa_28   0x006a72    program     static C:\Projects\EggBot_GH\EBB_firmware\app.X\source\UBW.c
                  __pa_28   0x007ada    program     static C:\Projects\EggBot_GH\EBB_firmware\Microchip\USB\usb_device.c
                  __pa_28   0x003820    program     static C:\Projects\EggBot_GH\EBB_firmware\app.X\source\ebb.c
                  __pa_29   0x007ae6    program     static C:\Projects\EggBot_GH\EBB_firmware\Microchip\USB\usb_device.c
                  __pa_29   0x00382c    program     static C:\Projects\EggBot_GH\EBB_firmware\app.X\source\ebb.c
                  __pa_29   0x006a80    program     static C:\Projects\EggBot_GH\EBB_firmware\app.X\source\UBW.c
                   __pa_3   0x00899e    program     static C:\Projects\EggBot_GH\EBB_firmware\app.X\source\ebb_print.c
                   __pa_3   0x0083c6    program     static C:\Projects\EggBot_GH\EBB_firmware\app.X\source\RCServo2.c
                   __pa_3   0x00877c    program     static C:\Projects\EggBot_GH\EBB_firmware\Microchip\USB\CDC Device Driver\usb_function_cdc.c
                   __pa_3   0x007988    program     static C:\Projects\EggBot_GH\EBB_firmware\Microchip\USB\usb_device.c
                   __pa_3   0x00354a    program     static C:\Projects\EggBot_GH\EBB_firmware\app.X\source\ebb.c
                   __pa_3   0x00693e    program     static C:\Projects\EggBot_GH\EBB_firmware\app.X\source\UBW.c
                  __pa_30   0x00383a    program     static C:\Projects\EggBot_GH\EBB_firmware\app.X\source\ebb.c
                  __pa_30   0x006a8e    program     static C:\Projects\EggBot_GH\EBB_firmware\app.X\source\UBW.c
                  __pa_30   0x007aee    program     static C:\Projects\EggBot_GH\EBB_firmware\Microchip\USB\usb_device.c
                  __pa_31   0x006ab0    program     static C:\Projects\EggBot_GH\EBB_firmware\app.X\source\UBW.c
                  __pa_31   0x003850    program     static C:\Projects\EggBot_GH\EBB_firmware\app.X\source\ebb.c
                  __pa_31   0x007b02    program     static C:\Projects\EggBot_GH\EBB_firmware\Microchip\USB\usb_device.c
                  __pa_32   0x003862    program     static C:\Projects\EggBot_GH\EBB_firmware\app.X\source\ebb.c
                  __pa_32   0x007b14    program     static C:\Projects\EggBot_GH\EBB_firmware\Microchip\USB\usb_device.c
                  __pa_32   0x006aba    program     static C:\Projects\EggBot_GH\EBB_firmware\app.X\source\UBW.c
                  __pa_33   0x00386e    program     static C:\Projects\EggBot_GH\EBB_firmware\app.X\source\ebb.c
                  __pa_33   0x007b22    program     static C:\Projects\EggBot_GH\EBB_firmware\Microchip\USB\usb_device.c
                  __pa_33   0x006ac4    program     static C:\Projects\EggBot_GH\EBB_firmware\app.X\source\UBW.c
                  __pa_34   0x003874    program     static C:\Projects\EggBot_GH\EBB_firmware\app.X\source\ebb.c
                  __pa_34   0x007b2c    program     static C:\Projects\EggBot_GH\EBB_firmware\Microchip\USB\usb_device.c
                  __pa_34   0x006ad2    program     static C:\Projects\EggBot_GH\EBB_firmware\app.X\source\UBW.c
                  __pa_35   0x003882    program     static C:\Projects\EggBot_GH\EBB_firmware\app.X\source\ebb.c
                  __pa_35   0x007b36    program     static C:\Projects\EggBot_GH\EBB_firmware\Microchip\USB\usb_device.c
                  __pa_35   0x006ad8    program     static C:\Projects\EggBot_GH\EBB_firmware\app.X\source\UBW.c
                  __pa_36   0x003890    program     static C:\Projects\EggBot_GH\EBB_firmware\app.X\source\ebb.c
                  __pa_36   0x007b3c    program     static C:\Projects\EggBot_GH\EBB_firmware\Microchip\USB\usb_device.c
                  __pa_36   0x006ae2    program     static C:\Projects\EggBot_GH\EBB_firmware\app.X\source\UBW.c
                  __pa_37   0x0038b4    program     static C:\Projects\EggBot_GH\EBB_firmware\app.X\source\ebb.c
                  __pa_37   0x007b44    program     static C:\Projects\EggBot_GH\EBB_firmware\Microchip\USB\usb_device.c
                  __pa_37   0x006afe    program     static C:\Projects\EggBot_GH\EBB_firmware\app.X\source\UBW.c
                  __pa_38   0x0038d8    program     static C:\Projects\EggBot_GH\EBB_firmware\app.X\source\ebb.c
                  __pa_38   0x007b4a    program     static C:\Projects\EggBot_GH\EBB_firmware\Microchip\USB\usb_device.c
                  __pa_38   0x006b08    program     static C:\Projects\EggBot_GH\EBB_firmware\app.X\source\UBW.c
                  __pa_39   0x0038ec    program     static C:\Projects\EggBot_GH\EBB_firmware\app.X\source\ebb.c
                  __pa_39   0x006b12    program     static C:\Projects\EggBot_GH\EBB_firmware\app.X\source\UBW.c
                  __pa_39   0x007b58    program     static C:\Projects\EggBot_GH\EBB_firmware\Microchip\USB\usb_device.c
                   __pa_4   0x008796    program     static C:\Projects\EggBot_GH\EBB_firmware\Microchip\USB\CDC Device Driver\usb_function_cdc.c
                   __pa_4   0x0089b6    program     static C:\Projects\EggBot_GH\EBB_firmware\app.X\source\ebb_print.c
                   __pa_4   0x003594    program     static C:\Projects\EggBot_GH\EBB_firmware\app.X\source\ebb.c
                   __pa_4   0x006944    program     static C:\Projects\EggBot_GH\EBB_firmware\app.X\source\UBW.c
                   __pa_4   0x0083d2    program     static C:\Projects\EggBot_GH\EBB_firmware\app.X\source\RCServo2.c
                   __pa_4   0x007992    program     static C:\Projects\EggBot_GH\EBB_firmware\Microchip\USB\usb_device.c
                  __pa_40   0x006b1c    program     static C:\Projects\EggBot_GH\EBB_firmware\app.X\source\UBW.c
                  __pa_40   0x007b66    program     static C:\Projects\EggBot_GH\EBB_firmware\Microchip\USB\usb_device.c
                  __pa_40   0x0038fe    program     static C:\Projects\EggBot_GH\EBB_firmware\app.X\source\ebb.c
                  __pa_41   0x007b74    program     static C:\Projects\EggBot_GH\EBB_firmware\Microchip\USB\usb_device.c
                  __pa_41   0x006b34    program     static C:\Projects\EggBot_GH\EBB_firmware\app.X\source\UBW.c
                  __pa_41   0x003910    program     static C:\Projects\EggBot_GH\EBB_firmware\app.X\source\ebb.c
                  __pa_42   0x007b7e    program     static C:\Projects\EggBot_GH\EBB_firmware\Microchip\USB\usb_device.c
                  __pa_42   0x006b3c    program     static C:\Projects\EggBot_GH\EBB_firmware\app.X\source\UBW.c
                  __pa_42   0x003922    program     static C:\Projects\EggBot_GH\EBB_firmware\app.X\source\ebb.c
                  __pa_43   0x003934    program     static C:\Projects\EggBot_GH\EBB_firmware\app.X\source\ebb.c
                  __pa_43   0x007b88    program     static C:\Projects\EggBot_GH\EBB_firmware\Microchip\USB\usb_device.c
                  __pa_43   0x006b46    program     static C:\Projects\EggBot_GH\EBB_firmware\app.X\source\UBW.c
                  __pa_44   0x007b90    program     static C:\Projects\EggBot_GH\EBB_firmware\Microchip\USB\usb_device.c
                  __pa_44   0x006b52    program     static C:\Projects\EggBot_GH\EBB_firmware\app.X\source\UBW.c
                  __pa_44   0x003950    program     static C:\Projects\EggBot_GH\EBB_firmware\app.X\source\ebb.c
                  __pa_45   0x003968    program     static C:\Projects\EggBot_GH\EBB_firmware\app.X\source\ebb.c
                  __pa_45   0x007b9c    program     static C:\Projects\EggBot_GH\EBB_firmware\Microchip\USB\usb_device.c
                  __pa_45   0x006b5e    program     static C:\Projects\EggBot_GH\EBB_firmware\app.X\source\UBW.c
                  __pa_46   0x003972    program     static C:\Projects\EggBot_GH\EBB_firmware\app.X\source\ebb.c
                  __pa_46   0x007ba6    program     static C:\Projects\EggBot_GH\EBB_firmware\Microchip\USB\usb_device.c
                  __pa_46   0x006b6a    program     static C:\Projects\EggBot_GH\EBB_firmware\app.X\source\UBW.c
                  __pa_47   0x003980    program     static C:\Projects\EggBot_GH\EBB_firmware\app.X\source\ebb.c
                  __pa_47   0x006b74    program     static C:\Projects\EggBot_GH\EBB_firmware\app.X\source\UBW.c
                  __pa_48   0x0039a0    program     static C:\Projects\EggBot_GH\EBB_firmware\app.X\source\ebb.c
                  __pa_48   0x006b84    program     static C:\Projects\EggBot_GH\EBB_firmware\app.X\source\UBW.c
                  __pa_49   0x0039b0    program     static C:\Projects\EggBot_GH\EBB_firmware\app.X\source\ebb.c
                  __pa_49   0x006b94    program     static C:\Projects\EggBot_GH\EBB_firmware\app.X\source\UBW.c
                   __pa_5   0x006950    program     static C:\Projects\EggBot_GH\EBB_firmware\app.X\source\UBW.c
                   __pa_5   0x0087a0    program     static C:\Projects\EggBot_GH\EBB_firmware\Microchip\USB\CDC Device Driver\usb_function_cdc.c
                   __pa_5   0x0083de    program     static C:\Projects\EggBot_GH\EBB_firmware\app.X\source\RCServo2.c
                   __pa_5   0x0035ca    program     static C:\Projects\EggBot_GH\EBB_firmware\app.X\source\ebb.c
                   __pa_5   0x0089c0    program     static C:\Projects\EggBot_GH\EBB_firmware\app.X\source\ebb_print.c
                   __pa_5   0x00799c    program     static C:\Projects\EggBot_GH\EBB_firmware\Microchip\USB\usb_device.c
                  __pa_50   0x0039bc    program     static C:\Projects\EggBot_GH\EBB_firmware\app.X\source\ebb.c
                  __pa_50   0x006ba2    program     static C:\Projects\EggBot_GH\EBB_firmware\app.X\source\UBW.c
                  __pa_51   0x006bb0    program     static C:\Projects\EggBot_GH\EBB_firmware\app.X\source\UBW.c
                  __pa_51   0x0039c8    program     static C:\Projects\EggBot_GH\EBB_firmware\app.X\source\ebb.c
                  __pa_52   0x0039d4    program     static C:\Projects\EggBot_GH\EBB_firmware\app.X\source\ebb.c
                  __pa_52   0x006bbe    program     static C:\Projects\EggBot_GH\EBB_firmware\app.X\source\UBW.c
                  __pa_53   0x0039da    program     static C:\Projects\EggBot_GH\EBB_firmware\app.X\source\ebb.c
                  __pa_53   0x006bcc    program     static C:\Projects\EggBot_GH\EBB_firmware\app.X\source\UBW.c
                  __pa_54   0x0039f0    program     static C:\Projects\EggBot_GH\EBB_firmware\app.X\source\ebb.c
                  __pa_54   0x006bda    program     static C:\Projects\EggBot_GH\EBB_firmware\app.X\source\UBW.c
                  __pa_55   0x006be8    program     static C:\Projects\EggBot_GH\EBB_firmware\app.X\source\UBW.c
                  __pa_55   0x003a02    program     static C:\Projects\EggBot_GH\EBB_firmware\app.X\source\ebb.c
                  __pa_56   0x003a14    program     static C:\Projects\EggBot_GH\EBB_firmware\app.X\source\ebb.c
                  __pa_56   0x006bf2    program     static C:\Projects\EggBot_GH\EBB_firmware\app.X\source\UBW.c
                  __pa_57   0x003a26    program     static C:\Projects\EggBot_GH\EBB_firmware\app.X\source\ebb.c
                  __pa_57   0x006bfc    program     static C:\Projects\EggBot_GH\EBB_firmware\app.X\source\UBW.c
                  __pa_58   0x003a38    program     static C:\Projects\EggBot_GH\EBB_firmware\app.X\source\ebb.c
                  __pa_58   0x006c06    program     static C:\Projects\EggBot_GH\EBB_firmware\app.X\source\UBW.c
                  __pa_59   0x003a4a    program     static C:\Projects\EggBot_GH\EBB_firmware\app.X\source\ebb.c
                  __pa_59   0x006c0e    program     static C:\Projects\EggBot_GH\EBB_firmware\app.X\source\UBW.c
                   __pa_6   0x0089cc    program     static C:\Projects\EggBot_GH\EBB_firmware\app.X\source\ebb_print.c
                   __pa_6   0x0083ea    program     static C:\Projects\EggBot_GH\EBB_firmware\app.X\source\RCServo2.c
                   __pa_6   0x0087a8    program     static C:\Projects\EggBot_GH\EBB_firmware\Microchip\USB\CDC Device Driver\usb_function_cdc.c
                   __pa_6   0x003694    program     static C:\Projects\EggBot_GH\EBB_firmware\app.X\source\ebb.c
                   __pa_6   0x006958    program     static C:\Projects\EggBot_GH\EBB_firmware\app.X\source\UBW.c
                   __pa_6   0x0079a6    program     static C:\Projects\EggBot_GH\EBB_firmware\Microchip\USB\usb_device.c
                  __pa_60   0x006c14    program     static C:\Projects\EggBot_GH\EBB_firmware\app.X\source\UBW.c
                  __pa_60   0x003a52    program     static C:\Projects\EggBot_GH\EBB_firmware\app.X\source\ebb.c
                  __pa_61   0x006c1c    program     static C:\Projects\EggBot_GH\EBB_firmware\app.X\source\UBW.c
                  __pa_61   0x003a60    program     static C:\Projects\EggBot_GH\EBB_firmware\app.X\source\ebb.c
                  __pa_62   0x006c2a    program     static C:\Projects\EggBot_GH\EBB_firmware\app.X\source\UBW.c
                  __pa_62   0x003a64    program     static C:\Projects\EggBot_GH\EBB_firmware\app.X\source\ebb.c
                  __pa_63   0x006c34    program     static C:\Projects\EggBot_GH\EBB_firmware\app.X\source\UBW.c
                  __pa_63   0x003a6a    program     static C:\Projects\EggBot_GH\EBB_firmware\app.X\source\ebb.c
                  __pa_64   0x006c3a    program     static C:\Projects\EggBot_GH\EBB_firmware\app.X\source\UBW.c
                  __pa_64   0x003a82    program     static C:\Projects\EggBot_GH\EBB_firmware\app.X\source\ebb.c
                  __pa_65   0x006c44    program     static C:\Projects\EggBot_GH\EBB_firmware\app.X\source\UBW.c
                  __pa_65   0x003a9a    program     static C:\Projects\EggBot_GH\EBB_firmware\app.X\source\ebb.c
                  __pa_66   0x003aa6    program     static C:\Projects\EggBot_GH\EBB_firmware\app.X\source\ebb.c
                  __pa_66   0x006c4c    program     static C:\Projects\EggBot_GH\EBB_firmware\app.X\source\UBW.c
                  __pa_67   0x003abc    program     static C:\Projects\EggBot_GH\EBB_firmware\app.X\source\ebb.c
                  __pa_67   0x006c5e    program     static C:\Projects\EggBot_GH\EBB_firmware\app.X\source\UBW.c
                  __pa_68   0x003ad2    program     static C:\Projects\EggBot_GH\EBB_firmware\app.X\source\ebb.c
                  __pa_68   0x006c64    program     static C:\Projects\EggBot_GH\EBB_firmware\app.X\source\UBW.c
                  __pa_69   0x003ae8    program     static C:\Projects\EggBot_GH\EBB_firmware\app.X\source\ebb.c
                  __pa_69   0x006c6a    program     static C:\Projects\EggBot_GH\EBB_firmware\app.X\source\UBW.c
                   __pa_7   0x0083f4    program     static C:\Projects\EggBot_GH\EBB_firmware\app.X\source\RCServo2.c
                   __pa_7   0x0087b6    program     static C:\Projects\EggBot_GH\EBB_firmware\Microchip\USB\CDC Device Driver\usb_function_cdc.c
                   __pa_7   0x006966    program     static C:\Projects\EggBot_GH\EBB_firmware\app.X\source\UBW.c
                   __pa_7   0x0079ae    program     static C:\Projects\EggBot_GH\EBB_firmware\Microchip\USB\usb_device.c
                   __pa_7   0x0089dc    program     static C:\Projects\EggBot_GH\EBB_firmware\app.X\source\ebb_print.c
                   __pa_7   0x0036ba    program     static C:\Projects\EggBot_GH\EBB_firmware\app.X\source\ebb.c
                  __pa_70   0x003afe    program     static C:\Projects\EggBot_GH\EBB_firmware\app.X\source\ebb.c
                  __pa_70   0x006c74    program     static C:\Projects\EggBot_GH\EBB_firmware\app.X\source\UBW.c
                  __pa_71   0x003b14    program     static C:\Projects\EggBot_GH\EBB_firmware\app.X\source\ebb.c
                  __pa_71   0x006c7e    program     static C:\Projects\EggBot_GH\EBB_firmware\app.X\source\UBW.c
                  __pa_72   0x003b22    program     static C:\Projects\EggBot_GH\EBB_firmware\app.X\source\ebb.c
                  __pa_72   0x006c94    program     static C:\Projects\EggBot_GH\EBB_firmware\app.X\source\UBW.c
                  __pa_73   0x003b2c    program     static C:\Projects\EggBot_GH\EBB_firmware\app.X\source\ebb.c
                  __pa_73   0x006ca2    program     static C:\Projects\EggBot_GH\EBB_firmware\app.X\source\UBW.c
                  __pa_74   0x006cb0    program     static C:\Projects\EggBot_GH\EBB_firmware\app.X\source\UBW.c
                  __pa_74   0x003b36    program     static C:\Projects\EggBot_GH\EBB_firmware\app.X\source\ebb.c
                  __pa_75   0x003b40    program     static C:\Projects\EggBot_GH\EBB_firmware\app.X\source\ebb.c
                  __pa_75   0x006cb6    program     static C:\Projects\EggBot_GH\EBB_firmware\app.X\source\UBW.c
                  __pa_76   0x003b4a    program     static C:\Projects\EggBot_GH\EBB_firmware\app.X\source\ebb.c
                  __pa_76   0x006cc6    program     static C:\Projects\EggBot_GH\EBB_firmware\app.X\source\UBW.c
                  __pa_77   0x006cd6    program     static C:\Projects\EggBot_GH\EBB_firmware\app.X\source\UBW.c
                  __pa_77   0x003b50    program     static C:\Projects\EggBot_GH\EBB_firmware\app.X\source\ebb.c
                  __pa_78   0x003b64    program     static C:\Projects\EggBot_GH\EBB_firmware\app.X\source\ebb.c
                  __pa_78   0x006ce0    program     static C:\Projects\EggBot_GH\EBB_firmware\app.X\source\UBW.c
                  __pa_79   0x003b76    program     static C:\Projects\EggBot_GH\EBB_firmware\app.X\source\ebb.c
                  __pa_79   0x006cea    program     static C:\Projects\EggBot_GH\EBB_firmware\app.X\source\UBW.c
                   __pa_8   0x0089ea    program     static C:\Projects\EggBot_GH\EBB_firmware\app.X\source\ebb_print.c
                   __pa_8   0x0036d8    program     static C:\Projects\EggBot_GH\EBB_firmware\app.X\source\ebb.c
                   __pa_8   0x0079be    program     static C:\Projects\EggBot_GH\EBB_firmware\Microchip\USB\usb_device.c
                   __pa_8   0x006970    program     static C:\Projects\EggBot_GH\EBB_firmware\app.X\source\UBW.c
                   __pa_8   0x0083fc    program     static C:\Projects\EggBot_GH\EBB_firmware\app.X\source\RCServo2.c
                   __pa_8   0x0087c4    program     static C:\Projects\EggBot_GH\EBB_firmware\Microchip\USB\CDC Device Driver\usb_function_cdc.c
                  __pa_80   0x006cf2    program     static C:\Projects\EggBot_GH\EBB_firmware\app.X\source\UBW.c
                  __pa_80   0x003b88    program     static C:\Projects\EggBot_GH\EBB_firmware\app.X\source\ebb.c
                  __pa_81   0x003b9a    program     static C:\Projects\EggBot_GH\EBB_firmware\app.X\source\ebb.c
                  __pa_81   0x006cf8    program     static C:\Projects\EggBot_GH\EBB_firmware\app.X\source\UBW.c
                  __pa_82   0x003bac    program     static C:\Projects\EggBot_GH\EBB_firmware\app.X\source\ebb.c
                  __pa_82   0x006d04    program     static C:\Projects\EggBot_GH\EBB_firmware\app.X\source\UBW.c
                  __pa_83   0x003bb8    program     static C:\Projects\EggBot_GH\EBB_firmware\app.X\source\ebb.c
                  __pa_83   0x006d12    program     static C:\Projects\EggBot_GH\EBB_firmware\app.X\source\UBW.c
                  __pa_84   0x003bca    program     static C:\Projects\EggBot_GH\EBB_firmware\app.X\source\ebb.c
                  __pa_84   0x006d20    program     static C:\Projects\EggBot_GH\EBB_firmware\app.X\source\UBW.c
                  __pa_85   0x006d2c    program     static C:\Projects\EggBot_GH\EBB_firmware\app.X\source\UBW.c
                  __pa_85   0x003bdc    program     static C:\Projects\EggBot_GH\EBB_firmware\app.X\source\ebb.c
                  __pa_86   0x003bee    program     static C:\Projects\EggBot_GH\EBB_firmware\app.X\source\ebb.c
                  __pa_86   0x006d38    program     static C:\Projects\EggBot_GH\EBB_firmware\app.X\source\UBW.c
                  __pa_87   0x006d46    program     static C:\Projects\EggBot_GH\EBB_firmware\app.X\source\UBW.c
                  __pa_87   0x003c00    program     static C:\Projects\EggBot_GH\EBB_firmware\app.X\source\ebb.c
                  __pa_88   0x006d52    program     static C:\Projects\EggBot_GH\EBB_firmware\app.X\source\UBW.c
                  __pa_88   0x003c12    program     static C:\Projects\EggBot_GH\EBB_firmware\app.X\source\ebb.c
                  __pa_89   0x006d5c    program     static C:\Projects\EggBot_GH\EBB_firmware\app.X\source\UBW.c
                  __pa_89   0x003c24    program     static C:\Projects\EggBot_GH\EBB_firmware\app.X\source\ebb.c
                   __pa_9   0x0087ce    program     static C:\Projects\EggBot_GH\EBB_firmware\Microchip\USB\CDC Device Driver\usb_function_cdc.c
                   __pa_9   0x0036e4    program     static C:\Projects\EggBot_GH\EBB_firmware\app.X\source\ebb.c
                   __pa_9   0x0079c8    program     static C:\Projects\EggBot_GH\EBB_firmware\Microchip\USB\usb_device.c
                   __pa_9   0x006978    program     static C:\Projects\EggBot_GH\EBB_firmware\app.X\source\UBW.c
                   __pa_9   0x0089f4    program     static C:\Projects\EggBot_GH\EBB_firmware\app.X\source\ebb_print.c
                   __pa_9   0x008404    program     static C:\Projects\EggBot_GH\EBB_firmware\app.X\source\RCServo2.c
                  __pa_90   0x003c36    program     static C:\Projects\EggBot_GH\EBB_firmware\app.X\source\ebb.c
                  __pa_90   0x006d6a    program     static C:\Projects\EggBot_GH\EBB_firmware\app.X\source\UBW.c
                  __pa_91   0x006d76    program     static C:\Projects\EggBot_GH\EBB_firmware\app.X\source\UBW.c
                  __pa_91   0x003c48    program     static C:\Projects\EggBot_GH\EBB_firmware\app.X\source\ebb.c
                  __pa_92   0x006d7e    program     static C:\Projects\EggBot_GH\EBB_firmware\app.X\source\UBW.c
                  __pa_92   0x003c5a    program     static C:\Projects\EggBot_GH\EBB_firmware\app.X\source\ebb.c
                  __pa_93   0x006d88    program     static C:\Projects\EggBot_GH\EBB_firmware\app.X\source\UBW.c
                  __pa_93   0x003c6c    program     static C:\Projects\EggBot_GH\EBB_firmware\app.X\source\ebb.c
                  __pa_94   0x003c7e    program     static C:\Projects\EggBot_GH\EBB_firmware\app.X\source\ebb.c
                  __pa_94   0x006d92    program     static C:\Projects\EggBot_GH\EBB_firmware\app.X\source\UBW.c
                  __pa_95   0x006d9c    program     static C:\Projects\EggBot_GH\EBB_firmware\app.X\source\UBW.c
                  __pa_95   0x003c90    program     static C:\Projects\EggBot_GH\EBB_firmware\app.X\source\ebb.c
                  __pa_96   0x003c9c    program     static C:\Projects\EggBot_GH\EBB_firmware\app.X\source\ebb.c
                  __pa_96   0x006da4    program     static C:\Projects\EggBot_GH\EBB_firmware\app.X\source\UBW.c
                  __pa_97   0x006dac    program     static C:\Projects\EggBot_GH\EBB_firmware\app.X\source\UBW.c
                  __pa_97   0x003ca8    program     static C:\Projects\EggBot_GH\EBB_firmware\app.X\source\ebb.c
                  __pa_98   0x003cae    program     static C:\Projects\EggBot_GH\EBB_firmware\app.X\source\ebb.c
                  __pa_98   0x006dba    program     static C:\Projects\EggBot_GH\EBB_firmware\app.X\source\UBW.c
                  __pa_99   0x003cba    program     static C:\Projects\EggBot_GH\EBB_firmware\app.X\source\ebb.c
                  __pa_99   0x006dc6    program     static C:\Projects\EggBot_GH\EBB_firmware\app.X\source\UBW.c
               __string_0   0x007e90    program     static C:\Projects\EggBot_GH\EBB_firmware\app.X\source\ebb.c
               __string_1   0x007e8b    program     static C:\Projects\EggBot_GH\EBB_firmware\app.X\source\ebb.c
               __string_1   0x00803e    program     static C:\Projects\EggBot_GH\EBB_firmware\app.X\source\UBW.c
              __string_10   0x007de2    program     static C:\Projects\EggBot_GH\EBB_firmware\app.X\source\ebb.c
              __string_10   0x007f72    program     static C:\Projects\EggBot_GH\EBB_firmware\app.X\source\UBW.c
              __string_11   0x007f4c    program     static C:\Projects\EggBot_GH\EBB_firmware\app.X\source\UBW.c
              __string_11   0x007dbe    program     static C:\Projects\EggBot_GH\EBB_firmware\app.X\source\ebb.c
              __string_12   0x007d92    program     static C:\Projects\EggBot_GH\EBB_firmware\app.X\source\ebb.c
              __string_12   0x007f23    program     static C:\Projects\EggBot_GH\EBB_firmware\app.X\source\UBW.c
              __string_13   0x007d64    program     static C:\Projects\EggBot_GH\EBB_firmware\app.X\source\ebb.c
              __string_13   0x007f09    program     static C:\Projects\EggBot_GH\EBB_firmware\app.X\source\UBW.c
              __string_14   0x007f07    program     static C:\Projects\EggBot_GH\EBB_firmware\app.X\source\UBW.c
              __string_14   0x007d40    program     static C:\Projects\EggBot_GH\EBB_firmware\app.X\source\ebb.c
              __string_15   0x007f04    program     static C:\Projects\EggBot_GH\EBB_firmware\app.X\source\UBW.c
              __string_15   0x007d12    program     static C:\Projects\EggBot_GH\EBB_firmware\app.X\source\ebb.c
              __string_16   0x007ce1    program     static C:\Projects\EggBot_GH\EBB_firmware\app.X\source\ebb.c
              __string_16   0x007f01    program     static C:\Projects\EggBot_GH\EBB_firmware\app.X\source\UBW.c
              __string_17   0x007efe    program     static C:\Projects\EggBot_GH\EBB_firmware\app.X\source\UBW.c
              __string_17   0x007cb0    program     static C:\Projects\EggBot_GH\EBB_firmware\app.X\source\ebb.c
              __string_18   0x007ef6    program     static C:\Projects\EggBot_GH\EBB_firmware\app.X\source\UBW.c
              __string_18   0x007ca3    program     static C:\Projects\EggBot_GH\EBB_firmware\app.X\source\ebb.c
              __string_19   0x007eee    program     static C:\Projects\EggBot_GH\EBB_firmware\app.X\source\UBW.c
              __string_19   0x007c9d    program     static C:\Projects\EggBot_GH\EBB_firmware\app.X\source\ebb.c
               __string_2   0x007e86    program     static C:\Projects\EggBot_GH\EBB_firmware\app.X\source\ebb.c
               __string_2   0x00803b    program     static C:\Projects\EggBot_GH\EBB_firmware\app.X\source\UBW.c
              __string_20   0x007ee6    program     static C:\Projects\EggBot_GH\EBB_firmware\app.X\source\UBW.c
              __string_20   0x007c97    program     static C:\Projects\EggBot_GH\EBB_firmware\app.X\source\ebb.c
              __string_21   0x007ede    program     static C:\Projects\EggBot_GH\EBB_firmware\app.X\source\UBW.c
              __string_21   0x007c8d    program     static C:\Projects\EggBot_GH\EBB_firmware\app.X\source\ebb.c
              __string_22   0x007ed6    program     static C:\Projects\EggBot_GH\EBB_firmware\app.X\source\UBW.c
              __string_22   0x007c60    program     static C:\Projects\EggBot_GH\EBB_firmware\app.X\source\ebb.c
              __string_23   0x007c30    program     static C:\Projects\EggBot_GH\EBB_firmware\app.X\source\ebb.c
              __string_23   0x007ece    program     static C:\Projects\EggBot_GH\EBB_firmware\app.X\source\UBW.c
              __string_24   0x007ec6    program     static C:\Projects\EggBot_GH\EBB_firmware\app.X\source\UBW.c
              __string_24   0x007c07    program     static C:\Projects\EggBot_GH\EBB_firmware\app.X\source\ebb.c
              __string_25   0x007ebe    program     static C:\Projects\EggBot_GH\EBB_firmware\app.X\source\UBW.c
              __string_25   0x007bd7    program     static C:\Projects\EggBot_GH\EBB_firmware\app.X\source\ebb.c
              __string_26   0x007bae    program     static C:\Projects\EggBot_GH\EBB_firmware\app.X\source\ebb.c
              __string_26   0x007e9c    program     static C:\Projects\EggBot_GH\EBB_firmware\app.X\source\UBW.c
              __string_27   0x007e94    program     static C:\Projects\EggBot_GH\EBB_firmware\app.X\source\UBW.c
               __string_3   0x007e81    program     static C:\Projects\EggBot_GH\EBB_firmware\app.X\source\ebb.c
               __string_3   0x008037    program     static C:\Projects\EggBot_GH\EBB_firmware\app.X\source\UBW.c
               __string_4   0x007e7c    program     static C:\Projects\EggBot_GH\EBB_firmware\app.X\source\ebb.c
               __string_4   0x00801a    program     static C:\Projects\EggBot_GH\EBB_firmware\app.X\source\UBW.c
               __string_5   0x007e77    program     static C:\Projects\EggBot_GH\EBB_firmware\app.X\source\ebb.c
               __string_5   0x008000    program     static C:\Projects\EggBot_GH\EBB_firmware\app.X\source\UBW.c
               __string_6   0x007e72    program     static C:\Projects\EggBot_GH\EBB_firmware\app.X\source\ebb.c
               __string_6   0x007fe6    program     static C:\Projects\EggBot_GH\EBB_firmware\app.X\source\UBW.c
               __string_7   0x007fc9    program     static C:\Projects\EggBot_GH\EBB_firmware\app.X\source\UBW.c
               __string_7   0x007e6d    program     static C:\Projects\EggBot_GH\EBB_firmware\app.X\source\ebb.c
               __string_8   0x007e3c    program     static C:\Projects\EggBot_GH\EBB_firmware\app.X\source\ebb.c
               __string_8   0x007fa9    program     static C:\Projects\EggBot_GH\EBB_firmware\app.X\source\UBW.c
               __string_9   0x007e10    program     static C:\Projects\EggBot_GH\EBB_firmware\app.X\source\ebb.c
               __string_9   0x007f91    program     static C:\Projects\EggBot_GH\EBB_firmware\app.X\source\UBW.c
             __tmplbl_157   0x006970    program     static                          
             __tmplbl_158   0x006970    program     static                          
             __tmplbl_172   0x006970    program     static                          
             __tmplbl_173   0x006970    program     static                          
             __tmplbl_174   0x006970    program     static                          
             __tmplbl_213   0x006970    program     static                          
             __tmplbl_214   0x006970    program     static                          
             __tmplbl_216   0x006970    program     static                          
             __tmplbl_217   0x006970    program     static                          
             __tmplbl_218   0x006970    program     static                          
             __tmplbl_219   0x006970    program     static                          
             __tmplbl_220   0x006970    program     static                          
             __tmplbl_221   0x006970    program     static                          
             __tmplbl_225   0x006970    program     static                          
             __tmplbl_226   0x006970    program     static                          
             __tmplbl_227   0x006970    program     static                          
             __tmplbl_231   0x006970    program     static                          
             __tmplbl_232   0x006970    program     static                          
             __tmplbl_236   0x006970    program     static                          
             __tmplbl_238   0x006970    program     static                          
              __tmplbl_24   0x0079a6    program     static                          
             __tmplbl_295   0x003738    program     static                          
             __tmplbl_296   0x003a60    program     static                          
             __tmplbl_297   0x003a60    program     static                          
             __tmplbl_298   0x003a60    program     static                          
             __tmplbl_299   0x003a60    program     static                          
             __tmplbl_305   0x003738    program     static                          
             __tmplbl_310   0x003738    program     static                          
             __tmplbl_318   0x003738    program     static                          
             __tmplbl_321   0x003738    program     static                          
             __tmplbl_330   0x003738    program     static                          
             __tmplbl_332   0x003738    program     static                          
             __tmplbl_340   0x003738    program     static                          
             __tmplbl_341   0x003738    program     static                          
             __tmplbl_349   0x003a60    program     static                          
              __tmplbl_35   0x0079a6    program     static                          
             __tmplbl_352   0x0041c2    program     static                          
             __tmplbl_356   0x004060    program     static                          
             __tmplbl_357   0x004060    program     static                          
             __tmplbl_358   0x0040d8    program     static                          
             __tmplbl_359   0x004060    program     static                          
             __tmplbl_360   0x004060    program     static                          
             __tmplbl_361   0x0041c2    program     static                          
             __tmplbl_362   0x0041ca    program     static                          
             __tmplbl_363   0x0041ca    program     static                          
             __tmplbl_364   0x0040d8    program     static                          
              __tmplbl_38   0x0079a6    program     static                          
              __tmplbl_39   0x0079a6    program     static                          
              __tmplbl_40   0x0079a6    program     static                          
              __tmplbl_88   0x005498    program     static                          
              __tmplbl_89   0x005482    program     static                          
              __tmplbl_90   0x0054d6    program     static                          
              __tmplbl_91   0x0054c0    program     static                          
            __zero_memory   0x00929e    program     extern E:\3.46\pic18-lt\cxx-framework\src\traditional\proc\p18f46j50.asm
                _do_cinit   0x008efa    program     extern C:\MCC18\src\traditional\startup\c018i.c
                   _false   0x00920e    program     static                          
                   _reset   0x001000    program     extern C:\Projects\EggBot_GH\EBB_firmware\app.X\source\main.c
                 _startup   0x0092be    program     extern C:\MCC18\src\traditional\startup\c018i.c
   check_and_send_TX_data   0x004d4e    program     extern C:\Projects\EggBot_GH\EBB_firmware\app.X\source\UBW.c
         check_high_water   0x0047ac    program     extern C:\Projects\EggBot_GH\EBB_firmware\app.X\source\UBW.c
       clear_StepCounters   0x00350c    program     static C:\Projects\EggBot_GH\EBB_firmware\app.X\source\ebb.c
                compare_l   0x0092b4    program     static E:\3.46\pic18-lt\cxx-framework\src\traditional\proc\p18f46j50.asm
        configDescriptor1   0x009186    program     extern C:\Projects\EggBot_GH\EBB_firmware\app.X\source\usb_descriptors.c
                copy_loop   0x008f6c    program     static                          
            copy_one_byte   0x008f72    program     static                          
               device_dsc   0x009174    program     extern C:\Projects\EggBot_GH\EBB_firmware\app.X\source\usb_descriptors.c
                     done   0x008f96    program     static                          
             done_copying   0x008f80    program     static                          
                ebb_print   0x0087fa    program     extern C:\Projects\EggBot_GH\EBB_firmware\app.X\source\ebb_print.c
            ebb_print_hex   0x008834    program     extern C:\Projects\EggBot_GH\EBB_firmware\app.X\source\ebb_print.c
            ebb_print_int   0x0088e0    program     extern C:\Projects\EggBot_GH\EBB_firmware\app.X\source\ebb_print.c
            ebb_print_ram   0x00881c    program     extern C:\Projects\EggBot_GH\EBB_firmware\app.X\source\ebb_print.c
           ebb_print_uint   0x0088a8    program     extern C:\Projects\EggBot_GH\EBB_firmware\app.X\source\ebb_print.c
                 ebb_putc   0x004cf0    program     extern C:\Projects\EggBot_GH\EBB_firmware\app.X\source\UBW.c
            extract_digit   0x0066b8    program     extern C:\Projects\EggBot_GH\EBB_firmware\app.X\source\UBW.c
           extract_number   0x006444    program     extern C:\Projects\EggBot_GH\EBB_firmware\app.X\source\UBW.c
           extract_string   0x0063c8    program     extern C:\Projects\EggBot_GH\EBB_firmware\app.X\source\UBW.c
               fill_stack   0x00472e    program     extern C:\Projects\EggBot_GH\EBB_firmware\app.X\source\UBW.c
             getsUSBUSART   0x00854e    program     extern C:\Projects\EggBot_GH\EBB_firmware\Microchip\USB\CDC Device Driver\usb_function_cdc.c
                 high_ISR   0x001050    program     extern C:\Projects\EggBot_GH\EBB_firmware\app.X\source\ebb.c
                     jEnd   0x009246    program     static E:\3.46\pic18-lt\cxx-framework\src\traditional\stdclib\memset.asm
                    jLoop   0x009228    program     static E:\3.46\pic18-lt\cxx-framework\src\traditional\stdclib\memset.asm
                 jNoMatch   0x00929c    program     static E:\3.46\pic18-lt\cxx-framework\src\traditional\stdclib\toupper.asm
                     loop   0x0091da    program     static                          
                     loop   0x0092ce    program     static                          
                   loop_h   0x0092ac    program     static E:\3.46\pic18-lt\cxx-framework\src\traditional\proc\p18f46j50.asm
                   loop_l   0x0092b6    program     static E:\3.46\pic18-lt\cxx-framework\src\traditional\proc\p18f46j50.asm
                  low_ISR   0x004352    program     extern C:\Projects\EggBot_GH\EBB_firmware\app.X\source\UBW.c
                     main   0x008c08    program     extern C:\Projects\EggBot_GH\EBB_firmware\app.X\source\main.c
                   memset   0x009214    program     extern E:\3.46\pic18-lt\cxx-framework\src\traditional\stdclib\memset.asm
          parse_AC_packet   0x005b1e    program     extern C:\Projects\EggBot_GH\EBB_firmware\app.X\source\UBW.c
           parse_A_packet   0x005bf8    program     extern C:\Projects\EggBot_GH\EBB_firmware\app.X\source\UBW.c
          parse_BL_packet   0x0060ba    program     extern C:\Projects\EggBot_GH\EBB_firmware\app.X\source\UBW.c
          parse_CK_packet   0x00615e    program     extern C:\Projects\EggBot_GH\EBB_firmware\app.X\source\UBW.c
          parse_CS_packet   0x003518    program     extern C:\Projects\EggBot_GH\EBB_firmware\app.X\source\ebb.c
          parse_CU_packet   0x005418    program     extern C:\Projects\EggBot_GH\EBB_firmware\app.X\source\UBW.c
           parse_C_packet   0x0059f2    program     extern C:\Projects\EggBot_GH\EBB_firmware\app.X\source\UBW.c
          parse_EM_packet   0x003002    program     extern C:\Projects\EggBot_GH\EBB_firmware\app.X\source\ebb.c
          parse_ES_packet   0x002d3a    program     extern C:\Projects\EggBot_GH\EBB_firmware\app.X\source\ebb.c
          parse_HM_packet   0x0024f8    program     extern C:\Projects\EggBot_GH\EBB_firmware\app.X\source\ebb.c
           parse_I_packet   0x005bbe    program     extern C:\Projects\EggBot_GH\EBB_firmware\app.X\source\UBW.c
          parse_L3_packet   0x001eee    program     extern C:\Projects\EggBot_GH\EBB_firmware\app.X\source\ebb.c
          parse_LM_packet   0x001e90    program     extern C:\Projects\EggBot_GH\EBB_firmware\app.X\source\ebb.c
          parse_LT_packet   0x001fa4    program     extern C:\Projects\EggBot_GH\EBB_firmware\app.X\source\ebb.c
          parse_MR_packet   0x005cf2    program     extern C:\Projects\EggBot_GH\EBB_firmware\app.X\source\UBW.c
          parse_MW_packet   0x005cbc    program     extern C:\Projects\EggBot_GH\EBB_firmware\app.X\source\UBW.c
          parse_ND_packet   0x0030a4    program     extern C:\Projects\EggBot_GH\EBB_firmware\app.X\source\ebb.c
          parse_NI_packet   0x00307e    program     extern C:\Projects\EggBot_GH\EBB_firmware\app.X\source\ebb.c
           parse_O_packet   0x005b52    program     extern C:\Projects\EggBot_GH\EBB_firmware\app.X\source\UBW.c
          parse_PD_packet   0x005d30    program     extern C:\Projects\EggBot_GH\EBB_firmware\app.X\source\UBW.c
          parse_PI_packet   0x005e68    program     extern C:\Projects\EggBot_GH\EBB_firmware\app.X\source\UBW.c
          parse_PO_packet   0x005f52    program     extern C:\Projects\EggBot_GH\EBB_firmware\app.X\source\UBW.c
          parse_QB_packet   0x00319e    program     extern C:\Projects\EggBot_GH\EBB_firmware\app.X\source\ebb.c
          parse_QC_packet   0x0031c6    program     extern C:\Projects\EggBot_GH\EBB_firmware\app.X\source\ebb.c
          parse_QE_packet   0x002e06    program     extern C:\Projects\EggBot_GH\EBB_firmware\app.X\source\ebb.c
          parse_QG_packet   0x0031f4    program     extern C:\Projects\EggBot_GH\EBB_firmware\app.X\source\ebb.c
          parse_QL_packet   0x00315a    program     extern C:\Projects\EggBot_GH\EBB_firmware\app.X\source\ebb.c
          parse_QM_packet   0x003428    program     extern C:\Projects\EggBot_GH\EBB_firmware\app.X\source\ebb.c
          parse_QN_packet   0x0030fe    program     extern C:\Projects\EggBot_GH\EBB_firmware\app.X\source\ebb.c
          parse_QP_packet   0x002dd4    program     extern C:\Projects\EggBot_GH\EBB_firmware\app.X\source\ebb.c
          parse_QR_packet   0x0060d8    program     extern C:\Projects\EggBot_GH\EBB_firmware\app.X\source\UBW.c
          parse_QS_packet   0x0034a8    program     extern C:\Projects\EggBot_GH\EBB_firmware\app.X\source\ebb.c
          parse_QT_packet   0x006388    program     extern C:\Projects\EggBot_GH\EBB_firmware\app.X\source\UBW.c
          parse_QU_packet   0x005914    program     extern C:\Projects\EggBot_GH\EBB_firmware\app.X\source\UBW.c
          parse_RB_packet   0x0060ca    program     extern C:\Projects\EggBot_GH\EBB_firmware\app.X\source\UBW.c
           parse_R_packet   0x00540a    program     extern C:\Projects\EggBot_GH\EBB_firmware\app.X\source\UBW.c
          parse_SC_packet   0x001d0a    program     extern C:\Projects\EggBot_GH\EBB_firmware\app.X\source\ebb.c
          parse_SE_packet   0x003258    program     extern C:\Projects\EggBot_GH\EBB_firmware\app.X\source\ebb.c
          parse_SL_packet   0x003122    program     extern C:\Projects\EggBot_GH\EBB_firmware\app.X\source\ebb.c
          parse_SM_packet   0x0023ca    program     extern C:\Projects\EggBot_GH\EBB_firmware\app.X\source\ebb.c
          parse_SN_packet   0x0030c2    program     extern C:\Projects\EggBot_GH\EBB_firmware\app.X\source\ebb.c
          parse_SP_packet   0x002f18    program     extern C:\Projects\EggBot_GH\EBB_firmware\app.X\source\ebb.c
          parse_SR_packet   0x0060f8    program     extern C:\Projects\EggBot_GH\EBB_firmware\app.X\source\UBW.c
          parse_ST_packet   0x00631c    program     extern C:\Projects\EggBot_GH\EBB_firmware\app.X\source\UBW.c
          parse_T3_packet   0x001f64    program     extern C:\Projects\EggBot_GH\EBB_firmware\app.X\source\ebb.c
          parse_TP_packet   0x002ed0    program     extern C:\Projects\EggBot_GH\EBB_firmware\app.X\source\ebb.c
           parse_V_packet   0x005bea    program     extern C:\Projects\EggBot_GH\EBB_firmware\app.X\source\UBW.c
          parse_XM_packet   0x00289c    program     extern C:\Projects\EggBot_GH\EBB_firmware\app.X\source\ebb.c
             parse_packet   0x004d9a    program     extern C:\Projects\EggBot_GH\EBB_firmware\app.X\source\UBW.c
populateDeviceStringWithName   0x006296    program     extern C:\Projects\EggBot_GH\EBB_firmware\app.X\source\UBW.c
                  pow2x16   0x0092da    program     extern E:\3.46\pic18-lt\cxx-framework\src\traditional\math\pow2x16.c
            print_command   0x005388    program     extern C:\Projects\EggBot_GH\EBB_firmware\app.X\source\UBW.c
        print_line_ending   0x0053c4    program     extern C:\Projects\EggBot_GH\EBB_firmware\app.X\source\UBW.c
             print_status   0x006784    program     extern C:\Projects\EggBot_GH\EBB_firmware\app.X\source\UBW.c
               process_QM   0x00339e    program     extern C:\Projects\EggBot_GH\EBB_firmware\app.X\source\ebb.c
               process_SP   0x002f8a    program     extern C:\Projects\EggBot_GH\EBB_firmware\app.X\source\ebb.c
   process_low_level_move   0x001fe0    program     static C:\Projects\EggBot_GH\EBB_firmware\app.X\source\ebb.c
process_simple_motor_move   0x0029fa    program     static C:\Projects\EggBot_GH\EBB_firmware\app.X\source\ebb.c
              putUSBUSART   0x0085cc    program     extern C:\Projects\EggBot_GH\EBB_firmware\Microchip\USB\CDC Device Driver\usb_function_cdc.c
            putrsUSBUSART   0x008624    program     extern C:\Projects\EggBot_GH\EBB_firmware\Microchip\USB\CDC Device Driver\usb_function_cdc.c
             putsUSBUSART   0x0085e4    program     extern C:\Projects\EggBot_GH\EBB_firmware\Microchip\USB\CDC Device Driver\usb_function_cdc.c
               st_version   0x008e4e    program     extern C:\Projects\EggBot_GH\EBB_firmware\app.X\source\UBW.c
                     test   0x008f14    program     static                          
                  toupper   0x009276    program     extern E:\3.46\pic18-lt\cxx-framework\src\traditional\stdclib\toupper.asm
               zero_block   0x0092ac    program     static E:\3.46\pic18-lt\cxx-framework\src\traditional\proc\p18f46j50.asm
                   ADCON0   0x000fc2       data     extern E:\3.46\pic18-lt\cxx-framework\src\traditional\proc\p18f46j50.asm
               ADCON0bits   0x000fc2       data     extern E:\3.46\pic18-lt\cxx-framework\src\traditional\proc\p18f46j50.asm
                   ADCON1   0x000fc1       data     extern E:\3.46\pic18-lt\cxx-framework\src\traditional\proc\p18f46j50.asm
               ADCON1bits   0x000fc1       data     extern E:\3.46\pic18-lt\cxx-framework\src\traditional\proc\p18f46j50.asm
                    ADRES   0x000fc3       data     extern E:\3.46\pic18-lt\cxx-framework\src\traditional\proc\p18f46j50.asm
                   ADRESH   0x000fc4       data     extern E:\3.46\pic18-lt\cxx-framework\src\traditional\proc\p18f46j50.asm
                   ADRESL   0x000fc3       data     extern E:\3.46\pic18-lt\cxx-framework\src\traditional\proc\p18f46j50.asm
                  ALRMCFG   0x000f91       data     extern E:\3.46\pic18-lt\cxx-framework\src\traditional\proc\p18f46j50.asm
              ALRMCFGbits   0x000f91       data     extern E:\3.46\pic18-lt\cxx-framework\src\traditional\proc\p18f46j50.asm
                  ALRMRPT   0x000f90       data     extern E:\3.46\pic18-lt\cxx-framework\src\traditional\proc\p18f46j50.asm
              ALRMRPTbits   0x000f90       data     extern E:\3.46\pic18-lt\cxx-framework\src\traditional\proc\p18f46j50.asm
                 ALRMVALH   0x000f8f       data     extern E:\3.46\pic18-lt\cxx-framework\src\traditional\proc\p18f46j50.asm
                 ALRMVALL   0x000f8e       data     extern E:\3.46\pic18-lt\cxx-framework\src\traditional\proc\p18f46j50.asm
                   ANCON0   0x000f48       data     extern E:\3.46\pic18-lt\cxx-framework\src\traditional\proc\p18f46j50.asm
               ANCON0bits   0x000f48       data     extern E:\3.46\pic18-lt\cxx-framework\src\traditional\proc\p18f46j50.asm
                   ANCON1   0x000f49       data     extern E:\3.46\pic18-lt\cxx-framework\src\traditional\proc\p18f46j50.asm
               ANCON1bits   0x000f49       data     extern E:\3.46\pic18-lt\cxx-framework\src\traditional\proc\p18f46j50.asm
            A_cur_channel   0x00009f       data     extern C:\Projects\EggBot_GH\EBB_firmware\app.X\source\UBW.c
           A_tick_counter   0x00009d       data     extern C:\Projects\EggBot_GH\EBB_firmware\app.X\source\UBW.c
                  AllDone   0x000000       data     static C:\Projects\EggBot_GH\EBB_firmware\app.X\source\ebb.c
    AnalogEnabledChannels   0x0000a1       data     extern C:\Projects\EggBot_GH\EBB_firmware\app.X\source\UBW.c
           AnalogInitiate   0x0000a0       data     extern C:\Projects\EggBot_GH\EBB_firmware\app.X\source\UBW.c
               AxisActive   0x000002       data     static C:\Projects\EggBot_GH\EBB_firmware\app.X\source\ebb.c
                  BAUDCON   0x000f7e       data     extern E:\3.46\pic18-lt\cxx-framework\src\traditional\proc\p18f46j50.asm
                 BAUDCON1   0x000f7e       data     extern E:\3.46\pic18-lt\cxx-framework\src\traditional\proc\p18f46j50.asm
             BAUDCON1bits   0x000f7e       data     extern E:\3.46\pic18-lt\cxx-framework\src\traditional\proc\p18f46j50.asm
                 BAUDCON2   0x000f7c       data     extern E:\3.46\pic18-lt\cxx-framework\src\traditional\proc\p18f46j50.asm
             BAUDCON2bits   0x000f7c       data     extern E:\3.46\pic18-lt\cxx-framework\src\traditional\proc\p18f46j50.asm
              BAUDCONbits   0x000f7e       data     extern E:\3.46\pic18-lt\cxx-framework\src\traditional\proc\p18f46j50.asm
                  BAUDCTL   0x000f7e       data     extern E:\3.46\pic18-lt\cxx-framework\src\traditional\proc\p18f46j50.asm
              BAUDCTLbits   0x000f7e       data     extern E:\3.46\pic18-lt\cxx-framework\src\traditional\proc\p18f46j50.asm
                      BDT   0x000400       data     extern C:\Projects\EggBot_GH\EBB_firmware\Microchip\USB\usb_device.c
                      BSR   0x000fe0       data     extern E:\3.46\pic18-lt\cxx-framework\src\traditional\proc\p18f46j50.asm
              BaudRateGen   0x00059c       data     extern C:\Projects\EggBot_GH\EBB_firmware\Microchip\USB\CDC Device Driver\usb_function_cdc.c
       BothEP0OutUOWNsSet   0x0001ea       data     extern C:\Projects\EggBot_GH\EBB_firmware\Microchip\USB\usb_device.c
             ButtonPushed   0x000007       data     static C:\Projects\EggBot_GH\EBB_firmware\app.X\source\ebb.c
                  CCP1CON   0x000fba       data     extern E:\3.46\pic18-lt\cxx-framework\src\traditional\proc\p18f46j50.asm
              CCP1CONbits   0x000fba       data     extern E:\3.46\pic18-lt\cxx-framework\src\traditional\proc\p18f46j50.asm
                  CCP2CON   0x000fb4       data     extern E:\3.46\pic18-lt\cxx-framework\src\traditional\proc\p18f46j50.asm
              CCP2CONbits   0x000fb4       data     extern E:\3.46\pic18-lt\cxx-framework\src\traditional\proc\p18f46j50.asm
                    CCPR1   0x000fbb       data     extern E:\3.46\pic18-lt\cxx-framework\src\traditional\proc\p18f46j50.asm
                   CCPR1H   0x000fbc       data     extern E:\3.46\pic18-lt\cxx-framework\src\traditional\proc\p18f46j50.asm
                   CCPR1L   0x000fbb       data     extern E:\3.46\pic18-lt\cxx-framework\src\traditional\proc\p18f46j50.asm
                    CCPR2   0x000fb5       data     extern E:\3.46\pic18-lt\cxx-framework\src\traditional\proc\p18f46j50.asm
                   CCPR2H   0x000fb6       data     extern E:\3.46\pic18-lt\cxx-framework\src\traditional\proc\p18f46j50.asm
                   CCPR2L   0x000fb5       data     extern E:\3.46\pic18-lt\cxx-framework\src\traditional\proc\p18f46j50.asm
          CDCDataInHandle   0x000599       data     extern C:\Projects\EggBot_GH\EBB_firmware\Microchip\USB\CDC Device Driver\usb_function_cdc.c
         CDCDataOutHandle   0x000597       data     extern C:\Projects\EggBot_GH\EBB_firmware\Microchip\USB\CDC Device Driver\usb_function_cdc.c
                   CM1CON   0x000fd2       data     extern E:\3.46\pic18-lt\cxx-framework\src\traditional\proc\p18f46j50.asm
                  CM1CON1   0x000fd2       data     extern E:\3.46\pic18-lt\cxx-framework\src\traditional\proc\p18f46j50.asm
              CM1CON1bits   0x000fd2       data     extern E:\3.46\pic18-lt\cxx-framework\src\traditional\proc\p18f46j50.asm
               CM1CONbits   0x000fd2       data     extern E:\3.46\pic18-lt\cxx-framework\src\traditional\proc\p18f46j50.asm
                   CM2CON   0x000fd1       data     extern E:\3.46\pic18-lt\cxx-framework\src\traditional\proc\p18f46j50.asm
                  CM2CON1   0x000fd1       data     extern E:\3.46\pic18-lt\cxx-framework\src\traditional\proc\p18f46j50.asm
              CM2CON1bits   0x000fd1       data     extern E:\3.46\pic18-lt\cxx-framework\src\traditional\proc\p18f46j50.asm
               CM2CONbits   0x000fd1       data     extern E:\3.46\pic18-lt\cxx-framework\src\traditional\proc\p18f46j50.asm
                   CMSTAT   0x000f70       data     extern E:\3.46\pic18-lt\cxx-framework\src\traditional\proc\p18f46j50.asm
                 CMSTATUS   0x000f70       data     extern E:\3.46\pic18-lt\cxx-framework\src\traditional\proc\p18f46j50.asm
             CMSTATUSbits   0x000f70       data     extern E:\3.46\pic18-lt\cxx-framework\src\traditional\proc\p18f46j50.asm
               CMSTATbits   0x000f70       data     extern E:\3.46\pic18-lt\cxx-framework\src\traditional\proc\p18f46j50.asm
                 CTMUCONH   0x000fb3       data     extern E:\3.46\pic18-lt\cxx-framework\src\traditional\proc\p18f46j50.asm
             CTMUCONHbits   0x000fb3       data     extern E:\3.46\pic18-lt\cxx-framework\src\traditional\proc\p18f46j50.asm
                 CTMUCONL   0x000fb2       data     extern E:\3.46\pic18-lt\cxx-framework\src\traditional\proc\p18f46j50.asm
             CTMUCONLbits   0x000fb2       data     extern E:\3.46\pic18-lt\cxx-framework\src\traditional\proc\p18f46j50.asm
                 CTMUICON   0x000fb1       data     extern E:\3.46\pic18-lt\cxx-framework\src\traditional\proc\p18f46j50.asm
             CTMUICONbits   0x000fb1       data     extern E:\3.46\pic18-lt\cxx-framework\src\traditional\proc\p18f46j50.asm
                   CVRCON   0x000f53       data     extern E:\3.46\pic18-lt\cxx-framework\src\traditional\proc\p18f46j50.asm
               CVRCONbits   0x000f53       data     extern E:\3.46\pic18-lt\cxx-framework\src\traditional\proc\p18f46j50.asm
               ChannelBit   0x0000a3       data     extern C:\Projects\EggBot_GH\EBB_firmware\app.X\source\UBW.c
              CommandFIFO   0x000600       data     extern C:\Projects\EggBot_GH\EBB_firmware\app.X\source\ebb.c
              CtrlTrfData   0x000438       data     extern C:\Projects\EggBot_GH\EBB_firmware\Microchip\USB\usb_device.c
           CurrentCommand   0x000180       data     extern C:\Projects\EggBot_GH\EBB_firmware\app.X\source\ebb.c
                   DMABCH   0x000f66       data     extern E:\3.46\pic18-lt\cxx-framework\src\traditional\proc\p18f46j50.asm
               DMABCHbits   0x000f66       data     extern E:\3.46\pic18-lt\cxx-framework\src\traditional\proc\p18f46j50.asm
                   DMABCL   0x000f67       data     extern E:\3.46\pic18-lt\cxx-framework\src\traditional\proc\p18f46j50.asm
                  DMACON1   0x000f88       data     extern E:\3.46\pic18-lt\cxx-framework\src\traditional\proc\p18f46j50.asm
              DMACON1bits   0x000f88       data     extern E:\3.46\pic18-lt\cxx-framework\src\traditional\proc\p18f46j50.asm
                  DMACON2   0x000f86       data     extern E:\3.46\pic18-lt\cxx-framework\src\traditional\proc\p18f46j50.asm
              DMACON2bits   0x000f86       data     extern E:\3.46\pic18-lt\cxx-framework\src\traditional\proc\p18f46j50.asm
                   DSCONH   0x000f4d       data     extern E:\3.46\pic18-lt\cxx-framework\src\traditional\proc\p18f46j50.asm
               DSCONHbits   0x000f4d       data     extern E:\3.46\pic18-lt\cxx-framework\src\traditional\proc\p18f46j50.asm
                   DSCONL   0x000f4c       data     extern E:\3.46\pic18-lt\cxx-framework\src\traditional\proc\p18f46j50.asm
               DSCONLbits   0x000f4c       data     extern E:\3.46\pic18-lt\cxx-framework\src\traditional\proc\p18f46j50.asm
                   DSGPR0   0x000f4e       data     extern E:\3.46\pic18-lt\cxx-framework\src\traditional\proc\p18f46j50.asm
                   DSGPR1   0x000f4f       data     extern E:\3.46\pic18-lt\cxx-framework\src\traditional\proc\p18f46j50.asm
                  DSWAKEH   0x000f4b       data     extern E:\3.46\pic18-lt\cxx-framework\src\traditional\proc\p18f46j50.asm
              DSWAKEHbits   0x000f4b       data     extern E:\3.46\pic18-lt\cxx-framework\src\traditional\proc\p18f46j50.asm
                  DSWAKEL   0x000f4a       data     extern E:\3.46\pic18-lt\cxx-framework\src\traditional\proc\p18f46j50.asm
              DSWAKELbits   0x000f4a       data     extern E:\3.46\pic18-lt\cxx-framework\src\traditional\proc\p18f46j50.asm
           D_tick_counter   0x00009b       data     extern C:\Projects\EggBot_GH\EBB_firmware\app.X\source\UBW.c
           DemoModeActive   0x000b53       data     extern C:\Projects\EggBot_GH\EBB_firmware\app.X\source\ebb.c
      DriverConfiguration   0x000004       data     extern C:\Projects\EggBot_GH\EBB_firmware\app.X\source\ebb.c
                  ECCP1AS   0x000fbe       data     extern E:\3.46\pic18-lt\cxx-framework\src\traditional\proc\p18f46j50.asm
              ECCP1ASbits   0x000fbe       data     extern E:\3.46\pic18-lt\cxx-framework\src\traditional\proc\p18f46j50.asm
                 ECCP1CON   0x000fba       data     extern E:\3.46\pic18-lt\cxx-framework\src\traditional\proc\p18f46j50.asm
             ECCP1CONbits   0x000fba       data     extern E:\3.46\pic18-lt\cxx-framework\src\traditional\proc\p18f46j50.asm
                 ECCP1DEL   0x000fbd       data     extern E:\3.46\pic18-lt\cxx-framework\src\traditional\proc\p18f46j50.asm
             ECCP1DELbits   0x000fbd       data     extern E:\3.46\pic18-lt\cxx-framework\src\traditional\proc\p18f46j50.asm
                  ECCP2AS   0x000fb8       data     extern E:\3.46\pic18-lt\cxx-framework\src\traditional\proc\p18f46j50.asm
              ECCP2ASbits   0x000fb8       data     extern E:\3.46\pic18-lt\cxx-framework\src\traditional\proc\p18f46j50.asm
                 ECCP2CON   0x000fb4       data     extern E:\3.46\pic18-lt\cxx-framework\src\traditional\proc\p18f46j50.asm
             ECCP2CONbits   0x000fb4       data     extern E:\3.46\pic18-lt\cxx-framework\src\traditional\proc\p18f46j50.asm
                 ECCP2DEL   0x000fb7       data     extern E:\3.46\pic18-lt\cxx-framework\src\traditional\proc\p18f46j50.asm
             ECCP2DELbits   0x000fb7       data     extern E:\3.46\pic18-lt\cxx-framework\src\traditional\proc\p18f46j50.asm
                   EECON1   0x000fa6       data     extern E:\3.46\pic18-lt\cxx-framework\src\traditional\proc\p18f46j50.asm
               EECON1bits   0x000fa6       data     extern E:\3.46\pic18-lt\cxx-framework\src\traditional\proc\p18f46j50.asm
                   EECON2   0x000fa7       data     extern E:\3.46\pic18-lt\cxx-framework\src\traditional\proc\p18f46j50.asm
                  FIFOPtr   0x0005fd       data     extern C:\Projects\EggBot_GH\EBB_firmware\app.X\source\ebb.c
        FIFO_out_ptr_high   0x000019       data     extern C:\Projects\EggBot_GH\EBB_firmware\app.X\source\ebb.c
         FIFO_out_ptr_low   0x00001a       data     extern C:\Projects\EggBot_GH\EBB_firmware\app.X\source\ebb.c
                     FSR0   0x000fe9       data     extern E:\3.46\pic18-lt\cxx-framework\src\traditional\proc\p18f46j50.asm
                    FSR0H   0x000fea       data     extern E:\3.46\pic18-lt\cxx-framework\src\traditional\proc\p18f46j50.asm
                    FSR0L   0x000fe9       data     extern E:\3.46\pic18-lt\cxx-framework\src\traditional\proc\p18f46j50.asm
                     FSR1   0x000fe1       data     extern E:\3.46\pic18-lt\cxx-framework\src\traditional\proc\p18f46j50.asm
                    FSR1H   0x000fe2       data     extern E:\3.46\pic18-lt\cxx-framework\src\traditional\proc\p18f46j50.asm
                    FSR1L   0x000fe1       data     extern E:\3.46\pic18-lt\cxx-framework\src\traditional\proc\p18f46j50.asm
                     FSR2   0x000fd9       data     extern E:\3.46\pic18-lt\cxx-framework\src\traditional\proc\p18f46j50.asm
                    FSR2H   0x000fda       data     extern E:\3.46\pic18-lt\cxx-framework\src\traditional\proc\p18f46j50.asm
                    FSR2L   0x000fd9       data     extern E:\3.46\pic18-lt\cxx-framework\src\traditional\proc\p18f46j50.asm
                  HLVDCON   0x000f85       data     extern E:\3.46\pic18-lt\cxx-framework\src\traditional\proc\p18f46j50.asm
              HLVDCONbits   0x000f85       data     extern E:\3.46\pic18-lt\cxx-framework\src\traditional\proc\p18f46j50.asm
                    INDF0   0x000fef       data     extern E:\3.46\pic18-lt\cxx-framework\src\traditional\proc\p18f46j50.asm
                    INDF1   0x000fe7       data     extern E:\3.46\pic18-lt\cxx-framework\src\traditional\proc\p18f46j50.asm
                    INDF2   0x000fdf       data     extern E:\3.46\pic18-lt\cxx-framework\src\traditional\proc\p18f46j50.asm
                   INTCON   0x000ff2       data     extern E:\3.46\pic18-lt\cxx-framework\src\traditional\proc\p18f46j50.asm
                  INTCON2   0x000ff1       data     extern E:\3.46\pic18-lt\cxx-framework\src\traditional\proc\p18f46j50.asm
              INTCON2bits   0x000ff1       data     extern E:\3.46\pic18-lt\cxx-framework\src\traditional\proc\p18f46j50.asm
                  INTCON3   0x000ff0       data     extern E:\3.46\pic18-lt\cxx-framework\src\traditional\proc\p18f46j50.asm
              INTCON3bits   0x000ff0       data     extern E:\3.46\pic18-lt\cxx-framework\src\traditional\proc\p18f46j50.asm
               INTCONbits   0x000ff2       data     extern E:\3.46\pic18-lt\cxx-framework\src\traditional\proc\p18f46j50.asm
                     IPR1   0x000f9f       data     extern E:\3.46\pic18-lt\cxx-framework\src\traditional\proc\p18f46j50.asm
                 IPR1bits   0x000f9f       data     extern E:\3.46\pic18-lt\cxx-framework\src\traditional\proc\p18f46j50.asm
                     IPR2   0x000fa2       data     extern E:\3.46\pic18-lt\cxx-framework\src\traditional\proc\p18f46j50.asm
                 IPR2bits   0x000fa2       data     extern E:\3.46\pic18-lt\cxx-framework\src\traditional\proc\p18f46j50.asm
                     IPR3   0x000fa5       data     extern E:\3.46\pic18-lt\cxx-framework\src\traditional\proc\p18f46j50.asm
                 IPR3bits   0x000fa5       data     extern E:\3.46\pic18-lt\cxx-framework\src\traditional\proc\p18f46j50.asm
               ISR_A_FIFO   0x000100       data     extern C:\Projects\EggBot_GH\EBB_firmware\app.X\source\UBW.c
            ISR_A_FIFO_in   0x000094       data     extern C:\Projects\EggBot_GH\EBB_firmware\app.X\source\UBW.c
        ISR_A_FIFO_length   0x000096       data     extern C:\Projects\EggBot_GH\EBB_firmware\app.X\source\UBW.c
           ISR_A_FIFO_out   0x000095       data     extern C:\Projects\EggBot_GH\EBB_firmware\app.X\source\UBW.c
         ISR_A_RepeatRate   0x000092       data     extern C:\Projects\EggBot_GH\EBB_firmware\app.X\source\UBW.c
              ISR_Channel   0x00000a       data     static C:\Projects\EggBot_GH\EBB_firmware\app.X\source\ebb.c
               ISR_D_FIFO   0x000120       data     extern C:\Projects\EggBot_GH\EBB_firmware\app.X\source\UBW.c
            ISR_D_FIFO_in   0x00008f       data     extern C:\Projects\EggBot_GH\EBB_firmware\app.X\source\UBW.c
        ISR_D_FIFO_length   0x000091       data     extern C:\Projects\EggBot_GH\EBB_firmware\app.X\source\UBW.c
           ISR_D_FIFO_out   0x000090       data     extern C:\Projects\EggBot_GH\EBB_firmware\app.X\source\UBW.c
         ISR_D_RepeatRate   0x00008d       data     extern C:\Projects\EggBot_GH\EBB_firmware\app.X\source\UBW.c
                     LATA   0x000f89       data     extern E:\3.46\pic18-lt\cxx-framework\src\traditional\proc\p18f46j50.asm
                 LATAbits   0x000f89       data     extern E:\3.46\pic18-lt\cxx-framework\src\traditional\proc\p18f46j50.asm
                     LATB   0x000f8a       data     extern E:\3.46\pic18-lt\cxx-framework\src\traditional\proc\p18f46j50.asm
                 LATBbits   0x000f8a       data     extern E:\3.46\pic18-lt\cxx-framework\src\traditional\proc\p18f46j50.asm
                     LATC   0x000f8b       data     extern E:\3.46\pic18-lt\cxx-framework\src\traditional\proc\p18f46j50.asm
                 LATCbits   0x000f8b       data     extern E:\3.46\pic18-lt\cxx-framework\src\traditional\proc\p18f46j50.asm
                     LATD   0x000f8c       data     extern E:\3.46\pic18-lt\cxx-framework\src\traditional\proc\p18f46j50.asm
                 LATDbits   0x000f8c       data     extern E:\3.46\pic18-lt\cxx-framework\src\traditional\proc\p18f46j50.asm
                     LATE   0x000f8d       data     extern E:\3.46\pic18-lt\cxx-framework\src\traditional\proc\p18f46j50.asm
                 LATEbits   0x000f8d       data     extern E:\3.46\pic18-lt\cxx-framework\src\traditional\proc\p18f46j50.asm
                 LEDCount   0x0005f0       data     static C:\Projects\EggBot_GH\EBB_firmware\app.X\source\UBW.c
                 LEDState   0x0005f2       data     static C:\Projects\EggBot_GH\EBB_firmware\app.X\source\UBW.c
                NodeCount   0x000b5b       data     static C:\Projects\EggBot_GH\EBB_firmware\app.X\source\ebb.c
                   ODCON1   0x000f42       data     extern E:\3.46\pic18-lt\cxx-framework\src\traditional\proc\p18f46j50.asm
               ODCON1bits   0x000f42       data     extern E:\3.46\pic18-lt\cxx-framework\src\traditional\proc\p18f46j50.asm
                   ODCON2   0x000f41       data     extern E:\3.46\pic18-lt\cxx-framework\src\traditional\proc\p18f46j50.asm
               ODCON2bits   0x000f41       data     extern E:\3.46\pic18-lt\cxx-framework\src\traditional\proc\p18f46j50.asm
                   ODCON3   0x000f40       data     extern E:\3.46\pic18-lt\cxx-framework\src\traditional\proc\p18f46j50.asm
               ODCON3bits   0x000f40       data     extern E:\3.46\pic18-lt\cxx-framework\src\traditional\proc\p18f46j50.asm
                   OSCCON   0x000fd3       data     extern E:\3.46\pic18-lt\cxx-framework\src\traditional\proc\p18f46j50.asm
               OSCCONbits   0x000fd3       data     extern E:\3.46\pic18-lt\cxx-framework\src\traditional\proc\p18f46j50.asm
                  OSCTUNE   0x000f9b       data     extern E:\3.46\pic18-lt\cxx-framework\src\traditional\proc\p18f46j50.asm
              OSCTUNEbits   0x000f9b       data     extern E:\3.46\pic18-lt\cxx-framework\src\traditional\proc\p18f46j50.asm
                  PADCFG1   0x000f3c       data     extern E:\3.46\pic18-lt\cxx-framework\src\traditional\proc\p18f46j50.asm
              PADCFG1bits   0x000f3c       data     extern E:\3.46\pic18-lt\cxx-framework\src\traditional\proc\p18f46j50.asm
                       PC   0x000ff9       data     extern E:\3.46\pic18-lt\cxx-framework\src\traditional\proc\p18f46j50.asm
                      PCL   0x000ff9       data     extern E:\3.46\pic18-lt\cxx-framework\src\traditional\proc\p18f46j50.asm
                   PCLATH   0x000ffa       data     extern E:\3.46\pic18-lt\cxx-framework\src\traditional\proc\p18f46j50.asm
                   PCLATU   0x000ffb       data     extern E:\3.46\pic18-lt\cxx-framework\src\traditional\proc\p18f46j50.asm
                     PIE1   0x000f9d       data     extern E:\3.46\pic18-lt\cxx-framework\src\traditional\proc\p18f46j50.asm
                 PIE1bits   0x000f9d       data     extern E:\3.46\pic18-lt\cxx-framework\src\traditional\proc\p18f46j50.asm
                     PIE2   0x000fa0       data     extern E:\3.46\pic18-lt\cxx-framework\src\traditional\proc\p18f46j50.asm
                 PIE2bits   0x000fa0       data     extern E:\3.46\pic18-lt\cxx-framework\src\traditional\proc\p18f46j50.asm
                     PIE3   0x000fa3       data     extern E:\3.46\pic18-lt\cxx-framework\src\traditional\proc\p18f46j50.asm
                 PIE3bits   0x000fa3       data     extern E:\3.46\pic18-lt\cxx-framework\src\traditional\proc\p18f46j50.asm
                     PIR1   0x000f9e       data     extern E:\3.46\pic18-lt\cxx-framework\src\traditional\proc\p18f46j50.asm
                 PIR1bits   0x000f9e       data     extern E:\3.46\pic18-lt\cxx-framework\src\traditional\proc\p18f46j50.asm
                     PIR2   0x000fa1       data     extern E:\3.46\pic18-lt\cxx-framework\src\traditional\proc\p18f46j50.asm
                 PIR2bits   0x000fa1       data     extern E:\3.46\pic18-lt\cxx-framework\src\traditional\proc\p18f46j50.asm
                     PIR3   0x000fa4       data     extern E:\3.46\pic18-lt\cxx-framework\src\traditional\proc\p18f46j50.asm
                 PIR3bits   0x000fa4       data     extern E:\3.46\pic18-lt\cxx-framework\src\traditional\proc\p18f46j50.asm
                   PLUSW0   0x000feb       data     extern E:\3.46\pic18-lt\cxx-framework\src\traditional\proc\p18f46j50.asm
                   PLUSW1   0x000fe3       data     extern E:\3.46\pic18-lt\cxx-framework\src\traditional\proc\p18f46j50.asm
                   PLUSW2   0x000fdb       data     extern E:\3.46\pic18-lt\cxx-framework\src\traditional\proc\p18f46j50.asm
                  PMADDRH   0x000f6f       data     extern E:\3.46\pic18-lt\cxx-framework\src\traditional\proc\p18f46j50.asm
              PMADDRHbits   0x000f6f       data     extern E:\3.46\pic18-lt\cxx-framework\src\traditional\proc\p18f46j50.asm
                  PMADDRL   0x000f6e       data     extern E:\3.46\pic18-lt\cxx-framework\src\traditional\proc\p18f46j50.asm
                   PMCONH   0x000f5f       data     extern E:\3.46\pic18-lt\cxx-framework\src\traditional\proc\p18f46j50.asm
               PMCONHbits   0x000f5f       data     extern E:\3.46\pic18-lt\cxx-framework\src\traditional\proc\p18f46j50.asm
                   PMCONL   0x000f5e       data     extern E:\3.46\pic18-lt\cxx-framework\src\traditional\proc\p18f46j50.asm
               PMCONLbits   0x000f5e       data     extern E:\3.46\pic18-lt\cxx-framework\src\traditional\proc\p18f46j50.asm
                  PMDIN1H   0x000f6d       data     extern E:\3.46\pic18-lt\cxx-framework\src\traditional\proc\p18f46j50.asm
                  PMDIN1L   0x000f6c       data     extern E:\3.46\pic18-lt\cxx-framework\src\traditional\proc\p18f46j50.asm
                  PMDIN2H   0x000f59       data     extern E:\3.46\pic18-lt\cxx-framework\src\traditional\proc\p18f46j50.asm
                  PMDIN2L   0x000f58       data     extern E:\3.46\pic18-lt\cxx-framework\src\traditional\proc\p18f46j50.asm
                 PMDOUT1H   0x000f6f       data     extern E:\3.46\pic18-lt\cxx-framework\src\traditional\proc\p18f46j50.asm
                 PMDOUT1L   0x000f6e       data     extern E:\3.46\pic18-lt\cxx-framework\src\traditional\proc\p18f46j50.asm
                 PMDOUT2H   0x000f5b       data     extern E:\3.46\pic18-lt\cxx-framework\src\traditional\proc\p18f46j50.asm
                 PMDOUT2L   0x000f5a       data     extern E:\3.46\pic18-lt\cxx-framework\src\traditional\proc\p18f46j50.asm
                     PMEH   0x000f57       data     extern E:\3.46\pic18-lt\cxx-framework\src\traditional\proc\p18f46j50.asm
                 PMEHbits   0x000f57       data     extern E:\3.46\pic18-lt\cxx-framework\src\traditional\proc\p18f46j50.asm
                     PMEL   0x000f56       data     extern E:\3.46\pic18-lt\cxx-framework\src\traditional\proc\p18f46j50.asm
                 PMELbits   0x000f56       data     extern E:\3.46\pic18-lt\cxx-framework\src\traditional\proc\p18f46j50.asm
                  PMMODEH   0x000f5d       data     extern E:\3.46\pic18-lt\cxx-framework\src\traditional\proc\p18f46j50.asm
              PMMODEHbits   0x000f5d       data     extern E:\3.46\pic18-lt\cxx-framework\src\traditional\proc\p18f46j50.asm
                  PMMODEL   0x000f5c       data     extern E:\3.46\pic18-lt\cxx-framework\src\traditional\proc\p18f46j50.asm
              PMMODELbits   0x000f5c       data     extern E:\3.46\pic18-lt\cxx-framework\src\traditional\proc\p18f46j50.asm
                  PMSTATH   0x000f55       data     extern E:\3.46\pic18-lt\cxx-framework\src\traditional\proc\p18f46j50.asm
              PMSTATHbits   0x000f55       data     extern E:\3.46\pic18-lt\cxx-framework\src\traditional\proc\p18f46j50.asm
                  PMSTATL   0x000f54       data     extern E:\3.46\pic18-lt\cxx-framework\src\traditional\proc\p18f46j50.asm
              PMSTATLbits   0x000f54       data     extern E:\3.46\pic18-lt\cxx-framework\src\traditional\proc\p18f46j50.asm
                    PORTA   0x000f80       data     extern E:\3.46\pic18-lt\cxx-framework\src\traditional\proc\p18f46j50.asm
                PORTAbits   0x000f80       data     extern E:\3.46\pic18-lt\cxx-framework\src\traditional\proc\p18f46j50.asm
                    PORTB   0x000f81       data     extern E:\3.46\pic18-lt\cxx-framework\src\traditional\proc\p18f46j50.asm
                PORTBbits   0x000f81       data     extern E:\3.46\pic18-lt\cxx-framework\src\traditional\proc\p18f46j50.asm
                    PORTC   0x000f82       data     extern E:\3.46\pic18-lt\cxx-framework\src\traditional\proc\p18f46j50.asm
                PORTCbits   0x000f82       data     extern E:\3.46\pic18-lt\cxx-framework\src\traditional\proc\p18f46j50.asm
                    PORTD   0x000f83       data     extern E:\3.46\pic18-lt\cxx-framework\src\traditional\proc\p18f46j50.asm
                PORTDbits   0x000f83       data     extern E:\3.46\pic18-lt\cxx-framework\src\traditional\proc\p18f46j50.asm
                    PORTE   0x000f84       data     extern E:\3.46\pic18-lt\cxx-framework\src\traditional\proc\p18f46j50.asm
                PORTEbits   0x000f84       data     extern E:\3.46\pic18-lt\cxx-framework\src\traditional\proc\p18f46j50.asm
                 POSTDEC0   0x000fed       data     extern E:\3.46\pic18-lt\cxx-framework\src\traditional\proc\p18f46j50.asm
                 POSTDEC1   0x000fe5       data     extern E:\3.46\pic18-lt\cxx-framework\src\traditional\proc\p18f46j50.asm
                 POSTDEC2   0x000fdd       data     extern E:\3.46\pic18-lt\cxx-framework\src\traditional\proc\p18f46j50.asm
                 POSTINC0   0x000fee       data     extern E:\3.46\pic18-lt\cxx-framework\src\traditional\proc\p18f46j50.asm
                 POSTINC1   0x000fe6       data     extern E:\3.46\pic18-lt\cxx-framework\src\traditional\proc\p18f46j50.asm
                 POSTINC2   0x000fde       data     extern E:\3.46\pic18-lt\cxx-framework\src\traditional\proc\p18f46j50.asm
                   PPSCON   0x000eff       data     extern E:\3.46\pic18-lt\cxx-framework\src\traditional\proc\p18f46j50.asm
               PPSCONbits   0x000eff       data     extern E:\3.46\pic18-lt\cxx-framework\src\traditional\proc\p18f46j50.asm
                      PR2   0x000fcb       data     extern E:\3.46\pic18-lt\cxx-framework\src\traditional\proc\p18f46j50.asm
                      PR4   0x000f77       data     extern E:\3.46\pic18-lt\cxx-framework\src\traditional\proc\p18f46j50.asm
                  PREINC0   0x000fec       data     extern E:\3.46\pic18-lt\cxx-framework\src\traditional\proc\p18f46j50.asm
                  PREINC1   0x000fe4       data     extern E:\3.46\pic18-lt\cxx-framework\src\traditional\proc\p18f46j50.asm
                  PREINC2   0x000fdc       data     extern E:\3.46\pic18-lt\cxx-framework\src\traditional\proc\p18f46j50.asm
                     PROD   0x000ff3       data     extern E:\3.46\pic18-lt\cxx-framework\src\traditional\proc\p18f46j50.asm
                    PRODH   0x000ff4       data     extern E:\3.46\pic18-lt\cxx-framework\src\traditional\proc\p18f46j50.asm
                    PRODL   0x000ff3       data     extern E:\3.46\pic18-lt\cxx-framework\src\traditional\proc\p18f46j50.asm
                 PSTR1CON   0x000fbf       data     extern E:\3.46\pic18-lt\cxx-framework\src\traditional\proc\p18f46j50.asm
             PSTR1CONbits   0x000fbf       data     extern E:\3.46\pic18-lt\cxx-framework\src\traditional\proc\p18f46j50.asm
                 PSTR2CON   0x000fb9       data     extern E:\3.46\pic18-lt\cxx-framework\src\traditional\proc\p18f46j50.asm
             PSTR2CONbits   0x000fb9       data     extern E:\3.46\pic18-lt\cxx-framework\src\traditional\proc\p18f46j50.asm
                  PWM1CON   0x000fbd       data     extern E:\3.46\pic18-lt\cxx-framework\src\traditional\proc\p18f46j50.asm
              PWM1CONbits   0x000fbd       data     extern E:\3.46\pic18-lt\cxx-framework\src\traditional\proc\p18f46j50.asm
                  PWM2CON   0x000fb7       data     extern E:\3.46\pic18-lt\cxx-framework\src\traditional\proc\p18f46j50.asm
              PWM2CONbits   0x000fb7       data     extern E:\3.46\pic18-lt\cxx-framework\src\traditional\proc\p18f46j50.asm
                 PenState   0x000b5a       data     static C:\Projects\EggBot_GH\EBB_firmware\app.X\source\ebb.c
                PortBTemp   0x00000b       data     static C:\Projects\EggBot_GH\EBB_firmware\app.X\source\ebb.c
              QC_ms_timer   0x000b7f       data     extern C:\Projects\EggBot_GH\EBB_firmware\app.X\source\ebb.c
            RC2Difference   0x0000e2       data     static C:\Projects\EggBot_GH\EBB_firmware\app.X\source\UBW.c
                     RCON   0x000fd0       data     extern E:\3.46\pic18-lt\cxx-framework\src\traditional\proc\p18f46j50.asm
                 RCONbits   0x000fd0       data     extern E:\3.46\pic18-lt\cxx-framework\src\traditional\proc\p18f46j50.asm
                    RCREG   0x000faf       data     extern E:\3.46\pic18-lt\cxx-framework\src\traditional\proc\p18f46j50.asm
                   RCREG1   0x000faf       data     extern E:\3.46\pic18-lt\cxx-framework\src\traditional\proc\p18f46j50.asm
                   RCREG2   0x000faa       data     extern E:\3.46\pic18-lt\cxx-framework\src\traditional\proc\p18f46j50.asm
                    RCSTA   0x000fac       data     extern E:\3.46\pic18-lt\cxx-framework\src\traditional\proc\p18f46j50.asm
                   RCSTA1   0x000fac       data     extern E:\3.46\pic18-lt\cxx-framework\src\traditional\proc\p18f46j50.asm
               RCSTA1bits   0x000fac       data     extern E:\3.46\pic18-lt\cxx-framework\src\traditional\proc\p18f46j50.asm
                   RCSTA2   0x000f9c       data     extern E:\3.46\pic18-lt\cxx-framework\src\traditional\proc\p18f46j50.asm
               RCSTA2bits   0x000f9c       data     extern E:\3.46\pic18-lt\cxx-framework\src\traditional\proc\p18f46j50.asm
                RCSTAbits   0x000fac       data     extern E:\3.46\pic18-lt\cxx-framework\src\traditional\proc\p18f46j50.asm
                  REFOCON   0x000f3d       data     extern E:\3.46\pic18-lt\cxx-framework\src\traditional\proc\p18f46j50.asm
              REFOCONbits   0x000f3d       data     extern E:\3.46\pic18-lt\cxx-framework\src\traditional\proc\p18f46j50.asm
                   RPINR1   0x000ee7       data     extern E:\3.46\pic18-lt\cxx-framework\src\traditional\proc\p18f46j50.asm
                  RPINR12   0x000ef2       data     extern E:\3.46\pic18-lt\cxx-framework\src\traditional\proc\p18f46j50.asm
                  RPINR13   0x000ef3       data     extern E:\3.46\pic18-lt\cxx-framework\src\traditional\proc\p18f46j50.asm
                  RPINR16   0x000ef6       data     extern E:\3.46\pic18-lt\cxx-framework\src\traditional\proc\p18f46j50.asm
                  RPINR17   0x000ef7       data     extern E:\3.46\pic18-lt\cxx-framework\src\traditional\proc\p18f46j50.asm
                   RPINR2   0x000ee8       data     extern E:\3.46\pic18-lt\cxx-framework\src\traditional\proc\p18f46j50.asm
                  RPINR21   0x000efb       data     extern E:\3.46\pic18-lt\cxx-framework\src\traditional\proc\p18f46j50.asm
                  RPINR22   0x000efc       data     extern E:\3.46\pic18-lt\cxx-framework\src\traditional\proc\p18f46j50.asm
                  RPINR23   0x000efd       data     extern E:\3.46\pic18-lt\cxx-framework\src\traditional\proc\p18f46j50.asm
                  RPINR24   0x000efe       data     extern E:\3.46\pic18-lt\cxx-framework\src\traditional\proc\p18f46j50.asm
                   RPINR3   0x000ee9       data     extern E:\3.46\pic18-lt\cxx-framework\src\traditional\proc\p18f46j50.asm
                   RPINR4   0x000eea       data     extern E:\3.46\pic18-lt\cxx-framework\src\traditional\proc\p18f46j50.asm
                   RPINR6   0x000eec       data     extern E:\3.46\pic18-lt\cxx-framework\src\traditional\proc\p18f46j50.asm
                   RPINR7   0x000eed       data     extern E:\3.46\pic18-lt\cxx-framework\src\traditional\proc\p18f46j50.asm
                   RPINR8   0x000eee       data     extern E:\3.46\pic18-lt\cxx-framework\src\traditional\proc\p18f46j50.asm
                    RPOR0   0x000ec6       data     extern E:\3.46\pic18-lt\cxx-framework\src\traditional\proc\p18f46j50.asm
                    RPOR1   0x000ec7       data     extern E:\3.46\pic18-lt\cxx-framework\src\traditional\proc\p18f46j50.asm
                   RPOR10   0x000ed0       data     extern E:\3.46\pic18-lt\cxx-framework\src\traditional\proc\p18f46j50.asm
                   RPOR11   0x000ed1       data     extern E:\3.46\pic18-lt\cxx-framework\src\traditional\proc\p18f46j50.asm
                   RPOR12   0x000ed2       data     extern E:\3.46\pic18-lt\cxx-framework\src\traditional\proc\p18f46j50.asm
                   RPOR13   0x000ed3       data     extern E:\3.46\pic18-lt\cxx-framework\src\traditional\proc\p18f46j50.asm
                   RPOR17   0x000ed7       data     extern E:\3.46\pic18-lt\cxx-framework\src\traditional\proc\p18f46j50.asm
                   RPOR18   0x000ed8       data     extern E:\3.46\pic18-lt\cxx-framework\src\traditional\proc\p18f46j50.asm
                   RPOR19   0x000ed9       data     extern E:\3.46\pic18-lt\cxx-framework\src\traditional\proc\p18f46j50.asm
                    RPOR2   0x000ec8       data     extern E:\3.46\pic18-lt\cxx-framework\src\traditional\proc\p18f46j50.asm
                   RPOR20   0x000eda       data     extern E:\3.46\pic18-lt\cxx-framework\src\traditional\proc\p18f46j50.asm
                   RPOR21   0x000edb       data     extern E:\3.46\pic18-lt\cxx-framework\src\traditional\proc\p18f46j50.asm
                   RPOR22   0x000edc       data     extern E:\3.46\pic18-lt\cxx-framework\src\traditional\proc\p18f46j50.asm
                   RPOR23   0x000edd       data     extern E:\3.46\pic18-lt\cxx-framework\src\traditional\proc\p18f46j50.asm
                   RPOR24   0x000ede       data     extern E:\3.46\pic18-lt\cxx-framework\src\traditional\proc\p18f46j50.asm
                    RPOR3   0x000ec9       data     extern E:\3.46\pic18-lt\cxx-framework\src\traditional\proc\p18f46j50.asm
                    RPOR4   0x000eca       data     extern E:\3.46\pic18-lt\cxx-framework\src\traditional\proc\p18f46j50.asm
                    RPOR5   0x000ecb       data     extern E:\3.46\pic18-lt\cxx-framework\src\traditional\proc\p18f46j50.asm
                    RPOR6   0x000ecc       data     extern E:\3.46\pic18-lt\cxx-framework\src\traditional\proc\p18f46j50.asm
                    RPOR7   0x000ecd       data     extern E:\3.46\pic18-lt\cxx-framework\src\traditional\proc\p18f46j50.asm
                    RPOR8   0x000ece       data     extern E:\3.46\pic18-lt\cxx-framework\src\traditional\proc\p18f46j50.asm
                    RPOR9   0x000ecf       data     extern E:\3.46\pic18-lt\cxx-framework\src\traditional\proc\p18f46j50.asm
                   RTCCAL   0x000f3e       data     extern E:\3.46\pic18-lt\cxx-framework\src\traditional\proc\p18f46j50.asm
               RTCCALbits   0x000f3e       data     extern E:\3.46\pic18-lt\cxx-framework\src\traditional\proc\p18f46j50.asm
                   RTCCFG   0x000f3f       data     extern E:\3.46\pic18-lt\cxx-framework\src\traditional\proc\p18f46j50.asm
               RTCCFGbits   0x000f3f       data     extern E:\3.46\pic18-lt\cxx-framework\src\traditional\proc\p18f46j50.asm
                  RTCVALH   0x000f99       data     extern E:\3.46\pic18-lt\cxx-framework\src\traditional\proc\p18f46j50.asm
                  RTCVALL   0x000f98       data     extern E:\3.46\pic18-lt\cxx-framework\src\traditional\proc\p18f46j50.asm
                  RXADDRH   0x000f68       data     extern E:\3.46\pic18-lt\cxx-framework\src\traditional\proc\p18f46j50.asm
              RXADDRHbits   0x000f68       data     extern E:\3.46\pic18-lt\cxx-framework\src\traditional\proc\p18f46j50.asm
                  RXADDRL   0x000f69       data     extern E:\3.46\pic18-lt\cxx-framework\src\traditional\proc\p18f46j50.asm
             RemoteWakeup   0x0001e6       data     extern C:\Projects\EggBot_GH\EBB_firmware\Microchip\USB\usb_device.c
                     SIGN   0x000023       data     extern E:\3.46\pic18-lt\cxx-framework\src\traditional\math\cmath18.asm
                    SPBRG   0x000fb0       data     extern E:\3.46\pic18-lt\cxx-framework\src\traditional\proc\p18f46j50.asm
                   SPBRG1   0x000fb0       data     extern E:\3.46\pic18-lt\cxx-framework\src\traditional\proc\p18f46j50.asm
                   SPBRG2   0x000fab       data     extern E:\3.46\pic18-lt\cxx-framework\src\traditional\proc\p18f46j50.asm
                   SPBRGH   0x000f7f       data     extern E:\3.46\pic18-lt\cxx-framework\src\traditional\proc\p18f46j50.asm
                  SPBRGH1   0x000f7f       data     extern E:\3.46\pic18-lt\cxx-framework\src\traditional\proc\p18f46j50.asm
                  SPBRGH2   0x000f7d       data     extern E:\3.46\pic18-lt\cxx-framework\src\traditional\proc\p18f46j50.asm
                  SSP1ADD   0x000fc8       data     extern E:\3.46\pic18-lt\cxx-framework\src\traditional\proc\p18f46j50.asm
              SSP1ADDbits   0x000fc8       data     extern E:\3.46\pic18-lt\cxx-framework\src\traditional\proc\p18f46j50.asm
                  SSP1BUF   0x000fc9       data     extern E:\3.46\pic18-lt\cxx-framework\src\traditional\proc\p18f46j50.asm
                 SSP1CON1   0x000fc6       data     extern E:\3.46\pic18-lt\cxx-framework\src\traditional\proc\p18f46j50.asm
             SSP1CON1bits   0x000fc6       data     extern E:\3.46\pic18-lt\cxx-framework\src\traditional\proc\p18f46j50.asm
                 SSP1CON2   0x000fc5       data     extern E:\3.46\pic18-lt\cxx-framework\src\traditional\proc\p18f46j50.asm
             SSP1CON2bits   0x000fc5       data     extern E:\3.46\pic18-lt\cxx-framework\src\traditional\proc\p18f46j50.asm
                 SSP1STAT   0x000fc7       data     extern E:\3.46\pic18-lt\cxx-framework\src\traditional\proc\p18f46j50.asm
             SSP1STATbits   0x000fc7       data     extern E:\3.46\pic18-lt\cxx-framework\src\traditional\proc\p18f46j50.asm
                  SSP2ADD   0x000f74       data     extern E:\3.46\pic18-lt\cxx-framework\src\traditional\proc\p18f46j50.asm
              SSP2ADDbits   0x000f74       data     extern E:\3.46\pic18-lt\cxx-framework\src\traditional\proc\p18f46j50.asm
                  SSP2BUF   0x000f75       data     extern E:\3.46\pic18-lt\cxx-framework\src\traditional\proc\p18f46j50.asm
                 SSP2CON1   0x000f72       data     extern E:\3.46\pic18-lt\cxx-framework\src\traditional\proc\p18f46j50.asm
             SSP2CON1bits   0x000f72       data     extern E:\3.46\pic18-lt\cxx-framework\src\traditional\proc\p18f46j50.asm
                 SSP2CON2   0x000f71       data     extern E:\3.46\pic18-lt\cxx-framework\src\traditional\proc\p18f46j50.asm
             SSP2CON2bits   0x000f71       data     extern E:\3.46\pic18-lt\cxx-framework\src\traditional\proc\p18f46j50.asm
                 SSP2STAT   0x000f73       data     extern E:\3.46\pic18-lt\cxx-framework\src\traditional\proc\p18f46j50.asm
             SSP2STATbits   0x000f73       data     extern E:\3.46\pic18-lt\cxx-framework\src\traditional\proc\p18f46j50.asm
                   SSPADD   0x000fc8       data     extern E:\3.46\pic18-lt\cxx-framework\src\traditional\proc\p18f46j50.asm
               SSPADDbits   0x000fc8       data     extern E:\3.46\pic18-lt\cxx-framework\src\traditional\proc\p18f46j50.asm
                   SSPBUF   0x000fc9       data     extern E:\3.46\pic18-lt\cxx-framework\src\traditional\proc\p18f46j50.asm
                  SSPCON1   0x000fc6       data     extern E:\3.46\pic18-lt\cxx-framework\src\traditional\proc\p18f46j50.asm
              SSPCON1bits   0x000fc6       data     extern E:\3.46\pic18-lt\cxx-framework\src\traditional\proc\p18f46j50.asm
                  SSPCON2   0x000fc5       data     extern E:\3.46\pic18-lt\cxx-framework\src\traditional\proc\p18f46j50.asm
              SSPCON2bits   0x000fc5       data     extern E:\3.46\pic18-lt\cxx-framework\src\traditional\proc\p18f46j50.asm
                  SSPSTAT   0x000fc7       data     extern E:\3.46\pic18-lt\cxx-framework\src\traditional\proc\p18f46j50.asm
              SSPSTATbits   0x000fc7       data     extern E:\3.46\pic18-lt\cxx-framework\src\traditional\proc\p18f46j50.asm
                   STATUS   0x000fd8       data     extern E:\3.46\pic18-lt\cxx-framework\src\traditional\proc\p18f46j50.asm
               STATUSbits   0x000fd8       data     extern E:\3.46\pic18-lt\cxx-framework\src\traditional\proc\p18f46j50.asm
                   STKPTR   0x000ffc       data     extern E:\3.46\pic18-lt\cxx-framework\src\traditional\proc\p18f46j50.asm
               STKPTRbits   0x000ffc       data     extern E:\3.46\pic18-lt\cxx-framework\src\traditional\proc\p18f46j50.asm
                 SetupPkt   0x000430       data     extern C:\Projects\EggBot_GH\EBB_firmware\Microchip\USB\usb_device.c
            SolenoidDelay   0x000b58       data     static C:\Projects\EggBot_GH\EBB_firmware\app.X\source\ebb.c
            SolenoidState   0x000b57       data     static C:\Projects\EggBot_GH\EBB_firmware\app.X\source\ebb.c
      StoredEngraverPower   0x000b80       data     static C:\Projects\EggBot_GH\EBB_firmware\app.X\source\ebb.c
                    T0CON   0x000fd5       data     extern E:\3.46\pic18-lt\cxx-framework\src\traditional\proc\p18f46j50.asm
                T0CONbits   0x000fd5       data     extern E:\3.46\pic18-lt\cxx-framework\src\traditional\proc\p18f46j50.asm
                    T1CON   0x000fcd       data     extern E:\3.46\pic18-lt\cxx-framework\src\traditional\proc\p18f46j50.asm
                T1CONbits   0x000fcd       data     extern E:\3.46\pic18-lt\cxx-framework\src\traditional\proc\p18f46j50.asm
                   T1GCON   0x000f9a       data     extern E:\3.46\pic18-lt\cxx-framework\src\traditional\proc\p18f46j50.asm
               T1GCONbits   0x000f9a       data     extern E:\3.46\pic18-lt\cxx-framework\src\traditional\proc\p18f46j50.asm
                    T2CON   0x000fca       data     extern E:\3.46\pic18-lt\cxx-framework\src\traditional\proc\p18f46j50.asm
                T2CONbits   0x000fca       data     extern E:\3.46\pic18-lt\cxx-framework\src\traditional\proc\p18f46j50.asm
                    T3CON   0x000f79       data     extern E:\3.46\pic18-lt\cxx-framework\src\traditional\proc\p18f46j50.asm
                T3CONbits   0x000f79       data     extern E:\3.46\pic18-lt\cxx-framework\src\traditional\proc\p18f46j50.asm
                   T3GCON   0x000f97       data     extern E:\3.46\pic18-lt\cxx-framework\src\traditional\proc\p18f46j50.asm
               T3GCONbits   0x000f97       data     extern E:\3.46\pic18-lt\cxx-framework\src\traditional\proc\p18f46j50.asm
                    T4CON   0x000f76       data     extern E:\3.46\pic18-lt\cxx-framework\src\traditional\proc\p18f46j50.asm
                T4CONbits   0x000f76       data     extern E:\3.46\pic18-lt\cxx-framework\src\traditional\proc\p18f46j50.asm
                   TABLAT   0x000ff5       data     extern E:\3.46\pic18-lt\cxx-framework\src\traditional\proc\p18f46j50.asm
                   TBLPTR   0x000ff6       data     extern E:\3.46\pic18-lt\cxx-framework\src\traditional\proc\p18f46j50.asm
                  TBLPTRH   0x000ff7       data     extern E:\3.46\pic18-lt\cxx-framework\src\traditional\proc\p18f46j50.asm
                  TBLPTRL   0x000ff6       data     extern E:\3.46\pic18-lt\cxx-framework\src\traditional\proc\p18f46j50.asm
                  TBLPTRU   0x000ff8       data     extern E:\3.46\pic18-lt\cxx-framework\src\traditional\proc\p18f46j50.asm
                  TCLKCON   0x000f52       data     extern E:\3.46\pic18-lt\cxx-framework\src\traditional\proc\p18f46j50.asm
              TCLKCONbits   0x000f52       data     extern E:\3.46\pic18-lt\cxx-framework\src\traditional\proc\p18f46j50.asm
                    TMR0H   0x000fd7       data     extern E:\3.46\pic18-lt\cxx-framework\src\traditional\proc\p18f46j50.asm
                    TMR0L   0x000fd6       data     extern E:\3.46\pic18-lt\cxx-framework\src\traditional\proc\p18f46j50.asm
                    TMR1H   0x000fcf       data     extern E:\3.46\pic18-lt\cxx-framework\src\traditional\proc\p18f46j50.asm
                    TMR1L   0x000fce       data     extern E:\3.46\pic18-lt\cxx-framework\src\traditional\proc\p18f46j50.asm
                     TMR2   0x000fcc       data     extern E:\3.46\pic18-lt\cxx-framework\src\traditional\proc\p18f46j50.asm
                    TMR3H   0x000f7b       data     extern E:\3.46\pic18-lt\cxx-framework\src\traditional\proc\p18f46j50.asm
                    TMR3L   0x000f7a       data     extern E:\3.46\pic18-lt\cxx-framework\src\traditional\proc\p18f46j50.asm
                     TMR4   0x000f78       data     extern E:\3.46\pic18-lt\cxx-framework\src\traditional\proc\p18f46j50.asm
                      TOS   0x000ffd       data     extern E:\3.46\pic18-lt\cxx-framework\src\traditional\proc\p18f46j50.asm
                     TOSH   0x000ffe       data     extern E:\3.46\pic18-lt\cxx-framework\src\traditional\proc\p18f46j50.asm
                     TOSL   0x000ffd       data     extern E:\3.46\pic18-lt\cxx-framework\src\traditional\proc\p18f46j50.asm
                     TOSU   0x000fff       data     extern E:\3.46\pic18-lt\cxx-framework\src\traditional\proc\p18f46j50.asm
                    TRISA   0x000f92       data     extern E:\3.46\pic18-lt\cxx-framework\src\traditional\proc\p18f46j50.asm
                TRISAbits   0x000f92       data     extern E:\3.46\pic18-lt\cxx-framework\src\traditional\proc\p18f46j50.asm
                    TRISB   0x000f93       data     extern E:\3.46\pic18-lt\cxx-framework\src\traditional\proc\p18f46j50.asm
                TRISBbits   0x000f93       data     extern E:\3.46\pic18-lt\cxx-framework\src\traditional\proc\p18f46j50.asm
                    TRISC   0x000f94       data     extern E:\3.46\pic18-lt\cxx-framework\src\traditional\proc\p18f46j50.asm
                TRISCbits   0x000f94       data     extern E:\3.46\pic18-lt\cxx-framework\src\traditional\proc\p18f46j50.asm
                    TRISD   0x000f95       data     extern E:\3.46\pic18-lt\cxx-framework\src\traditional\proc\p18f46j50.asm
                TRISDbits   0x000f95       data     extern E:\3.46\pic18-lt\cxx-framework\src\traditional\proc\p18f46j50.asm
                    TRISE   0x000f96       data     extern E:\3.46\pic18-lt\cxx-framework\src\traditional\proc\p18f46j50.asm
                TRISEbits   0x000f96       data     extern E:\3.46\pic18-lt\cxx-framework\src\traditional\proc\p18f46j50.asm
                  TXADDRH   0x000f6a       data     extern E:\3.46\pic18-lt\cxx-framework\src\traditional\proc\p18f46j50.asm
              TXADDRHbits   0x000f6a       data     extern E:\3.46\pic18-lt\cxx-framework\src\traditional\proc\p18f46j50.asm
                  TXADDRL   0x000f6b       data     extern E:\3.46\pic18-lt\cxx-framework\src\traditional\proc\p18f46j50.asm
                    TXREG   0x000fae       data     extern E:\3.46\pic18-lt\cxx-framework\src\traditional\proc\p18f46j50.asm
                   TXREG1   0x000fae       data     extern E:\3.46\pic18-lt\cxx-framework\src\traditional\proc\p18f46j50.asm
                   TXREG2   0x000fa9       data     extern E:\3.46\pic18-lt\cxx-framework\src\traditional\proc\p18f46j50.asm
                    TXSTA   0x000fad       data     extern E:\3.46\pic18-lt\cxx-framework\src\traditional\proc\p18f46j50.asm
                   TXSTA1   0x000fad       data     extern E:\3.46\pic18-lt\cxx-framework\src\traditional\proc\p18f46j50.asm
               TXSTA1bits   0x000fad       data     extern E:\3.46\pic18-lt\cxx-framework\src\traditional\proc\p18f46j50.asm
                   TXSTA2   0x000fa8       data     extern E:\3.46\pic18-lt\cxx-framework\src\traditional\proc\p18f46j50.asm
               TXSTA2bits   0x000fa8       data     extern E:\3.46\pic18-lt\cxx-framework\src\traditional\proc\p18f46j50.asm
                TXSTAbits   0x000fad       data     extern E:\3.46\pic18-lt\cxx-framework\src\traditional\proc\p18f46j50.asm
                 TestMode   0x000009       data     extern C:\Projects\EggBot_GH\EBB_firmware\app.X\source\ebb.c
                    UADDR   0x000f38       data     extern E:\3.46\pic18-lt\cxx-framework\src\traditional\proc\p18f46j50.asm
                UADDRbits   0x000f38       data     extern E:\3.46\pic18-lt\cxx-framework\src\traditional\proc\p18f46j50.asm
                     UCFG   0x000f39       data     extern E:\3.46\pic18-lt\cxx-framework\src\traditional\proc\p18f46j50.asm
                 UCFGbits   0x000f39       data     extern E:\3.46\pic18-lt\cxx-framework\src\traditional\proc\p18f46j50.asm
                     UCON   0x000f65       data     extern E:\3.46\pic18-lt\cxx-framework\src\traditional\proc\p18f46j50.asm
                 UCONbits   0x000f65       data     extern E:\3.46\pic18-lt\cxx-framework\src\traditional\proc\p18f46j50.asm
                     UEIE   0x000f37       data     extern E:\3.46\pic18-lt\cxx-framework\src\traditional\proc\p18f46j50.asm
                 UEIEbits   0x000f37       data     extern E:\3.46\pic18-lt\cxx-framework\src\traditional\proc\p18f46j50.asm
                     UEIR   0x000f63       data     extern E:\3.46\pic18-lt\cxx-framework\src\traditional\proc\p18f46j50.asm
                 UEIRbits   0x000f63       data     extern E:\3.46\pic18-lt\cxx-framework\src\traditional\proc\p18f46j50.asm
                     UEP0   0x000f26       data     extern E:\3.46\pic18-lt\cxx-framework\src\traditional\proc\p18f46j50.asm
                 UEP0bits   0x000f26       data     extern E:\3.46\pic18-lt\cxx-framework\src\traditional\proc\p18f46j50.asm
                     UEP1   0x000f27       data     extern E:\3.46\pic18-lt\cxx-framework\src\traditional\proc\p18f46j50.asm
                    UEP10   0x000f30       data     extern E:\3.46\pic18-lt\cxx-framework\src\traditional\proc\p18f46j50.asm
                UEP10bits   0x000f30       data     extern E:\3.46\pic18-lt\cxx-framework\src\traditional\proc\p18f46j50.asm
                    UEP11   0x000f31       data     extern E:\3.46\pic18-lt\cxx-framework\src\traditional\proc\p18f46j50.asm
                UEP11bits   0x000f31       data     extern E:\3.46\pic18-lt\cxx-framework\src\traditional\proc\p18f46j50.asm
                    UEP12   0x000f32       data     extern E:\3.46\pic18-lt\cxx-framework\src\traditional\proc\p18f46j50.asm
                UEP12bits   0x000f32       data     extern E:\3.46\pic18-lt\cxx-framework\src\traditional\proc\p18f46j50.asm
                    UEP13   0x000f33       data     extern E:\3.46\pic18-lt\cxx-framework\src\traditional\proc\p18f46j50.asm
                UEP13bits   0x000f33       data     extern E:\3.46\pic18-lt\cxx-framework\src\traditional\proc\p18f46j50.asm
                    UEP14   0x000f34       data     extern E:\3.46\pic18-lt\cxx-framework\src\traditional\proc\p18f46j50.asm
                UEP14bits   0x000f34       data     extern E:\3.46\pic18-lt\cxx-framework\src\traditional\proc\p18f46j50.asm
                    UEP15   0x000f35       data     extern E:\3.46\pic18-lt\cxx-framework\src\traditional\proc\p18f46j50.asm
                UEP15bits   0x000f35       data     extern E:\3.46\pic18-lt\cxx-framework\src\traditional\proc\p18f46j50.asm
                 UEP1bits   0x000f27       data     extern E:\3.46\pic18-lt\cxx-framework\src\traditional\proc\p18f46j50.asm
                     UEP2   0x000f28       data     extern E:\3.46\pic18-lt\cxx-framework\src\traditional\proc\p18f46j50.asm
                 UEP2bits   0x000f28       data     extern E:\3.46\pic18-lt\cxx-framework\src\traditional\proc\p18f46j50.asm
                     UEP3   0x000f29       data     extern E:\3.46\pic18-lt\cxx-framework\src\traditional\proc\p18f46j50.asm
                 UEP3bits   0x000f29       data     extern E:\3.46\pic18-lt\cxx-framework\src\traditional\proc\p18f46j50.asm
                     UEP4   0x000f2a       data     extern E:\3.46\pic18-lt\cxx-framework\src\traditional\proc\p18f46j50.asm
                 UEP4bits   0x000f2a       data     extern E:\3.46\pic18-lt\cxx-framework\src\traditional\proc\p18f46j50.asm
                     UEP5   0x000f2b       data     extern E:\3.46\pic18-lt\cxx-framework\src\traditional\proc\p18f46j50.asm
                 UEP5bits   0x000f2b       data     extern E:\3.46\pic18-lt\cxx-framework\src\traditional\proc\p18f46j50.asm
                     UEP6   0x000f2c       data     extern E:\3.46\pic18-lt\cxx-framework\src\traditional\proc\p18f46j50.asm
                 UEP6bits   0x000f2c       data     extern E:\3.46\pic18-lt\cxx-framework\src\traditional\proc\p18f46j50.asm
                     UEP7   0x000f2d       data     extern E:\3.46\pic18-lt\cxx-framework\src\traditional\proc\p18f46j50.asm
                 UEP7bits   0x000f2d       data     extern E:\3.46\pic18-lt\cxx-framework\src\traditional\proc\p18f46j50.asm
                     UEP8   0x000f2e       data     extern E:\3.46\pic18-lt\cxx-framework\src\traditional\proc\p18f46j50.asm
                 UEP8bits   0x000f2e       data     extern E:\3.46\pic18-lt\cxx-framework\src\traditional\proc\p18f46j50.asm
                     UEP9   0x000f2f       data     extern E:\3.46\pic18-lt\cxx-framework\src\traditional\proc\p18f46j50.asm
                 UEP9bits   0x000f2f       data     extern E:\3.46\pic18-lt\cxx-framework\src\traditional\proc\p18f46j50.asm
                     UFRM   0x000f60       data     extern E:\3.46\pic18-lt\cxx-framework\src\traditional\proc\p18f46j50.asm
                    UFRMH   0x000f61       data     extern E:\3.46\pic18-lt\cxx-framework\src\traditional\proc\p18f46j50.asm
                UFRMHbits   0x000f61       data     extern E:\3.46\pic18-lt\cxx-framework\src\traditional\proc\p18f46j50.asm
                    UFRML   0x000f60       data     extern E:\3.46\pic18-lt\cxx-framework\src\traditional\proc\p18f46j50.asm
                UFRMLbits   0x000f60       data     extern E:\3.46\pic18-lt\cxx-framework\src\traditional\proc\p18f46j50.asm
                      UIE   0x000f36       data     extern E:\3.46\pic18-lt\cxx-framework\src\traditional\proc\p18f46j50.asm
                  UIEbits   0x000f36       data     extern E:\3.46\pic18-lt\cxx-framework\src\traditional\proc\p18f46j50.asm
                      UIR   0x000f62       data     extern E:\3.46\pic18-lt\cxx-framework\src\traditional\proc\p18f46j50.asm
                  UIRbits   0x000f62       data     extern E:\3.46\pic18-lt\cxx-framework\src\traditional\proc\p18f46j50.asm
            USART1_Status   0x0005ff       data     extern E:\3.46\pic18-lt\cxx-framework\src\pmc_common\USART\u1defs.c
   USBActiveConfiguration   0x0001c4       data     extern C:\Projects\EggBot_GH\EBB_firmware\Microchip\USB\usb_device.c
    USBAlternateInterface   0x0001c5       data     extern C:\Projects\EggBot_GH\EBB_firmware\Microchip\USB\usb_device.c
        USBBusIsSuspended   0x0001e7       data     extern C:\Projects\EggBot_GH\EBB_firmware\Microchip\USB\usb_device.c
USBDeferINDataStagePackets   0x0001f5       data     extern C:\Projects\EggBot_GH\EBB_firmware\Microchip\USB\usb_device.c
USBDeferOUTDataStagePackets   0x0001f6       data     extern C:\Projects\EggBot_GH\EBB_firmware\Microchip\USB\usb_device.c
USBDeferStatusStagePacket   0x0001f2       data     extern C:\Projects\EggBot_GH\EBB_firmware\Microchip\USB\usb_device.c
           USBDeviceState   0x0001c3       data     extern C:\Projects\EggBot_GH\EBB_firmware\Microchip\USB\usb_device.c
USBStatusStageEnabledFlag1   0x0001f3       data     extern C:\Projects\EggBot_GH\EBB_firmware\Microchip\USB\usb_device.c
USBStatusStageEnabledFlag2   0x0001f4       data     extern C:\Projects\EggBot_GH\EBB_firmware\Microchip\USB\usb_device.c
USBStatusStageTimeoutCounter   0x0001f1       data     extern C:\Projects\EggBot_GH\EBB_firmware\Microchip\USB\usb_device.c
               USB_SD_Ptr   0x0002f6       data     extern C:\Projects\EggBot_GH\EBB_firmware\app.X\source\usb_descriptors.c
                    USTAT   0x000f64       data     extern E:\3.46\pic18-lt\cxx-framework\src\traditional\proc\p18f46j50.asm
                USTATbits   0x000f64       data     extern E:\3.46\pic18-lt\cxx-framework\src\traditional\proc\p18f46j50.asm
                USTATcopy   0x0001e8       data     extern C:\Projects\EggBot_GH\EBB_firmware\Microchip\USB\usb_device.c
              UseAltPause   0x000008       data     static C:\Projects\EggBot_GH\EBB_firmware\app.X\source\ebb.c
                   WDTCON   0x000fc0       data     extern E:\3.46\pic18-lt\cxx-framework\src\traditional\proc\p18f46j50.asm
               WDTCONbits   0x000fc0       data     extern E:\3.46\pic18-lt\cxx-framework\src\traditional\proc\p18f46j50.asm
                     WREG   0x000fe8       data     extern E:\3.46\pic18-lt\cxx-framework\src\traditional\proc\p18f46j50.asm
                 __AARGB0   0x00002c       data     extern E:\3.46\pic18-lt\cxx-framework\src\traditional\math\aarg.asm
                 __AARGB1   0x00002b       data     extern E:\3.46\pic18-lt\cxx-framework\src\traditional\math\aarg.asm
                 __AARGB2   0x00002a       data     extern E:\3.46\pic18-lt\cxx-framework\src\traditional\math\aarg.asm
                 __AARGB3   0x000029       data     extern E:\3.46\pic18-lt\cxx-framework\src\traditional\math\aarg.asm
                 __AARGB4   0x000028       data     extern E:\3.46\pic18-lt\cxx-framework\src\traditional\math\aarg.asm
                 __AARGB5   0x000027       data     extern E:\3.46\pic18-lt\cxx-framework\src\traditional\math\aarg.asm
                 __AARGB6   0x000026       data     extern E:\3.46\pic18-lt\cxx-framework\src\traditional\math\aarg.asm
                 __AARGB7   0x000025       data     extern E:\3.46\pic18-lt\cxx-framework\src\traditional\math\aarg.asm
                   __AEXP   0x00002d       data     extern E:\3.46\pic18-lt\cxx-framework\src\traditional\math\aarg.asm
                 __BARGB0   0x000031       data     extern E:\3.46\pic18-lt\cxx-framework\src\traditional\math\barg.asm
                 __BARGB1   0x000030       data     extern E:\3.46\pic18-lt\cxx-framework\src\traditional\math\barg.asm
                 __BARGB2   0x00002f       data     extern E:\3.46\pic18-lt\cxx-framework\src\traditional\math\barg.asm
                 __BARGB3   0x00002e       data     extern E:\3.46\pic18-lt\cxx-framework\src\traditional\math\barg.asm
                   __BEXP   0x000032       data     extern E:\3.46\pic18-lt\cxx-framework\src\traditional\math\barg.asm
                __FPFLAGS   0x000024       data     extern E:\3.46\pic18-lt\cxx-framework\src\traditional\math\cmath18.asm
            __FPFLAGSbits   0x000024       data     extern E:\3.46\pic18-lt\cxx-framework\src\traditional\math\cmath18.asm
                  __REMB0   0x000028       data     extern E:\3.46\pic18-lt\cxx-framework\src\traditional\math\aarg.asm
                  __REMB1   0x000027       data     extern E:\3.46\pic18-lt\cxx-framework\src\traditional\math\aarg.asm
                  __REMB2   0x000026       data     extern E:\3.46\pic18-lt\cxx-framework\src\traditional\math\aarg.asm
                  __REMB3   0x000025       data     extern E:\3.46\pic18-lt\cxx-framework\src\traditional\math\aarg.asm
                  __tmp_0   0x000033       data     static C:\Projects\EggBot_GH\EBB_firmware\app.X\source\RCServo2.c
                  __tmp_0   0x000033       data     static C:\Projects\EggBot_GH\EBB_firmware\app.X\source\main.c
                  __tmp_0   0x000033       data     static C:\Projects\EggBot_GH\EBB_firmware\app.X\source\ebb.c
                  __tmp_0   0x000033       data     static C:\Projects\EggBot_GH\EBB_firmware\Microchip\USB\CDC Device Driver\usb_function_cdc.c
                  __tmp_0   0x000033       data     static C:\Projects\EggBot_GH\EBB_firmware\Microchip\USB\usb_device.c
                  __tmp_0   0x000033       data     static E:\3.46\pic18-lt\cxx-framework\src\pmc_common\Flash\EraseFlash.c
                  __tmp_0   0x000033       data     static E:\3.46\pic18-lt\cxx-framework\src\pmc_common\USART\u1open.c
                  __tmp_0   0x000033       data     static E:\3.46\pic18-lt\cxx-framework\src\pmc_common\Flash\ReadFlash.c
                  __tmp_0   0x000033       data     static C:\Projects\EggBot_GH\EBB_firmware\app.X\source\ebb_print.c
                  __tmp_0   0x000033       data     static C:\Projects\EggBot_GH\EBB_firmware\app.X\source\UBW.c
                  __tmp_0   0x000033       data     static E:\3.46\pic18-lt\cxx-framework\src\pmc_common\Flash\WriteBytesFlash.c
                  __tmp_1   0x00003b       data     static C:\Projects\EggBot_GH\EBB_firmware\app.X\source\UBW.c
                  __tmp_1   0x00003f       data     static C:\Projects\EggBot_GH\EBB_firmware\app.X\source\ebb.c
                acc_union   0x0001af       data     static C:\Projects\EggBot_GH\EBB_firmware\app.X\source\ebb.c
               button_ctr   0x0005ee       data     static C:\Projects\EggBot_GH\EBB_firmware\app.X\source\UBW.c
             button_state   0x0005ed       data     static C:\Projects\EggBot_GH\EBB_firmware\app.X\source\UBW.c
              cdc_data_rx   0x000540       data     extern C:\Projects\EggBot_GH\EBB_firmware\Microchip\USB\CDC Device Driver\usb_function_cdc.c
              cdc_data_tx   0x000500       data     extern C:\Projects\EggBot_GH\EBB_firmware\Microchip\USB\CDC Device Driver\usb_function_cdc.c
             cdc_mem_type   0x000596       data     extern C:\Projects\EggBot_GH\EBB_firmware\Microchip\USB\CDC Device Driver\usb_function_cdc.c
               cdc_notice   0x000587       data     extern C:\Projects\EggBot_GH\EBB_firmware\Microchip\USB\CDC Device Driver\usb_function_cdc.c
               cdc_rx_len   0x00058f       data     extern C:\Projects\EggBot_GH\EBB_firmware\Microchip\USB\CDC Device Driver\usb_function_cdc.c
            cdc_trf_state   0x000590       data     extern C:\Projects\EggBot_GH\EBB_firmware\Microchip\USB\CDC Device Driver\usb_function_cdc.c
               cdc_tx_len   0x000595       data     extern C:\Projects\EggBot_GH\EBB_firmware\Microchip\USB\CDC Device Driver\usb_function_cdc.c
             comd_counter   0x000b55       data     extern C:\Projects\EggBot_GH\EBB_firmware\app.X\source\ebb.c
     controlTransferState   0x0001d7       data     extern C:\Projects\EggBot_GH\EBB_firmware\Microchip\USB\usb_device.c
    control_signal_bitmap   0x00059b       data     extern C:\Projects\EggBot_GH\EBB_firmware\Microchip\USB\CDC Device Driver\usb_function_cdc.c
                curr_byte   0x0005f6       data     static C:\MCC18\src\traditional\startup\c018i.c
               curr_entry   0x0005f8       data     static C:\MCC18\src\traditional\startup\c018i.c
                 data_ptr   0x0005fa       data     static C:\MCC18\src\traditional\startup\c018i.c
              delay_count   0x0002fe       data     static C:\Projects\EggBot_GH\EBB_firmware\app.X\source\main.c
dummy_encapsulated_cmd_response   0x0005a0       data     extern C:\Projects\EggBot_GH\EBB_firmware\Microchip\USB\CDC Device Driver\usb_function_cdc.c
          endpoint_number   0x0001e9       data     extern C:\Projects\EggBot_GH\EBB_firmware\Microchip\USB\usb_device.c
               ep_data_in   0x0001eb       data     extern C:\Projects\EggBot_GH\EBB_firmware\Microchip\USB\usb_device.c
              ep_data_out   0x0001ee       data     extern C:\Projects\EggBot_GH\EBB_firmware\Microchip\USB\usb_device.c
               error_byte   0x000097       data     extern C:\Projects\EggBot_GH\EBB_firmware\app.X\source\UBW.c
             esc_sequence   0x0005e9       data     static C:\Projects\EggBot_GH\EBB_firmware\app.X\source\UBW.c
    gAutomaticMotorEnable   0x0000d9       data     extern C:\Projects\EggBot_GH\EBB_firmware\app.X\source\UBW.c
 gCommandChecksumRequired   0x0000df       data     extern C:\Projects\EggBot_GH\EBB_firmware\app.X\source\UBW.c
           gCommand_Char1   0x0000da       data     extern C:\Projects\EggBot_GH\EBB_firmware\app.X\source\UBW.c
           gCommand_Char2   0x0000db       data     extern C:\Projects\EggBot_GH\EBB_firmware\app.X\source\UBW.c
       gCurrentFIFOLength   0x000018       data     extern C:\Projects\EggBot_GH\EBB_firmware\app.X\source\ebb.c
        gDeviceStringName   0x0000e8       data     static C:\Projects\EggBot_GH\EBB_firmware\app.X\source\UBW.c
             gFIFOCommand   0x000017       data     static C:\Projects\EggBot_GH\EBB_firmware\app.X\source\ebb.c
                  gFIFOIn   0x000015       data     extern C:\Projects\EggBot_GH\EBB_firmware\app.X\source\ebb.c
              gFIFOLength   0x000014       data     extern C:\Projects\EggBot_GH\EBB_firmware\app.X\source\ebb.c
                 gFIFOOut   0x000016       data     extern C:\Projects\EggBot_GH\EBB_firmware\app.X\source\ebb.c
gISRPositionForThisCommand   0x0001bf       data     static C:\Projects\EggBot_GH\EBB_firmware\app.X\source\ebb.c
gISRStepCountForThisCommand   0x0001bb       data     static C:\Projects\EggBot_GH\EBB_firmware\app.X\source\ebb.c
gISRTickCountForThisCommand   0x0001b7       data     static C:\Projects\EggBot_GH\EBB_firmware\app.X\source\ebb.c
             gLimitChecks   0x000b83       data     extern C:\Projects\EggBot_GH\EBB_firmware\app.X\source\ebb.c
         gLimitSwitchMask   0x00000c       data     extern C:\Projects\EggBot_GH\EBB_firmware\app.X\source\ebb.c
        gLimitSwitchPortB   0x0000dc       data     extern C:\Projects\EggBot_GH\EBB_firmware\app.X\source\UBW.c
      gLimitSwitchReplies   0x0000dd       data     extern C:\Projects\EggBot_GH\EBB_firmware\app.X\source\UBW.c
 gLimitSwitchReplyPrinted   0x0000de       data     extern C:\Projects\EggBot_GH\EBB_firmware\app.X\source\UBW.c
       gLimitSwitchTarget   0x00000d       data     extern C:\Projects\EggBot_GH\EBB_firmware\app.X\source\ebb.c
    gLimitSwitchTriggered   0x00000e       data     extern C:\Projects\EggBot_GH\EBB_firmware\app.X\source\ebb.c
                gMoveTemp   0x000b24       data     static C:\Projects\EggBot_GH\EBB_firmware\app.X\source\ebb.c
               gOutputStr   0x000171       data     static C:\Projects\EggBot_GH\EBB_firmware\app.X\source\ebb_print.c
                     gPos   0x00017d       data     static C:\Projects\EggBot_GH\EBB_firmware\app.X\source\ebb_print.c
                  gRC2Ptr   0x00007d       data     extern C:\Projects\EggBot_GH\EBB_firmware\app.X\source\RCServo2.c
              gRC2RPORPtr   0x000080       data     extern C:\Projects\EggBot_GH\EBB_firmware\app.X\source\RCServo2.c
                  gRC2RPn   0x000069       data     extern C:\Projects\EggBot_GH\EBB_firmware\app.X\source\RCServo2.c
                 gRC2Rate   0x000075       data     extern C:\Projects\EggBot_GH\EBB_firmware\app.X\source\RCServo2.c
               gRC2SlotMS   0x00007f       data     extern C:\Projects\EggBot_GH\EBB_firmware\app.X\source\RCServo2.c
                gRC2Slots   0x00007e       data     extern C:\Projects\EggBot_GH\EBB_firmware\app.X\source\RCServo2.c
               gRC2Target   0x00006d       data     extern C:\Projects\EggBot_GH\EBB_firmware\app.X\source\RCServo2.c
                gRC2Value   0x000061       data     extern C:\Projects\EggBot_GH\EBB_firmware\app.X\source\RCServo2.c
            gRC2msCounter   0x000060       data     extern C:\Projects\EggBot_GH\EBB_firmware\app.X\source\RCServo2.c
gRCServoPoweroffCounterMS   0x0000d1       data     extern C:\Projects\EggBot_GH\EBB_firmware\app.X\source\UBW.c
gRCServoPoweroffCounterReloadMS   0x0000d5       data     extern C:\Projects\EggBot_GH\EBB_firmware\app.X\source\UBW.c
         gRedLEDEmptyFIFO   0x000006       data     extern C:\Projects\EggBot_GH\EBB_firmware\app.X\source\ebb.c
              gSL_Storage   0x000b5f       data     static C:\Projects\EggBot_GH\EBB_firmware\app.X\source\ebb.c
          gStackHighWater   0x0000e0       data     static C:\Projects\EggBot_GH\EBB_firmware\app.X\source\UBW.c
gStandardizedCommandFormat   0x000b84       data     extern C:\Projects\EggBot_GH\EBB_firmware\app.X\source\ebb.c
               gTmpAccel1   0x000b9d       data     static C:\Projects\EggBot_GH\EBB_firmware\app.X\source\ebb.c
               gTmpAccel2   0x000ba1       data     static C:\Projects\EggBot_GH\EBB_firmware\app.X\source\ebb.c
            gTmpClearAccs   0x000bad       data     static C:\Projects\EggBot_GH\EBB_firmware\app.X\source\ebb.c
           gTmpDurationMS   0x000b85       data     static C:\Projects\EggBot_GH\EBB_firmware\app.X\source\ebb.c
            gTmpIntervals   0x000b89       data     static C:\Projects\EggBot_GH\EBB_firmware\app.X\source\ebb.c
                gTmpJerk1   0x000ba5       data     static C:\Projects\EggBot_GH\EBB_firmware\app.X\source\ebb.c
                gTmpJerk2   0x000ba9       data     static C:\Projects\EggBot_GH\EBB_firmware\app.X\source\ebb.c
                gTmpRate1   0x000b8d       data     static C:\Projects\EggBot_GH\EBB_firmware\app.X\source\ebb.c
                gTmpRate2   0x000b91       data     static C:\Projects\EggBot_GH\EBB_firmware\app.X\source\ebb.c
               gTmpSteps1   0x000b95       data     static C:\Projects\EggBot_GH\EBB_firmware\app.X\source\ebb.c
               gTmpSteps2   0x000b99       data     static C:\Projects\EggBot_GH\EBB_firmware\app.X\source\ebb.c
           gUseRCPenServo   0x000005       data     static C:\Projects\EggBot_GH\EBB_firmware\app.X\source\ebb.c
             gUseSolenoid   0x000b82       data     extern C:\Projects\EggBot_GH\EBB_firmware\app.X\source\ebb.c
                g_BO_init   0x0000c3       data     extern C:\Projects\EggBot_GH\EBB_firmware\app.X\source\UBW.c
        g_BO_strobe_delay   0x0000c7       data     extern C:\Projects\EggBot_GH\EBB_firmware\app.X\source\UBW.c
         g_BO_strobe_mask   0x0000c4       data     extern C:\Projects\EggBot_GH\EBB_firmware\app.X\source\UBW.c
          g_BO_wait_delay   0x0000c6       data     extern C:\Projects\EggBot_GH\EBB_firmware\app.X\source\UBW.c
           g_BO_wait_mask   0x0000c5       data     extern C:\Projects\EggBot_GH\EBB_firmware\app.X\source\UBW.c
      g_PowerDropDetected   0x0000a7       data     extern C:\Projects\EggBot_GH\EBB_firmware\app.X\source\UBW.c
g_PowerMonitorThresholdADC   0x0000a5       data     extern C:\Projects\EggBot_GH\EBB_firmware\app.X\source\UBW.c
            g_RC_next_ptr   0x000099       data     extern C:\Projects\EggBot_GH\EBB_firmware\app.X\source\UBW.c
          g_RC_primed_ptr   0x000098       data     extern C:\Projects\EggBot_GH\EBB_firmware\app.X\source\UBW.c
               g_RC_state   0x000129       data     extern C:\Projects\EggBot_GH\EBB_firmware\app.X\source\UBW.c
          g_RC_timing_ptr   0x00009a       data     extern C:\Projects\EggBot_GH\EBB_firmware\app.X\source\UBW.c
               g_RC_value   0x000141       data     extern C:\Projects\EggBot_GH\EBB_firmware\app.X\source\UBW.c
                 g_RX_buf   0x000300       data     extern C:\Projects\EggBot_GH\EBB_firmware\app.X\source\UBW.c
              g_RX_buf_in   0x0000ca       data     extern C:\Projects\EggBot_GH\EBB_firmware\app.X\source\UBW.c
             g_RX_buf_out   0x0000cb       data     extern C:\Projects\EggBot_GH\EBB_firmware\app.X\source\UBW.c
         g_RX_command_buf   0x000240       data     extern C:\Projects\EggBot_GH\EBB_firmware\app.X\source\UBW.c
g_StepperDisableCountdownS   0x0000ad       data     extern C:\Projects\EggBot_GH\EBB_firmware\app.X\source\UBW.c
g_StepperDisableSecondCounter   0x0000ab       data     extern C:\Projects\EggBot_GH\EBB_firmware\app.X\source\UBW.c
    g_StepperDisableState   0x0000a8       data     extern C:\Projects\EggBot_GH\EBB_firmware\app.X\source\UBW.c
 g_StepperDisableTimeoutS   0x0000a9       data     extern C:\Projects\EggBot_GH\EBB_firmware\app.X\source\UBW.c
                 g_TX_buf   0x000200       data     extern C:\Projects\EggBot_GH\EBB_firmware\app.X\source\UBW.c
              g_TX_buf_in   0x0000c8       data     extern C:\Projects\EggBot_GH\EBB_firmware\app.X\source\UBW.c
             g_TX_buf_out   0x0000c9       data     extern C:\Projects\EggBot_GH\EBB_firmware\app.X\source\UBW.c
           g_USART_RX_buf   0x0000af       data     extern C:\Projects\EggBot_GH\EBB_firmware\app.X\source\UBW.c
        g_USART_RX_buf_in   0x0000cc       data     extern C:\Projects\EggBot_GH\EBB_firmware\app.X\source\UBW.c
       g_USART_RX_buf_out   0x0000cd       data     extern C:\Projects\EggBot_GH\EBB_firmware\app.X\source\UBW.c
           g_USART_TX_buf   0x0000b9       data     extern C:\Projects\EggBot_GH\EBB_firmware\app.X\source\UBW.c
        g_USART_TX_buf_in   0x0000ce       data     extern C:\Projects\EggBot_GH\EBB_firmware\app.X\source\UBW.c
       g_USART_TX_buf_out   0x0000cf       data     extern C:\Projects\EggBot_GH\EBB_firmware\app.X\source\UBW.c
             g_ack_enable   0x0000d0       data     extern C:\Projects\EggBot_GH\EBB_firmware\app.X\source\UBW.c
             g_servo2_RPn   0x00008a       data     extern C:\Projects\EggBot_GH\EBB_firmware\app.X\source\RCServo2.c
             g_servo2_max   0x000082       data     extern C:\Projects\EggBot_GH\EBB_firmware\app.X\source\RCServo2.c
             g_servo2_min   0x000084       data     extern C:\Projects\EggBot_GH\EBB_firmware\app.X\source\RCServo2.c
       g_servo2_rate_down   0x000088       data     extern C:\Projects\EggBot_GH\EBB_firmware\app.X\source\RCServo2.c
         g_servo2_rate_up   0x000086       data     extern C:\Projects\EggBot_GH\EBB_firmware\app.X\source\RCServo2.c
       globalStepCounter1   0x00001b       data     static C:\Projects\EggBot_GH\EBB_firmware\app.X\source\ebb.c
       globalStepCounter2   0x00001f       data     static C:\Projects\EggBot_GH\EBB_firmware\app.X\source\ebb.c
                        i   0x00017e       data     static C:\Projects\EggBot_GH\EBB_firmware\app.X\source\ebb_print.c
                  inPipes   0x0001d8       data     extern C:\Projects\EggBot_GH\EBB_firmware\Microchip\USB\usb_device.c
                    in_cr   0x0005ec       data     static C:\Projects\EggBot_GH\EBB_firmware\app.X\source\UBW.c
                   in_esc   0x0005e8       data     static C:\Projects\EggBot_GH\EBB_firmware\app.X\source\UBW.c
                    isr_i   0x000001       data     static C:\Projects\EggBot_GH\EBB_firmware\app.X\source\ebb.c
             last_command   0x0005a8       data     static C:\Projects\EggBot_GH\EBB_firmware\app.X\source\UBW.c
           last_fifo_size   0x0000f9       data     static C:\Projects\EggBot_GH\EBB_firmware\app.X\source\UBW.c
              line_coding   0x000580       data     extern C:\Projects\EggBot_GH\EBB_firmware\Microchip\USB\CDC Device Driver\usb_function_cdc.c
                      nib   0x000013       data     static C:\Projects\EggBot_GH\EBB_firmware\app.X\source\ebb.c
                 outPipes   0x0001dd       data     extern C:\Projects\EggBot_GH\EBB_firmware\Microchip\USB\usb_device.c
   pBDTEntryEP0OutCurrent   0x0001c6       data     extern C:\Projects\EggBot_GH\EBB_firmware\Microchip\USB\usb_device.c
      pBDTEntryEP0OutNext   0x0001c8       data     extern C:\Projects\EggBot_GH\EBB_firmware\Microchip\USB\usb_device.c
              pBDTEntryIn   0x0001d0       data     extern C:\Projects\EggBot_GH\EBB_firmware\Microchip\USB\usb_device.c
             pBDTEntryOut   0x0001ca       data     extern C:\Projects\EggBot_GH\EBB_firmware\Microchip\USB\usb_device.c
                  pCDCDst   0x000593       data     extern C:\Projects\EggBot_GH\EBB_firmware\Microchip\USB\CDC Device Driver\usb_function_cdc.c
                  pCDCSrc   0x000591       data     extern C:\Projects\EggBot_GH\EBB_firmware\Microchip\USB\CDC Device Driver\usb_function_cdc.c
                     pDst   0x0001e4       data     extern C:\Projects\EggBot_GH\EBB_firmware\Microchip\USB\usb_device.c
                     prom   0x0005f3       data     static C:\MCC18\src\traditional\startup\c018i.c
                    sd000   0x000280       data     extern C:\Projects\EggBot_GH\EBB_firmware\app.X\source\usb_descriptors.c
                    sd001   0x000284       data     extern C:\Projects\EggBot_GH\EBB_firmware\app.X\source\usb_descriptors.c
                    sd002   0x00029c       data     extern C:\Projects\EggBot_GH\EBB_firmware\app.X\source\usb_descriptors.c
                    sd003   0x0002d4       data     extern C:\Projects\EggBot_GH\EBB_firmware\app.X\source\usb_descriptors.c
        shortPacketStatus   0x0001d6       data     extern C:\Projects\EggBot_GH\EBB_firmware\Microchip\USB\usb_device.c
         tempStackPointer   0x0000e6       data     static C:\Projects\EggBot_GH\EBB_firmware\app.X\source\UBW.c
     tempStackPointerHigh   0x0000e4       data     static C:\Projects\EggBot_GH\EBB_firmware\app.X\source\UBW.c
      tempStackPointerLow   0x0000e5       data     static C:\Projects\EggBot_GH\EBB_firmware\app.X\source\UBW.c
     time_between_updates   0x00008b       data     extern C:\Projects\EggBot_GH\EBB_firmware\app.X\source\UBW.c
                       xx   0x00000f       data     static C:\Projects\EggBot_GH\EBB_firmware\app.X\source\ebb.c



                              Symbols - Sorted by Address
                     Name    Address   Location    Storage File                     
                ---------  ---------  ---------  --------- ---------                
                   _reset   0x001000    program     extern C:\Projects\EggBot_GH\EBB_firmware\app.X\source\main.c
       ___return_lbl00000   0x001004    program     static                          
        Remapped_High_ISR   0x001008    program     extern C:\Projects\EggBot_GH\EBB_firmware\app.X\source\main.c
       ___return_lbl00001   0x00100c    program     static                          
         Remapped_Low_ISR   0x001018    program     extern C:\Projects\EggBot_GH\EBB_firmware\app.X\source\main.c
       ___return_lbl00002   0x00101c    program     static                          
                 high_ISR   0x001050    program     extern C:\Projects\EggBot_GH\EBB_firmware\app.X\source\ebb.c
                 EBB_Init   0x001b68    program     extern C:\Projects\EggBot_GH\EBB_firmware\app.X\source\ebb.c
          ___for_lbl00415   0x001b74    program     static                          
          ___for_lbl00413   0x001bd0    program     static                          
          ___for_lbl00414   0x001bd4    program     static                          
          ___for_lbl00418   0x001cac    program     static                          
          ___for_lbl00416   0x001cc0    program     static                          
          ___for_lbl00417   0x001cc4    program     static                          
       ___return_lbl00412   0x001d00    program     static                          
          parse_SC_packet   0x001d0a    program     extern C:\Projects\EggBot_GH\EBB_firmware\app.X\source\ebb.c
          parse_LM_packet   0x001e90    program     extern C:\Projects\EggBot_GH\EBB_firmware\app.X\source\ebb.c
          parse_L3_packet   0x001eee    program     extern C:\Projects\EggBot_GH\EBB_firmware\app.X\source\ebb.c
          parse_T3_packet   0x001f64    program     extern C:\Projects\EggBot_GH\EBB_firmware\app.X\source\ebb.c
          parse_LT_packet   0x001fa4    program     extern C:\Projects\EggBot_GH\EBB_firmware\app.X\source\ebb.c
   process_low_level_move   0x001fe0    program     static C:\Projects\EggBot_GH\EBB_firmware\app.X\source\ebb.c
          parse_SM_packet   0x0023ca    program     extern C:\Projects\EggBot_GH\EBB_firmware\app.X\source\ebb.c
          parse_HM_packet   0x0024f8    program     extern C:\Projects\EggBot_GH\EBB_firmware\app.X\source\ebb.c
          parse_XM_packet   0x00289c    program     extern C:\Projects\EggBot_GH\EBB_firmware\app.X\source\ebb.c
process_simple_motor_move   0x0029fa    program     static C:\Projects\EggBot_GH\EBB_firmware\app.X\source\ebb.c
          parse_ES_packet   0x002d3a    program     extern C:\Projects\EggBot_GH\EBB_firmware\app.X\source\ebb.c
          parse_QP_packet   0x002dd4    program     extern C:\Projects\EggBot_GH\EBB_firmware\app.X\source\ebb.c
          parse_QE_packet   0x002e06    program     extern C:\Projects\EggBot_GH\EBB_firmware\app.X\source\ebb.c
          parse_TP_packet   0x002ed0    program     extern C:\Projects\EggBot_GH\EBB_firmware\app.X\source\ebb.c
          parse_SP_packet   0x002f18    program     extern C:\Projects\EggBot_GH\EBB_firmware\app.X\source\ebb.c
               process_SP   0x002f8a    program     extern C:\Projects\EggBot_GH\EBB_firmware\app.X\source\ebb.c
          parse_EM_packet   0x003002    program     extern C:\Projects\EggBot_GH\EBB_firmware\app.X\source\ebb.c
          parse_NI_packet   0x00307e    program     extern C:\Projects\EggBot_GH\EBB_firmware\app.X\source\ebb.c
          parse_ND_packet   0x0030a4    program     extern C:\Projects\EggBot_GH\EBB_firmware\app.X\source\ebb.c
          parse_SN_packet   0x0030c2    program     extern C:\Projects\EggBot_GH\EBB_firmware\app.X\source\ebb.c
          parse_QN_packet   0x0030fe    program     extern C:\Projects\EggBot_GH\EBB_firmware\app.X\source\ebb.c
          parse_SL_packet   0x003122    program     extern C:\Projects\EggBot_GH\EBB_firmware\app.X\source\ebb.c
          parse_QL_packet   0x00315a    program     extern C:\Projects\EggBot_GH\EBB_firmware\app.X\source\ebb.c
          parse_QB_packet   0x00319e    program     extern C:\Projects\EggBot_GH\EBB_firmware\app.X\source\ebb.c
          parse_QC_packet   0x0031c6    program     extern C:\Projects\EggBot_GH\EBB_firmware\app.X\source\ebb.c
          parse_QG_packet   0x0031f4    program     extern C:\Projects\EggBot_GH\EBB_firmware\app.X\source\ebb.c
          parse_SE_packet   0x003258    program     extern C:\Projects\EggBot_GH\EBB_firmware\app.X\source\ebb.c
               process_QM   0x00339e    program     extern C:\Projects\EggBot_GH\EBB_firmware\app.X\source\ebb.c
          parse_QM_packet   0x003428    program     extern C:\Projects\EggBot_GH\EBB_firmware\app.X\source\ebb.c
          parse_QS_packet   0x0034a8    program     extern C:\Projects\EggBot_GH\EBB_firmware\app.X\source\ebb.c
       clear_StepCounters   0x00350c    program     static C:\Projects\EggBot_GH\EBB_firmware\app.X\source\ebb.c
          parse_CS_packet   0x003518    program     extern C:\Projects\EggBot_GH\EBB_firmware\app.X\source\ebb.c
                   __pa_0   0x003522    program     static C:\Projects\EggBot_GH\EBB_firmware\app.X\source\ebb.c
                   __pa_1   0x00352e    program     static C:\Projects\EggBot_GH\EBB_firmware\app.X\source\ebb.c
                   __pa_2   0x003544    program     static C:\Projects\EggBot_GH\EBB_firmware\app.X\source\ebb.c
                   __pa_3   0x00354a    program     static C:\Projects\EggBot_GH\EBB_firmware\app.X\source\ebb.c
                   __pa_4   0x003594    program     static C:\Projects\EggBot_GH\EBB_firmware\app.X\source\ebb.c
                   __pa_5   0x0035ca    program     static C:\Projects\EggBot_GH\EBB_firmware\app.X\source\ebb.c
                   __pa_6   0x003694    program     static C:\Projects\EggBot_GH\EBB_firmware\app.X\source\ebb.c
                   __pa_7   0x0036ba    program     static C:\Projects\EggBot_GH\EBB_firmware\app.X\source\ebb.c
                   __pa_8   0x0036d8    program     static C:\Projects\EggBot_GH\EBB_firmware\app.X\source\ebb.c
                   __pa_9   0x0036e4    program     static C:\Projects\EggBot_GH\EBB_firmware\app.X\source\ebb.c
                  __pa_10   0x0036f0    program     static C:\Projects\EggBot_GH\EBB_firmware\app.X\source\ebb.c
                  __pa_11   0x00370e    program     static C:\Projects\EggBot_GH\EBB_firmware\app.X\source\ebb.c
                  __pa_12   0x003724    program     static C:\Projects\EggBot_GH\EBB_firmware\app.X\source\ebb.c
                  __pa_13   0x00372e    program     static C:\Projects\EggBot_GH\EBB_firmware\app.X\source\ebb.c
             __tmplbl_318   0x003738    program     static                          
             __tmplbl_310   0x003738    program     static                          
             __tmplbl_321   0x003738    program     static                          
             __tmplbl_330   0x003738    program     static                          
             __tmplbl_332   0x003738    program     static                          
             __tmplbl_340   0x003738    program     static                          
             __tmplbl_305   0x003738    program     static                          
             __tmplbl_341   0x003738    program     static                          
             __tmplbl_295   0x003738    program     static                          
                  __pa_14   0x003738    program     static C:\Projects\EggBot_GH\EBB_firmware\app.X\source\ebb.c
                  __pa_15   0x00373e    program     static C:\Projects\EggBot_GH\EBB_firmware\app.X\source\ebb.c
                  __pa_16   0x003748    program     static C:\Projects\EggBot_GH\EBB_firmware\app.X\source\ebb.c
                  __pa_17   0x003762    program     static C:\Projects\EggBot_GH\EBB_firmware\app.X\source\ebb.c
                  __pa_18   0x003780    program     static C:\Projects\EggBot_GH\EBB_firmware\app.X\source\ebb.c
                  __pa_19   0x003788    program     static C:\Projects\EggBot_GH\EBB_firmware\app.X\source\ebb.c
                  __pa_20   0x003790    program     static C:\Projects\EggBot_GH\EBB_firmware\app.X\source\ebb.c
                  __pa_21   0x003798    program     static C:\Projects\EggBot_GH\EBB_firmware\app.X\source\ebb.c
                  __pa_22   0x00379e    program     static C:\Projects\EggBot_GH\EBB_firmware\app.X\source\ebb.c
                  __pa_23   0x0037b2    program     static C:\Projects\EggBot_GH\EBB_firmware\app.X\source\ebb.c
                  __pa_24   0x0037c6    program     static C:\Projects\EggBot_GH\EBB_firmware\app.X\source\ebb.c
                  __pa_25   0x0037d2    program     static C:\Projects\EggBot_GH\EBB_firmware\app.X\source\ebb.c
                  __pa_26   0x0037fc    program     static C:\Projects\EggBot_GH\EBB_firmware\app.X\source\ebb.c
                  __pa_27   0x00380e    program     static C:\Projects\EggBot_GH\EBB_firmware\app.X\source\ebb.c
                  __pa_28   0x003820    program     static C:\Projects\EggBot_GH\EBB_firmware\app.X\source\ebb.c
                  __pa_29   0x00382c    program     static C:\Projects\EggBot_GH\EBB_firmware\app.X\source\ebb.c
                  __pa_30   0x00383a    program     static C:\Projects\EggBot_GH\EBB_firmware\app.X\source\ebb.c
                  __pa_31   0x003850    program     static C:\Projects\EggBot_GH\EBB_firmware\app.X\source\ebb.c
                  __pa_32   0x003862    program     static C:\Projects\EggBot_GH\EBB_firmware\app.X\source\ebb.c
                  __pa_33   0x00386e    program     static C:\Projects\EggBot_GH\EBB_firmware\app.X\source\ebb.c
                  __pa_34   0x003874    program     static C:\Projects\EggBot_GH\EBB_firmware\app.X\source\ebb.c
                  __pa_35   0x003882    program     static C:\Projects\EggBot_GH\EBB_firmware\app.X\source\ebb.c
                  __pa_36   0x003890    program     static C:\Projects\EggBot_GH\EBB_firmware\app.X\source\ebb.c
                  __pa_37   0x0038b4    program     static C:\Projects\EggBot_GH\EBB_firmware\app.X\source\ebb.c
                  __pa_38   0x0038d8    program     static C:\Projects\EggBot_GH\EBB_firmware\app.X\source\ebb.c
                  __pa_39   0x0038ec    program     static C:\Projects\EggBot_GH\EBB_firmware\app.X\source\ebb.c
                  __pa_40   0x0038fe    program     static C:\Projects\EggBot_GH\EBB_firmware\app.X\source\ebb.c
                  __pa_41   0x003910    program     static C:\Projects\EggBot_GH\EBB_firmware\app.X\source\ebb.c
                  __pa_42   0x003922    program     static C:\Projects\EggBot_GH\EBB_firmware\app.X\source\ebb.c
                  __pa_43   0x003934    program     static C:\Projects\EggBot_GH\EBB_firmware\app.X\source\ebb.c
                  __pa_44   0x003950    program     static C:\Projects\EggBot_GH\EBB_firmware\app.X\source\ebb.c
                  __pa_45   0x003968    program     static C:\Projects\EggBot_GH\EBB_firmware\app.X\source\ebb.c
                  __pa_46   0x003972    program     static C:\Projects\EggBot_GH\EBB_firmware\app.X\source\ebb.c
                  __pa_47   0x003980    program     static C:\Projects\EggBot_GH\EBB_firmware\app.X\source\ebb.c
                  __pa_48   0x0039a0    program     static C:\Projects\EggBot_GH\EBB_firmware\app.X\source\ebb.c
                  __pa_49   0x0039b0    program     static C:\Projects\EggBot_GH\EBB_firmware\app.X\source\ebb.c
                  __pa_50   0x0039bc    program     static C:\Projects\EggBot_GH\EBB_firmware\app.X\source\ebb.c
                  __pa_51   0x0039c8    program     static C:\Projects\EggBot_GH\EBB_firmware\app.X\source\ebb.c
                  __pa_52   0x0039d4    program     static C:\Projects\EggBot_GH\EBB_firmware\app.X\source\ebb.c
                  __pa_53   0x0039da    program     static C:\Projects\EggBot_GH\EBB_firmware\app.X\source\ebb.c
                  __pa_54   0x0039f0    program     static C:\Projects\EggBot_GH\EBB_firmware\app.X\source\ebb.c
                  __pa_55   0x003a02    program     static C:\Projects\EggBot_GH\EBB_firmware\app.X\source\ebb.c
                  __pa_56   0x003a14    program     static C:\Projects\EggBot_GH\EBB_firmware\app.X\source\ebb.c
                  __pa_57   0x003a26    program     static C:\Projects\EggBot_GH\EBB_firmware\app.X\source\ebb.c
                  __pa_58   0x003a38    program     static C:\Projects\EggBot_GH\EBB_firmware\app.X\source\ebb.c
                  __pa_59   0x003a4a    program     static C:\Projects\EggBot_GH\EBB_firmware\app.X\source\ebb.c
                  __pa_60   0x003a52    program     static C:\Projects\EggBot_GH\EBB_firmware\app.X\source\ebb.c
             __tmplbl_349   0x003a60    program     static                          
             __tmplbl_296   0x003a60    program     static                          
                  __pa_61   0x003a60    program     static C:\Projects\EggBot_GH\EBB_firmware\app.X\source\ebb.c
             __tmplbl_299   0x003a60    program     static                          
             __tmplbl_298   0x003a60    program     static                          
             __tmplbl_297   0x003a60    program     static                          
                  __pa_62   0x003a64    program     static C:\Projects\EggBot_GH\EBB_firmware\app.X\source\ebb.c
                  __pa_63   0x003a6a    program     static C:\Projects\EggBot_GH\EBB_firmware\app.X\source\ebb.c
                  __pa_64   0x003a82    program     static C:\Projects\EggBot_GH\EBB_firmware\app.X\source\ebb.c
                  __pa_65   0x003a9a    program     static C:\Projects\EggBot_GH\EBB_firmware\app.X\source\ebb.c
                  __pa_66   0x003aa6    program     static C:\Projects\EggBot_GH\EBB_firmware\app.X\source\ebb.c
                  __pa_67   0x003abc    program     static C:\Projects\EggBot_GH\EBB_firmware\app.X\source\ebb.c
                  __pa_68   0x003ad2    program     static C:\Projects\EggBot_GH\EBB_firmware\app.X\source\ebb.c
                  __pa_69   0x003ae8    program     static C:\Projects\EggBot_GH\EBB_firmware\app.X\source\ebb.c
                  __pa_70   0x003afe    program     static C:\Projects\EggBot_GH\EBB_firmware\app.X\source\ebb.c
                  __pa_71   0x003b14    program     static C:\Projects\EggBot_GH\EBB_firmware\app.X\source\ebb.c
                  __pa_72   0x003b22    program     static C:\Projects\EggBot_GH\EBB_firmware\app.X\source\ebb.c
                  __pa_73   0x003b2c    program     static C:\Projects\EggBot_GH\EBB_firmware\app.X\source\ebb.c
                  __pa_74   0x003b36    program     static C:\Projects\EggBot_GH\EBB_firmware\app.X\source\ebb.c
                  __pa_75   0x003b40    program     static C:\Projects\EggBot_GH\EBB_firmware\app.X\source\ebb.c
                  __pa_76   0x003b4a    program     static C:\Projects\EggBot_GH\EBB_firmware\app.X\source\ebb.c
                  __pa_77   0x003b50    program     static C:\Projects\EggBot_GH\EBB_firmware\app.X\source\ebb.c
                  __pa_78   0x003b64    program     static C:\Projects\EggBot_GH\EBB_firmware\app.X\source\ebb.c
                  __pa_79   0x003b76    program     static C:\Projects\EggBot_GH\EBB_firmware\app.X\source\ebb.c
                  __pa_80   0x003b88    program     static C:\Projects\EggBot_GH\EBB_firmware\app.X\source\ebb.c
                  __pa_81   0x003b9a    program     static C:\Projects\EggBot_GH\EBB_firmware\app.X\source\ebb.c
                  __pa_82   0x003bac    program     static C:\Projects\EggBot_GH\EBB_firmware\app.X\source\ebb.c
                  __pa_83   0x003bb8    program     static C:\Projects\EggBot_GH\EBB_firmware\app.X\source\ebb.c
                  __pa_84   0x003bca    program     static C:\Projects\EggBot_GH\EBB_firmware\app.X\source\ebb.c
                  __pa_85   0x003bdc    program     static C:\Projects\EggBot_GH\EBB_firmware\app.X\source\ebb.c
                  __pa_86   0x003bee    program     static C:\Projects\EggBot_GH\EBB_firmware\app.X\source\ebb.c
                  __pa_87   0x003c00    program     static C:\Projects\EggBot_GH\EBB_firmware\app.X\source\ebb.c
                  __pa_88   0x003c12    program     static C:\Projects\EggBot_GH\EBB_firmware\app.X\source\ebb.c
                  __pa_89   0x003c24    program     static C:\Projects\EggBot_GH\EBB_firmware\app.X\source\ebb.c
                  __pa_90   0x003c36    program     static C:\Projects\EggBot_GH\EBB_firmware\app.X\source\ebb.c
                  __pa_91   0x003c48    program     static C:\Projects\EggBot_GH\EBB_firmware\app.X\source\ebb.c
                  __pa_92   0x003c5a    program     static C:\Projects\EggBot_GH\EBB_firmware\app.X\source\ebb.c
                  __pa_93   0x003c6c    program     static C:\Projects\EggBot_GH\EBB_firmware\app.X\source\ebb.c
                  __pa_94   0x003c7e    program     static C:\Projects\EggBot_GH\EBB_firmware\app.X\source\ebb.c
                  __pa_95   0x003c90    program     static C:\Projects\EggBot_GH\EBB_firmware\app.X\source\ebb.c
                  __pa_96   0x003c9c    program     static C:\Projects\EggBot_GH\EBB_firmware\app.X\source\ebb.c
                  __pa_97   0x003ca8    program     static C:\Projects\EggBot_GH\EBB_firmware\app.X\source\ebb.c
                  __pa_98   0x003cae    program     static C:\Projects\EggBot_GH\EBB_firmware\app.X\source\ebb.c
                  __pa_99   0x003cba    program     static C:\Projects\EggBot_GH\EBB_firmware\app.X\source\ebb.c
                 __pa_100   0x003cc4    program     static C:\Projects\EggBot_GH\EBB_firmware\app.X\source\ebb.c
                 __pa_101   0x003cce    program     static C:\Projects\EggBot_GH\EBB_firmware\app.X\source\ebb.c
                 __pa_102   0x003cd8    program     static C:\Projects\EggBot_GH\EBB_firmware\app.X\source\ebb.c
                 __pa_103   0x003ce2    program     static C:\Projects\EggBot_GH\EBB_firmware\app.X\source\ebb.c
                 __pa_104   0x003cec    program     static C:\Projects\EggBot_GH\EBB_firmware\app.X\source\ebb.c
                 __pa_105   0x003cfc    program     static C:\Projects\EggBot_GH\EBB_firmware\app.X\source\ebb.c
                 __pa_106   0x003d0c    program     static C:\Projects\EggBot_GH\EBB_firmware\app.X\source\ebb.c
                 __pa_107   0x003d1c    program     static C:\Projects\EggBot_GH\EBB_firmware\app.X\source\ebb.c
                 __pa_108   0x003d2c    program     static C:\Projects\EggBot_GH\EBB_firmware\app.X\source\ebb.c
                 __pa_109   0x003d32    program     static C:\Projects\EggBot_GH\EBB_firmware\app.X\source\ebb.c
                 __pa_110   0x003d42    program     static C:\Projects\EggBot_GH\EBB_firmware\app.X\source\ebb.c
                 __pa_111   0x003d4a    program     static C:\Projects\EggBot_GH\EBB_firmware\app.X\source\ebb.c
                 __pa_112   0x003d52    program     static C:\Projects\EggBot_GH\EBB_firmware\app.X\source\ebb.c
                 __pa_113   0x003d60    program     static C:\Projects\EggBot_GH\EBB_firmware\app.X\source\ebb.c
                 __pa_114   0x003d6e    program     static C:\Projects\EggBot_GH\EBB_firmware\app.X\source\ebb.c
                 __pa_115   0x003d7c    program     static C:\Projects\EggBot_GH\EBB_firmware\app.X\source\ebb.c
                 __pa_116   0x003d8a    program     static C:\Projects\EggBot_GH\EBB_firmware\app.X\source\ebb.c
                 __pa_117   0x003d98    program     static C:\Projects\EggBot_GH\EBB_firmware\app.X\source\ebb.c
                 __pa_118   0x003da6    program     static C:\Projects\EggBot_GH\EBB_firmware\app.X\source\ebb.c
                 __pa_119   0x003db0    program     static C:\Projects\EggBot_GH\EBB_firmware\app.X\source\ebb.c
                 __pa_120   0x003dba    program     static C:\Projects\EggBot_GH\EBB_firmware\app.X\source\ebb.c
                 __pa_121   0x003dc4    program     static C:\Projects\EggBot_GH\EBB_firmware\app.X\source\ebb.c
                 __pa_122   0x003dce    program     static C:\Projects\EggBot_GH\EBB_firmware\app.X\source\ebb.c
                 __pa_123   0x003dd8    program     static C:\Projects\EggBot_GH\EBB_firmware\app.X\source\ebb.c
                 __pa_124   0x003de2    program     static C:\Projects\EggBot_GH\EBB_firmware\app.X\source\ebb.c
                 __pa_125   0x003dec    program     static C:\Projects\EggBot_GH\EBB_firmware\app.X\source\ebb.c
                 __pa_126   0x003df6    program     static C:\Projects\EggBot_GH\EBB_firmware\app.X\source\ebb.c
                 __pa_127   0x003e00    program     static C:\Projects\EggBot_GH\EBB_firmware\app.X\source\ebb.c
                 __pa_128   0x003e56    program     static C:\Projects\EggBot_GH\EBB_firmware\app.X\source\ebb.c
                 __pa_129   0x003e5c    program     static C:\Projects\EggBot_GH\EBB_firmware\app.X\source\ebb.c
                 __pa_130   0x003e68    program     static C:\Projects\EggBot_GH\EBB_firmware\app.X\source\ebb.c
                 __pa_131   0x003ea4    program     static C:\Projects\EggBot_GH\EBB_firmware\app.X\source\ebb.c
                 __pa_132   0x003eaa    program     static C:\Projects\EggBot_GH\EBB_firmware\app.X\source\ebb.c
                 __pa_133   0x003eb4    program     static C:\Projects\EggBot_GH\EBB_firmware\app.X\source\ebb.c
                 __pa_134   0x003eba    program     static C:\Projects\EggBot_GH\EBB_firmware\app.X\source\ebb.c
                 __pa_135   0x003ec4    program     static C:\Projects\EggBot_GH\EBB_firmware\app.X\source\ebb.c
                 __pa_136   0x003ed2    program     static C:\Projects\EggBot_GH\EBB_firmware\app.X\source\ebb.c
                 __pa_137   0x003eea    program     static C:\Projects\EggBot_GH\EBB_firmware\app.X\source\ebb.c
                 __pa_138   0x003efc    program     static C:\Projects\EggBot_GH\EBB_firmware\app.X\source\ebb.c
                 __pa_139   0x003f10    program     static C:\Projects\EggBot_GH\EBB_firmware\app.X\source\ebb.c
                 __pa_140   0x003f2e    program     static C:\Projects\EggBot_GH\EBB_firmware\app.X\source\ebb.c
                 __pa_141   0x003f4c    program     static C:\Projects\EggBot_GH\EBB_firmware\app.X\source\ebb.c
                 __pa_142   0x003f6a    program     static C:\Projects\EggBot_GH\EBB_firmware\app.X\source\ebb.c
                 __pa_143   0x003f80    program     static C:\Projects\EggBot_GH\EBB_firmware\app.X\source\ebb.c
                 __pa_144   0x003f9a    program     static C:\Projects\EggBot_GH\EBB_firmware\app.X\source\ebb.c
                 __pa_145   0x003fa8    program     static C:\Projects\EggBot_GH\EBB_firmware\app.X\source\ebb.c
                 __pa_146   0x003fb4    program     static C:\Projects\EggBot_GH\EBB_firmware\app.X\source\ebb.c
                 __pa_147   0x003fbe    program     static C:\Projects\EggBot_GH\EBB_firmware\app.X\source\ebb.c
                 __pa_148   0x003fc8    program     static C:\Projects\EggBot_GH\EBB_firmware\app.X\source\ebb.c
                 __pa_149   0x003fd2    program     static C:\Projects\EggBot_GH\EBB_firmware\app.X\source\ebb.c
                 __pa_150   0x003fdc    program     static C:\Projects\EggBot_GH\EBB_firmware\app.X\source\ebb.c
                 __pa_151   0x003ff4    program     static C:\Projects\EggBot_GH\EBB_firmware\app.X\source\ebb.c
                 __pa_152   0x00400c    program     static C:\Projects\EggBot_GH\EBB_firmware\app.X\source\ebb.c
                 __pa_153   0x004014    program     static C:\Projects\EggBot_GH\EBB_firmware\app.X\source\ebb.c
                 __pa_154   0x00401e    program     static C:\Projects\EggBot_GH\EBB_firmware\app.X\source\ebb.c
                 __pa_155   0x004026    program     static C:\Projects\EggBot_GH\EBB_firmware\app.X\source\ebb.c
                 __pa_156   0x004030    program     static C:\Projects\EggBot_GH\EBB_firmware\app.X\source\ebb.c
                 __pa_157   0x004046    program     static C:\Projects\EggBot_GH\EBB_firmware\app.X\source\ebb.c
                 __pa_158   0x004054    program     static C:\Projects\EggBot_GH\EBB_firmware\app.X\source\ebb.c
                 __pa_159   0x004060    program     static C:\Projects\EggBot_GH\EBB_firmware\app.X\source\ebb.c
             __tmplbl_360   0x004060    program     static                          
             __tmplbl_359   0x004060    program     static                          
             __tmplbl_356   0x004060    program     static                          
             __tmplbl_357   0x004060    program     static                          
                 __pa_160   0x004068    program     static C:\Projects\EggBot_GH\EBB_firmware\app.X\source\ebb.c
                 __pa_161   0x00407a    program     static C:\Projects\EggBot_GH\EBB_firmware\app.X\source\ebb.c
                 __pa_162   0x00408c    program     static C:\Projects\EggBot_GH\EBB_firmware\app.X\source\ebb.c
                 __pa_163   0x004098    program     static C:\Projects\EggBot_GH\EBB_firmware\app.X\source\ebb.c
                 __pa_164   0x0040a4    program     static C:\Projects\EggBot_GH\EBB_firmware\app.X\source\ebb.c
                 __pa_165   0x0040b4    program     static C:\Projects\EggBot_GH\EBB_firmware\app.X\source\ebb.c
                 __pa_166   0x0040c6    program     static C:\Projects\EggBot_GH\EBB_firmware\app.X\source\ebb.c
             __tmplbl_358   0x0040d8    program     static                          
                 __pa_167   0x0040d8    program     static C:\Projects\EggBot_GH\EBB_firmware\app.X\source\ebb.c
             __tmplbl_364   0x0040d8    program     static                          
                 __pa_168   0x0040dc    program     static C:\Projects\EggBot_GH\EBB_firmware\app.X\source\ebb.c
                 __pa_169   0x0040ec    program     static C:\Projects\EggBot_GH\EBB_firmware\app.X\source\ebb.c
                 __pa_170   0x0040f6    program     static C:\Projects\EggBot_GH\EBB_firmware\app.X\source\ebb.c
                 __pa_171   0x004100    program     static C:\Projects\EggBot_GH\EBB_firmware\app.X\source\ebb.c
                 __pa_172   0x00410a    program     static C:\Projects\EggBot_GH\EBB_firmware\app.X\source\ebb.c
                 __pa_173   0x00411a    program     static C:\Projects\EggBot_GH\EBB_firmware\app.X\source\ebb.c
                 __pa_174   0x004128    program     static C:\Projects\EggBot_GH\EBB_firmware\app.X\source\ebb.c
                 __pa_175   0x004136    program     static C:\Projects\EggBot_GH\EBB_firmware\app.X\source\ebb.c
                 __pa_176   0x004144    program     static C:\Projects\EggBot_GH\EBB_firmware\app.X\source\ebb.c
                 __pa_177   0x004152    program     static C:\Projects\EggBot_GH\EBB_firmware\app.X\source\ebb.c
                 __pa_178   0x004160    program     static C:\Projects\EggBot_GH\EBB_firmware\app.X\source\ebb.c
                 __pa_179   0x00416c    program     static C:\Projects\EggBot_GH\EBB_firmware\app.X\source\ebb.c
                 __pa_180   0x004178    program     static C:\Projects\EggBot_GH\EBB_firmware\app.X\source\ebb.c
                 __pa_181   0x004186    program     static C:\Projects\EggBot_GH\EBB_firmware\app.X\source\ebb.c
                 __pa_182   0x004194    program     static C:\Projects\EggBot_GH\EBB_firmware\app.X\source\ebb.c
                 __pa_183   0x00419c    program     static C:\Projects\EggBot_GH\EBB_firmware\app.X\source\ebb.c
                 __pa_184   0x0041a6    program     static C:\Projects\EggBot_GH\EBB_firmware\app.X\source\ebb.c
                 __pa_185   0x0041b0    program     static C:\Projects\EggBot_GH\EBB_firmware\app.X\source\ebb.c
                 __pa_186   0x0041ba    program     static C:\Projects\EggBot_GH\EBB_firmware\app.X\source\ebb.c
                 __pa_187   0x0041c2    program     static C:\Projects\EggBot_GH\EBB_firmware\app.X\source\ebb.c
             __tmplbl_352   0x0041c2    program     static                          
             __tmplbl_361   0x0041c2    program     static                          
             __tmplbl_363   0x0041ca    program     static                          
             __tmplbl_362   0x0041ca    program     static                          
                 __pa_188   0x0041ca    program     static C:\Projects\EggBot_GH\EBB_firmware\app.X\source\ebb.c
                 __pa_189   0x0041d2    program     static C:\Projects\EggBot_GH\EBB_firmware\app.X\source\ebb.c
                 __pa_190   0x0041da    program     static C:\Projects\EggBot_GH\EBB_firmware\app.X\source\ebb.c
                 __pa_191   0x0041fe    program     static C:\Projects\EggBot_GH\EBB_firmware\app.X\source\ebb.c
                 __pa_192   0x004214    program     static C:\Projects\EggBot_GH\EBB_firmware\app.X\source\ebb.c
                 __pa_193   0x00422e    program     static C:\Projects\EggBot_GH\EBB_firmware\app.X\source\ebb.c
                 __pa_194   0x00423c    program     static C:\Projects\EggBot_GH\EBB_firmware\app.X\source\ebb.c
                 __pa_195   0x004254    program     static C:\Projects\EggBot_GH\EBB_firmware\app.X\source\ebb.c
                 __pa_196   0x004260    program     static C:\Projects\EggBot_GH\EBB_firmware\app.X\source\ebb.c
                 __pa_197   0x004268    program     static C:\Projects\EggBot_GH\EBB_firmware\app.X\source\ebb.c
                 __pa_198   0x004270    program     static C:\Projects\EggBot_GH\EBB_firmware\app.X\source\ebb.c
                 __pa_199   0x004278    program     static C:\Projects\EggBot_GH\EBB_firmware\app.X\source\ebb.c
                 __pa_200   0x004280    program     static C:\Projects\EggBot_GH\EBB_firmware\app.X\source\ebb.c
                 __pa_201   0x00428a    program     static C:\Projects\EggBot_GH\EBB_firmware\app.X\source\ebb.c
                 __pa_202   0x00429c    program     static C:\Projects\EggBot_GH\EBB_firmware\app.X\source\ebb.c
                 __pa_203   0x0042a6    program     static C:\Projects\EggBot_GH\EBB_firmware\app.X\source\ebb.c
                 __pa_204   0x0042b4    program     static C:\Projects\EggBot_GH\EBB_firmware\app.X\source\ebb.c
                 __pa_205   0x0042c2    program     static C:\Projects\EggBot_GH\EBB_firmware\app.X\source\ebb.c
                 __pa_206   0x0042ce    program     static C:\Projects\EggBot_GH\EBB_firmware\app.X\source\ebb.c
                 __pa_207   0x0042da    program     static C:\Projects\EggBot_GH\EBB_firmware\app.X\source\ebb.c
                 __pa_208   0x0042e2    program     static C:\Projects\EggBot_GH\EBB_firmware\app.X\source\ebb.c
                 __pa_209   0x0042e8    program     static C:\Projects\EggBot_GH\EBB_firmware\app.X\source\ebb.c
                 __pa_210   0x0042f2    program     static C:\Projects\EggBot_GH\EBB_firmware\app.X\source\ebb.c
                 __pa_211   0x0042fa    program     static C:\Projects\EggBot_GH\EBB_firmware\app.X\source\ebb.c
                 __pa_212   0x004300    program     static C:\Projects\EggBot_GH\EBB_firmware\app.X\source\ebb.c
                 __pa_213   0x004308    program     static C:\Projects\EggBot_GH\EBB_firmware\app.X\source\ebb.c
                 __pa_214   0x00430e    program     static C:\Projects\EggBot_GH\EBB_firmware\app.X\source\ebb.c
                 __pa_215   0x00431e    program     static C:\Projects\EggBot_GH\EBB_firmware\app.X\source\ebb.c
                 __pa_216   0x00432a    program     static C:\Projects\EggBot_GH\EBB_firmware\app.X\source\ebb.c
                 __pa_217   0x004334    program     static C:\Projects\EggBot_GH\EBB_firmware\app.X\source\ebb.c
                 __pa_218   0x004340    program     static C:\Projects\EggBot_GH\EBB_firmware\app.X\source\ebb.c
                 __pa_219   0x004348    program     static C:\Projects\EggBot_GH\EBB_firmware\app.X\source\ebb.c
                  low_ISR   0x004352    program     extern C:\Projects\EggBot_GH\EBB_firmware\app.X\source\UBW.c
               fill_stack   0x00472e    program     extern C:\Projects\EggBot_GH\EBB_firmware\app.X\source\UBW.c
        ___while_lbl00057   0x00476e    program     static                          
        ___while_lbl00058   0x004798    program     static                          
       ___return_lbl00056   0x004798    program     static                          
         check_high_water   0x0047ac    program     extern C:\Projects\EggBot_GH\EBB_firmware\app.X\source\UBW.c
                 UserInit   0x004812    program     extern C:\Projects\EggBot_GH\EBB_firmware\app.X\source\UBW.c
                ProcessIO   0x0049f0    program     extern C:\Projects\EggBot_GH\EBB_firmware\app.X\source\UBW.c
                 ebb_putc   0x004cf0    program     extern C:\Projects\EggBot_GH\EBB_firmware\app.X\source\UBW.c
   check_and_send_TX_data   0x004d4e    program     extern C:\Projects\EggBot_GH\EBB_firmware\app.X\source\UBW.c
             parse_packet   0x004d9a    program     extern C:\Projects\EggBot_GH\EBB_firmware\app.X\source\UBW.c
            print_command   0x005388    program     extern C:\Projects\EggBot_GH\EBB_firmware\app.X\source\UBW.c
        print_line_ending   0x0053c4    program     extern C:\Projects\EggBot_GH\EBB_firmware\app.X\source\UBW.c
           parse_R_packet   0x00540a    program     extern C:\Projects\EggBot_GH\EBB_firmware\app.X\source\UBW.c
          parse_CU_packet   0x005418    program     extern C:\Projects\EggBot_GH\EBB_firmware\app.X\source\UBW.c
           ___if_lbl00242   0x00546e    program     static                          
              __tmplbl_89   0x005482    program     static                          
              __tmplbl_88   0x005498    program     static                          
         ___else_lbl00245   0x0054a0    program     static                          
           ___if_lbl00244   0x0054a4    program     static                          
         ___else_lbl00332   0x0054a6    program     static                          
              __tmplbl_91   0x0054c0    program     static                          
              __tmplbl_90   0x0054d6    program     static                          
         ___else_lbl00248   0x0054de    program     static                          
           ___if_lbl00247   0x0054e2    program     static                          
         ___else_lbl00330   0x0054e4    program     static                          
         ___else_lbl00252   0x005504    program     static                          
         ___else_lbl00250   0x005520    program     static                          
           ___if_lbl00251   0x005524    program     static                          
           ___if_lbl00249   0x005524    program     static                          
         ___else_lbl00328   0x005526    program     static                          
           ___if_lbl00253   0x005558    program     static                          
        ___while_lbl00254   0x005558    program     static                          
        ___while_lbl00255   0x005562    program     static                          
         ___else_lbl00326   0x00556a    program     static                          
         ___else_lbl00259   0x00558a    program     static                          
         ___else_lbl00257   0x0055a6    program     static                          
           ___if_lbl00258   0x0055aa    program     static                          
           ___if_lbl00256   0x0055aa    program     static                          
         ___else_lbl00324   0x0055ac    program     static                          
         ___else_lbl00261   0x0055cc    program     static                          
           ___if_lbl00260   0x0055d2    program     static                          
         ___else_lbl00322   0x0055d4    program     static                          
           ___if_lbl00262   0x0055fe    program     static                          
         ___else_lbl00320   0x005600    program     static                          
         ___else_lbl00318   0x005626    program     static                          
         ___else_lbl00264   0x00564e    program     static                          
           ___if_lbl00263   0x005656    program     static                          
         ___else_lbl00316   0x005658    program     static                          
         ___else_lbl00266   0x005680    program     static                          
           ___if_lbl00265   0x005684    program     static                          
         ___else_lbl00314   0x005686    program     static                          
         ___else_lbl00312   0x0056aa    program     static                          
         ___else_lbl00274   0x0056de    program     static                          
       ___case_2_lbl00268   0x0056f4    program     static                          
       ___case_1_lbl00270   0x005708    program     static                          
       ___case_0_lbl00269   0x005708    program     static                          
      ___default_lbl00271   0x005708    program     static                          
       ___case_3_lbl00272   0x00570e    program     static                          
   ___switchexit_lbl00267   0x00571c    program     static                          
           ___if_lbl00273   0x00571c    program     static                          
         ___else_lbl00310   0x005722    program     static                          
         ___else_lbl00278   0x005740    program     static                          
         ___else_lbl00276   0x005764    program     static                          
           ___if_lbl00275   0x005768    program     static                          
           ___if_lbl00277   0x005768    program     static                          
         ___else_lbl00308   0x00576a    program     static                          
         ___else_lbl00282   0x00578a    program     static                          
         ___else_lbl00280   0x0057ba    program     static                          
           ___if_lbl00279   0x0057be    program     static                          
           ___if_lbl00281   0x0057be    program     static                          
         ___else_lbl00306   0x0057c0    program     static                          
         ___else_lbl00286   0x0057e0    program     static                          
         ___else_lbl00284   0x005810    program     static                          
           ___if_lbl00285   0x005814    program     static                          
           ___if_lbl00283   0x005814    program     static                          
         ___else_lbl00304   0x005816    program     static                          
         ___else_lbl00290   0x005834    program     static                          
         ___else_lbl00288   0x005862    program     static                          
           ___if_lbl00289   0x005866    program     static                          
           ___if_lbl00287   0x005866    program     static                          
         ___else_lbl00302   0x005868    program     static                          
        ___while_lbl00291   0x00587a    program     static                          
        ___while_lbl00292   0x0058a4    program     static                          
         ___else_lbl00300   0x0058a6    program     static                          
         ___else_lbl00296   0x0058c2    program     static                          
         ___else_lbl00294   0x0058f0    program     static                          
           ___if_lbl00293   0x0058f4    program     static                          
           ___if_lbl00295   0x0058f4    program     static                          
         ___else_lbl00298   0x0058f6    program     static                          
           ___if_lbl00323   0x0058fa    program     static                          
           ___if_lbl00321   0x0058fa    program     static                          
           ___if_lbl00319   0x0058fa    program     static                          
           ___if_lbl00317   0x0058fa    program     static                          
           ___if_lbl00315   0x0058fa    program     static                          
           ___if_lbl00313   0x0058fa    program     static                          
           ___if_lbl00311   0x0058fa    program     static                          
           ___if_lbl00309   0x0058fa    program     static                          
           ___if_lbl00307   0x0058fa    program     static                          
           ___if_lbl00305   0x0058fa    program     static                          
           ___if_lbl00303   0x0058fa    program     static                          
           ___if_lbl00301   0x0058fa    program     static                          
           ___if_lbl00325   0x0058fa    program     static                          
           ___if_lbl00299   0x0058fa    program     static                          
           ___if_lbl00297   0x0058fa    program     static                          
           ___if_lbl00327   0x0058fa    program     static                          
           ___if_lbl00329   0x0058fa    program     static                          
           ___if_lbl00331   0x0058fa    program     static                          
       ___return_lbl00241   0x005900    program     static                          
          parse_QU_packet   0x005914    program     extern C:\Projects\EggBot_GH\EBB_firmware\app.X\source\UBW.c
           parse_C_packet   0x0059f2    program     extern C:\Projects\EggBot_GH\EBB_firmware\app.X\source\UBW.c
          AnalogConfigure   0x005a4c    program     extern C:\Projects\EggBot_GH\EBB_firmware\app.X\source\UBW.c
          parse_AC_packet   0x005b1e    program     extern C:\Projects\EggBot_GH\EBB_firmware\app.X\source\UBW.c
           parse_O_packet   0x005b52    program     extern C:\Projects\EggBot_GH\EBB_firmware\app.X\source\UBW.c
           parse_I_packet   0x005bbe    program     extern C:\Projects\EggBot_GH\EBB_firmware\app.X\source\UBW.c
           parse_V_packet   0x005bea    program     extern C:\Projects\EggBot_GH\EBB_firmware\app.X\source\UBW.c
           parse_A_packet   0x005bf8    program     extern C:\Projects\EggBot_GH\EBB_firmware\app.X\source\UBW.c
          parse_MW_packet   0x005cbc    program     extern C:\Projects\EggBot_GH\EBB_firmware\app.X\source\UBW.c
          parse_MR_packet   0x005cf2    program     extern C:\Projects\EggBot_GH\EBB_firmware\app.X\source\UBW.c
          parse_PD_packet   0x005d30    program     extern C:\Projects\EggBot_GH\EBB_firmware\app.X\source\UBW.c
          parse_PI_packet   0x005e68    program     extern C:\Projects\EggBot_GH\EBB_firmware\app.X\source\UBW.c
          parse_PO_packet   0x005f52    program     extern C:\Projects\EggBot_GH\EBB_firmware\app.X\source\UBW.c
                LongDelay   0x00608a    program     extern C:\Projects\EggBot_GH\EBB_firmware\app.X\source\UBW.c
          ___for_lbl00456   0x006096    program     static                          
        ___while_lbl00454   0x00609e    program     static                          
        ___while_lbl00455   0x0060ac    program     static                          
          ___for_lbl00452   0x0060ac    program     static                          
       ___return_lbl00451   0x0060b0    program     static                          
          ___for_lbl00453   0x0060b0    program     static                          
          parse_BL_packet   0x0060ba    program     extern C:\Projects\EggBot_GH\EBB_firmware\app.X\source\UBW.c
       ___return_lbl00457   0x0060c8    program     static                          
          parse_RB_packet   0x0060ca    program     extern C:\Projects\EggBot_GH\EBB_firmware\app.X\source\UBW.c
       ___return_lbl00458   0x0060d6    program     static                          
          parse_QR_packet   0x0060d8    program     extern C:\Projects\EggBot_GH\EBB_firmware\app.X\source\UBW.c
          parse_SR_packet   0x0060f8    program     extern C:\Projects\EggBot_GH\EBB_firmware\app.X\source\UBW.c
          parse_CK_packet   0x00615e    program     extern C:\Projects\EggBot_GH\EBB_firmware\app.X\source\UBW.c
populateDeviceStringWithName   0x006296    program     extern C:\Projects\EggBot_GH\EBB_firmware\app.X\source\UBW.c
          parse_ST_packet   0x00631c    program     extern C:\Projects\EggBot_GH\EBB_firmware\app.X\source\UBW.c
          parse_QT_packet   0x006388    program     extern C:\Projects\EggBot_GH\EBB_firmware\app.X\source\UBW.c
           extract_string   0x0063c8    program     extern C:\Projects\EggBot_GH\EBB_firmware\app.X\source\UBW.c
           extract_number   0x006444    program     extern C:\Projects\EggBot_GH\EBB_firmware\app.X\source\UBW.c
            extract_digit   0x0066b8    program     extern C:\Projects\EggBot_GH\EBB_firmware\app.X\source\UBW.c
             print_status   0x006784    program     extern C:\Projects\EggBot_GH\EBB_firmware\app.X\source\UBW.c
           BlinkUSBStatus   0x006796    program     extern C:\Projects\EggBot_GH\EBB_firmware\app.X\source\UBW.c
         SetPinLATFromRPn   0x006872    program     extern C:\Projects\EggBot_GH\EBB_firmware\app.X\source\UBW.c
        SetPinTRISFromRPn   0x0068ce    program     extern C:\Projects\EggBot_GH\EBB_firmware\app.X\source\UBW.c
                   __pa_0   0x00692a    program     static C:\Projects\EggBot_GH\EBB_firmware\app.X\source\UBW.c
                   __pa_1   0x006930    program     static C:\Projects\EggBot_GH\EBB_firmware\app.X\source\UBW.c
                   __pa_2   0x006936    program     static C:\Projects\EggBot_GH\EBB_firmware\app.X\source\UBW.c
                   __pa_3   0x00693e    program     static C:\Projects\EggBot_GH\EBB_firmware\app.X\source\UBW.c
                   __pa_4   0x006944    program     static C:\Projects\EggBot_GH\EBB_firmware\app.X\source\UBW.c
                   __pa_5   0x006950    program     static C:\Projects\EggBot_GH\EBB_firmware\app.X\source\UBW.c
                   __pa_6   0x006958    program     static C:\Projects\EggBot_GH\EBB_firmware\app.X\source\UBW.c
                   __pa_7   0x006966    program     static C:\Projects\EggBot_GH\EBB_firmware\app.X\source\UBW.c
                   __pa_8   0x006970    program     static C:\Projects\EggBot_GH\EBB_firmware\app.X\source\UBW.c
             __tmplbl_173   0x006970    program     static                          
             __tmplbl_172   0x006970    program     static                          
             __tmplbl_158   0x006970    program     static                          
             __tmplbl_157   0x006970    program     static                          
             __tmplbl_174   0x006970    program     static                          
             __tmplbl_213   0x006970    program     static                          
             __tmplbl_238   0x006970    program     static                          
             __tmplbl_236   0x006970    program     static                          
             __tmplbl_214   0x006970    program     static                          
             __tmplbl_232   0x006970    program     static                          
             __tmplbl_216   0x006970    program     static                          
             __tmplbl_217   0x006970    program     static                          
             __tmplbl_231   0x006970    program     static                          
             __tmplbl_227   0x006970    program     static                          
             __tmplbl_226   0x006970    program     static                          
             __tmplbl_218   0x006970    program     static                          
             __tmplbl_225   0x006970    program     static                          
             __tmplbl_221   0x006970    program     static                          
             __tmplbl_220   0x006970    program     static                          
             __tmplbl_219   0x006970    program     static                          
                   __pa_9   0x006978    program     static C:\Projects\EggBot_GH\EBB_firmware\app.X\source\UBW.c
                  __pa_10   0x006982    program     static C:\Projects\EggBot_GH\EBB_firmware\app.X\source\UBW.c
                  __pa_11   0x00698c    program     static C:\Projects\EggBot_GH\EBB_firmware\app.X\source\UBW.c
                  __pa_12   0x006996    program     static C:\Projects\EggBot_GH\EBB_firmware\app.X\source\UBW.c
                  __pa_13   0x0069a4    program     static C:\Projects\EggBot_GH\EBB_firmware\app.X\source\UBW.c
                  __pa_14   0x0069bc    program     static C:\Projects\EggBot_GH\EBB_firmware\app.X\source\UBW.c
                  __pa_15   0x0069c4    program     static C:\Projects\EggBot_GH\EBB_firmware\app.X\source\UBW.c
                  __pa_16   0x0069d0    program     static C:\Projects\EggBot_GH\EBB_firmware\app.X\source\UBW.c
                  __pa_17   0x0069d8    program     static C:\Projects\EggBot_GH\EBB_firmware\app.X\source\UBW.c
                  __pa_18   0x0069e2    program     static C:\Projects\EggBot_GH\EBB_firmware\app.X\source\UBW.c
                  __pa_19   0x0069ea    program     static C:\Projects\EggBot_GH\EBB_firmware\app.X\source\UBW.c
                  __pa_20   0x0069fe    program     static C:\Projects\EggBot_GH\EBB_firmware\app.X\source\UBW.c
                  __pa_21   0x006a0a    program     static C:\Projects\EggBot_GH\EBB_firmware\app.X\source\UBW.c
                  __pa_22   0x006a12    program     static C:\Projects\EggBot_GH\EBB_firmware\app.X\source\UBW.c
                  __pa_23   0x006a1c    program     static C:\Projects\EggBot_GH\EBB_firmware\app.X\source\UBW.c
                  __pa_24   0x006a2a    program     static C:\Projects\EggBot_GH\EBB_firmware\app.X\source\UBW.c
                  __pa_25   0x006a3c    program     static C:\Projects\EggBot_GH\EBB_firmware\app.X\source\UBW.c
                  __pa_26   0x006a44    program     static C:\Projects\EggBot_GH\EBB_firmware\app.X\source\UBW.c
                  __pa_27   0x006a50    program     static C:\Projects\EggBot_GH\EBB_firmware\app.X\source\UBW.c
                  __pa_28   0x006a72    program     static C:\Projects\EggBot_GH\EBB_firmware\app.X\source\UBW.c
                  __pa_29   0x006a80    program     static C:\Projects\EggBot_GH\EBB_firmware\app.X\source\UBW.c
                  __pa_30   0x006a8e    program     static C:\Projects\EggBot_GH\EBB_firmware\app.X\source\UBW.c
                  __pa_31   0x006ab0    program     static C:\Projects\EggBot_GH\EBB_firmware\app.X\source\UBW.c
                  __pa_32   0x006aba    program     static C:\Projects\EggBot_GH\EBB_firmware\app.X\source\UBW.c
                  __pa_33   0x006ac4    program     static C:\Projects\EggBot_GH\EBB_firmware\app.X\source\UBW.c
                  __pa_34   0x006ad2    program     static C:\Projects\EggBot_GH\EBB_firmware\app.X\source\UBW.c
                  __pa_35   0x006ad8    program     static C:\Projects\EggBot_GH\EBB_firmware\app.X\source\UBW.c
                  __pa_36   0x006ae2    program     static C:\Projects\EggBot_GH\EBB_firmware\app.X\source\UBW.c
                  __pa_37   0x006afe    program     static C:\Projects\EggBot_GH\EBB_firmware\app.X\source\UBW.c
                  __pa_38   0x006b08    program     static C:\Projects\EggBot_GH\EBB_firmware\app.X\source\UBW.c
                  __pa_39   0x006b12    program     static C:\Projects\EggBot_GH\EBB_firmware\app.X\source\UBW.c
                  __pa_40   0x006b1c    program     static C:\Projects\EggBot_GH\EBB_firmware\app.X\source\UBW.c
                  __pa_41   0x006b34    program     static C:\Projects\EggBot_GH\EBB_firmware\app.X\source\UBW.c
                  __pa_42   0x006b3c    program     static C:\Projects\EggBot_GH\EBB_firmware\app.X\source\UBW.c
                  __pa_43   0x006b46    program     static C:\Projects\EggBot_GH\EBB_firmware\app.X\source\UBW.c
                  __pa_44   0x006b52    program     static C:\Projects\EggBot_GH\EBB_firmware\app.X\source\UBW.c
                  __pa_45   0x006b5e    program     static C:\Projects\EggBot_GH\EBB_firmware\app.X\source\UBW.c
                  __pa_46   0x006b6a    program     static C:\Projects\EggBot_GH\EBB_firmware\app.X\source\UBW.c
                  __pa_47   0x006b74    program     static C:\Projects\EggBot_GH\EBB_firmware\app.X\source\UBW.c
                  __pa_48   0x006b84    program     static C:\Projects\EggBot_GH\EBB_firmware\app.X\source\UBW.c
                  __pa_49   0x006b94    program     static C:\Projects\EggBot_GH\EBB_firmware\app.X\source\UBW.c
                  __pa_50   0x006ba2    program     static C:\Projects\EggBot_GH\EBB_firmware\app.X\source\UBW.c
                  __pa_51   0x006bb0    program     static C:\Projects\EggBot_GH\EBB_firmware\app.X\source\UBW.c
                  __pa_52   0x006bbe    program     static C:\Projects\EggBot_GH\EBB_firmware\app.X\source\UBW.c
                  __pa_53   0x006bcc    program     static C:\Projects\EggBot_GH\EBB_firmware\app.X\source\UBW.c
                  __pa_54   0x006bda    program     static C:\Projects\EggBot_GH\EBB_firmware\app.X\source\UBW.c
                  __pa_55   0x006be8    program     static C:\Projects\EggBot_GH\EBB_firmware\app.X\source\UBW.c
                  __pa_56   0x006bf2    program     static C:\Projects\EggBot_GH\EBB_firmware\app.X\source\UBW.c
                  __pa_57   0x006bfc    program     static C:\Projects\EggBot_GH\EBB_firmware\app.X\source\UBW.c
                  __pa_58   0x006c06    program     static C:\Projects\EggBot_GH\EBB_firmware\app.X\source\UBW.c
                  __pa_59   0x006c0e    program     static C:\Projects\EggBot_GH\EBB_firmware\app.X\source\UBW.c
                  __pa_60   0x006c14    program     static C:\Projects\EggBot_GH\EBB_firmware\app.X\source\UBW.c
                  __pa_61   0x006c1c    program     static C:\Projects\EggBot_GH\EBB_firmware\app.X\source\UBW.c
                  __pa_62   0x006c2a    program     static C:\Projects\EggBot_GH\EBB_firmware\app.X\source\UBW.c
                  __pa_63   0x006c34    program     static C:\Projects\EggBot_GH\EBB_firmware\app.X\source\UBW.c
                  __pa_64   0x006c3a    program     static C:\Projects\EggBot_GH\EBB_firmware\app.X\source\UBW.c
                  __pa_65   0x006c44    program     static C:\Projects\EggBot_GH\EBB_firmware\app.X\source\UBW.c
                  __pa_66   0x006c4c    program     static C:\Projects\EggBot_GH\EBB_firmware\app.X\source\UBW.c
                  __pa_67   0x006c5e    program     static C:\Projects\EggBot_GH\EBB_firmware\app.X\source\UBW.c
                  __pa_68   0x006c64    program     static C:\Projects\EggBot_GH\EBB_firmware\app.X\source\UBW.c
                  __pa_69   0x006c6a    program     static C:\Projects\EggBot_GH\EBB_firmware\app.X\source\UBW.c
                  __pa_70   0x006c74    program     static C:\Projects\EggBot_GH\EBB_firmware\app.X\source\UBW.c
                  __pa_71   0x006c7e    program     static C:\Projects\EggBot_GH\EBB_firmware\app.X\source\UBW.c
                  __pa_72   0x006c94    program     static C:\Projects\EggBot_GH\EBB_firmware\app.X\source\UBW.c
                  __pa_73   0x006ca2    program     static C:\Projects\EggBot_GH\EBB_firmware\app.X\source\UBW.c
                  __pa_74   0x006cb0    program     static C:\Projects\EggBot_GH\EBB_firmware\app.X\source\UBW.c
                  __pa_75   0x006cb6    program     static C:\Projects\EggBot_GH\EBB_firmware\app.X\source\UBW.c
                  __pa_76   0x006cc6    program     static C:\Projects\EggBot_GH\EBB_firmware\app.X\source\UBW.c
                  __pa_77   0x006cd6    program     static C:\Projects\EggBot_GH\EBB_firmware\app.X\source\UBW.c
                  __pa_78   0x006ce0    program     static C:\Projects\EggBot_GH\EBB_firmware\app.X\source\UBW.c
                  __pa_79   0x006cea    program     static C:\Projects\EggBot_GH\EBB_firmware\app.X\source\UBW.c
                  __pa_80   0x006cf2    program     static C:\Projects\EggBot_GH\EBB_firmware\app.X\source\UBW.c
                  __pa_81   0x006cf8    program     static C:\Projects\EggBot_GH\EBB_firmware\app.X\source\UBW.c
                  __pa_82   0x006d04    program     static C:\Projects\EggBot_GH\EBB_firmware\app.X\source\UBW.c
                  __pa_83   0x006d12    program     static C:\Projects\EggBot_GH\EBB_firmware\app.X\source\UBW.c
                  __pa_84   0x006d20    program     static C:\Projects\EggBot_GH\EBB_firmware\app.X\source\UBW.c
                  __pa_85   0x006d2c    program     static C:\Projects\EggBot_GH\EBB_firmware\app.X\source\UBW.c
                  __pa_86   0x006d38    program     static C:\Projects\EggBot_GH\EBB_firmware\app.X\source\UBW.c
                  __pa_87   0x006d46    program     static C:\Projects\EggBot_GH\EBB_firmware\app.X\source\UBW.c
                  __pa_88   0x006d52    program     static C:\Projects\EggBot_GH\EBB_firmware\app.X\source\UBW.c
                  __pa_89   0x006d5c    program     static C:\Projects\EggBot_GH\EBB_firmware\app.X\source\UBW.c
                  __pa_90   0x006d6a    program     static C:\Projects\EggBot_GH\EBB_firmware\app.X\source\UBW.c
                  __pa_91   0x006d76    program     static C:\Projects\EggBot_GH\EBB_firmware\app.X\source\UBW.c
                  __pa_92   0x006d7e    program     static C:\Projects\EggBot_GH\EBB_firmware\app.X\source\UBW.c
                  __pa_93   0x006d88    program     static C:\Projects\EggBot_GH\EBB_firmware\app.X\source\UBW.c
                  __pa_94   0x006d92    program     static C:\Projects\EggBot_GH\EBB_firmware\app.X\source\UBW.c
                  __pa_95   0x006d9c    program     static C:\Projects\EggBot_GH\EBB_firmware\app.X\source\UBW.c
                  __pa_96   0x006da4    program     static C:\Projects\EggBot_GH\EBB_firmware\app.X\source\UBW.c
                  __pa_97   0x006dac    program     static C:\Projects\EggBot_GH\EBB_firmware\app.X\source\UBW.c
                  __pa_98   0x006dba    program     static C:\Projects\EggBot_GH\EBB_firmware\app.X\source\UBW.c
                  __pa_99   0x006dc6    program     static C:\Projects\EggBot_GH\EBB_firmware\app.X\source\UBW.c
                 __pa_100   0x006dcc    program     static C:\Projects\EggBot_GH\EBB_firmware\app.X\source\UBW.c
                 __pa_101   0x006ddc    program     static C:\Projects\EggBot_GH\EBB_firmware\app.X\source\UBW.c
                 __pa_102   0x006de4    program     static C:\Projects\EggBot_GH\EBB_firmware\app.X\source\UBW.c
                 __pa_103   0x006dee    program     static C:\Projects\EggBot_GH\EBB_firmware\app.X\source\UBW.c
                 __pa_104   0x006df6    program     static C:\Projects\EggBot_GH\EBB_firmware\app.X\source\UBW.c
                 __pa_105   0x006dfe    program     static C:\Projects\EggBot_GH\EBB_firmware\app.X\source\UBW.c
                 __pa_106   0x006e06    program     static C:\Projects\EggBot_GH\EBB_firmware\app.X\source\UBW.c
                 __pa_107   0x006e12    program     static C:\Projects\EggBot_GH\EBB_firmware\app.X\source\UBW.c
                 __pa_108   0x006e1a    program     static C:\Projects\EggBot_GH\EBB_firmware\app.X\source\UBW.c
                 __pa_109   0x006e22    program     static C:\Projects\EggBot_GH\EBB_firmware\app.X\source\UBW.c
                 __pa_110   0x006e2a    program     static C:\Projects\EggBot_GH\EBB_firmware\app.X\source\UBW.c
                 __pa_111   0x006e30    program     static C:\Projects\EggBot_GH\EBB_firmware\app.X\source\UBW.c
                 __pa_112   0x006e38    program     static C:\Projects\EggBot_GH\EBB_firmware\app.X\source\UBW.c
                 __pa_113   0x006e3e    program     static C:\Projects\EggBot_GH\EBB_firmware\app.X\source\UBW.c
                 __pa_114   0x006e4c    program     static C:\Projects\EggBot_GH\EBB_firmware\app.X\source\UBW.c
                 __pa_115   0x006e54    program     static C:\Projects\EggBot_GH\EBB_firmware\app.X\source\UBW.c
                 __pa_116   0x006e5e    program     static C:\Projects\EggBot_GH\EBB_firmware\app.X\source\UBW.c
                 __pa_117   0x006e68    program     static C:\Projects\EggBot_GH\EBB_firmware\app.X\source\UBW.c
            USBDeviceInit   0x006e70    program     extern C:\Projects\EggBot_GH\EBB_firmware\Microchip\USB\usb_device.c
           USBDeviceTasks   0x006f3c    program     extern C:\Projects\EggBot_GH\EBB_firmware\Microchip\USB\usb_device.c
        USBEnableEndpoint   0x007096    program     extern C:\Projects\EggBot_GH\EBB_firmware\Microchip\USB\usb_device.c
     USBTransferOnePacket   0x0070de    program     extern C:\Projects\EggBot_GH\EBB_firmware\Microchip\USB\usb_device.c
         USBStallEndpoint   0x00716a    program     extern C:\Projects\EggBot_GH\EBB_firmware\Microchip\USB\usb_device.c
              USBCancelIO   0x00719c    program     extern C:\Projects\EggBot_GH\EBB_firmware\Microchip\USB\usb_device.c
USBCtrlEPAllowStatusStage   0x0071d2    program     extern C:\Projects\EggBot_GH\EBB_firmware\Microchip\USB\usb_device.c
  USBCtrlEPAllowDataStage   0x00721e    program     extern C:\Projects\EggBot_GH\EBB_firmware\Microchip\USB\usb_device.c
     USBConfigureEndpoint   0x00725c    program     static C:\Projects\EggBot_GH\EBB_firmware\Microchip\USB\usb_device.c
 USBCtrlEPServiceComplete   0x0072b8    program     static C:\Projects\EggBot_GH\EBB_firmware\Microchip\USB\usb_device.c
      USBCtrlTrfTxService   0x007312    program     static C:\Projects\EggBot_GH\EBB_firmware\Microchip\USB\usb_device.c
      USBCtrlTrfRxService   0x007392    program     static C:\Projects\EggBot_GH\EBB_firmware\Microchip\USB\usb_device.c
      USBStdSetCfgHandler   0x00745a    program     static C:\Projects\EggBot_GH\EBB_firmware\Microchip\USB\usb_device.c
      USBStdGetDscHandler   0x0074d2    program     static C:\Projects\EggBot_GH\EBB_firmware\Microchip\USB\usb_device.c
   USBStdGetStatusHandler   0x007578    program     static C:\Projects\EggBot_GH\EBB_firmware\Microchip\USB\usb_device.c
          USBStallHandler   0x0075ee    program     static C:\Projects\EggBot_GH\EBB_firmware\Microchip\USB\usb_device.c
               USBSuspend   0x007610    program     static C:\Projects\EggBot_GH\EBB_firmware\Microchip\USB\usb_device.c
       USBWakeFromSuspend   0x007626    program     static C:\Projects\EggBot_GH\EBB_firmware\Microchip\USB\usb_device.c
         USBCtrlEPService   0x007640    program     static C:\Projects\EggBot_GH\EBB_firmware\Microchip\USB\usb_device.c
   USBCtrlTrfSetupHandler   0x0076ce    program     static C:\Projects\EggBot_GH\EBB_firmware\Microchip\USB\usb_device.c
     USBCtrlTrfOutHandler   0x007704    program     static C:\Projects\EggBot_GH\EBB_firmware\Microchip\USB\usb_device.c
      USBCtrlTrfInHandler   0x007722    program     static C:\Projects\EggBot_GH\EBB_firmware\Microchip\USB\usb_device.c
       USBCheckStdRequest   0x00779c    program     static C:\Projects\EggBot_GH\EBB_firmware\Microchip\USB\usb_device.c
  USBStdFeatureReqHandler   0x007844    program     static C:\Projects\EggBot_GH\EBB_firmware\Microchip\USB\usb_device.c
                   __pa_0   0x00796e    program     static C:\Projects\EggBot_GH\EBB_firmware\Microchip\USB\usb_device.c
                   __pa_1   0x007976    program     static C:\Projects\EggBot_GH\EBB_firmware\Microchip\USB\usb_device.c
                   __pa_2   0x007980    program     static C:\Projects\EggBot_GH\EBB_firmware\Microchip\USB\usb_device.c
                   __pa_3   0x007988    program     static C:\Projects\EggBot_GH\EBB_firmware\Microchip\USB\usb_device.c
                   __pa_4   0x007992    program     static C:\Projects\EggBot_GH\EBB_firmware\Microchip\USB\usb_device.c
                   __pa_5   0x00799c    program     static C:\Projects\EggBot_GH\EBB_firmware\Microchip\USB\usb_device.c
              __tmplbl_39   0x0079a6    program     static                          
              __tmplbl_38   0x0079a6    program     static                          
                   __pa_6   0x0079a6    program     static C:\Projects\EggBot_GH\EBB_firmware\Microchip\USB\usb_device.c
              __tmplbl_40   0x0079a6    program     static                          
              __tmplbl_24   0x0079a6    program     static                          
              __tmplbl_35   0x0079a6    program     static                          
                   __pa_7   0x0079ae    program     static C:\Projects\EggBot_GH\EBB_firmware\Microchip\USB\usb_device.c
                   __pa_8   0x0079be    program     static C:\Projects\EggBot_GH\EBB_firmware\Microchip\USB\usb_device.c
                   __pa_9   0x0079c8    program     static C:\Projects\EggBot_GH\EBB_firmware\Microchip\USB\usb_device.c
                  __pa_10   0x0079d4    program     static C:\Projects\EggBot_GH\EBB_firmware\Microchip\USB\usb_device.c
                  __pa_11   0x0079e4    program     static C:\Projects\EggBot_GH\EBB_firmware\Microchip\USB\usb_device.c
                  __pa_12   0x0079ee    program     static C:\Projects\EggBot_GH\EBB_firmware\Microchip\USB\usb_device.c
                  __pa_13   0x007a02    program     static C:\Projects\EggBot_GH\EBB_firmware\Microchip\USB\usb_device.c
                  __pa_14   0x007a16    program     static C:\Projects\EggBot_GH\EBB_firmware\Microchip\USB\usb_device.c
                  __pa_15   0x007a22    program     static C:\Projects\EggBot_GH\EBB_firmware\Microchip\USB\usb_device.c
                  __pa_16   0x007a3c    program     static C:\Projects\EggBot_GH\EBB_firmware\Microchip\USB\usb_device.c
                  __pa_17   0x007a48    program     static C:\Projects\EggBot_GH\EBB_firmware\Microchip\USB\usb_device.c
                  __pa_18   0x007a54    program     static C:\Projects\EggBot_GH\EBB_firmware\Microchip\USB\usb_device.c
                  __pa_19   0x007a5c    program     static C:\Projects\EggBot_GH\EBB_firmware\Microchip\USB\usb_device.c
                  __pa_20   0x007a64    program     static C:\Projects\EggBot_GH\EBB_firmware\Microchip\USB\usb_device.c
                  __pa_21   0x007a70    program     static C:\Projects\EggBot_GH\EBB_firmware\Microchip\USB\usb_device.c
                  __pa_22   0x007a80    program     static C:\Projects\EggBot_GH\EBB_firmware\Microchip\USB\usb_device.c
                  __pa_23   0x007a8e    program     static C:\Projects\EggBot_GH\EBB_firmware\Microchip\USB\usb_device.c
                  __pa_24   0x007a9c    program     static C:\Projects\EggBot_GH\EBB_firmware\Microchip\USB\usb_device.c
                  __pa_25   0x007aaa    program     static C:\Projects\EggBot_GH\EBB_firmware\Microchip\USB\usb_device.c
                  __pa_26   0x007ab8    program     static C:\Projects\EggBot_GH\EBB_firmware\Microchip\USB\usb_device.c
                  __pa_27   0x007ac2    program     static C:\Projects\EggBot_GH\EBB_firmware\Microchip\USB\usb_device.c
                  __pa_28   0x007ada    program     static C:\Projects\EggBot_GH\EBB_firmware\Microchip\USB\usb_device.c
                  __pa_29   0x007ae6    program     static C:\Projects\EggBot_GH\EBB_firmware\Microchip\USB\usb_device.c
                  __pa_30   0x007aee    program     static C:\Projects\EggBot_GH\EBB_firmware\Microchip\USB\usb_device.c
                  __pa_31   0x007b02    program     static C:\Projects\EggBot_GH\EBB_firmware\Microchip\USB\usb_device.c
                  __pa_32   0x007b14    program     static C:\Projects\EggBot_GH\EBB_firmware\Microchip\USB\usb_device.c
                  __pa_33   0x007b22    program     static C:\Projects\EggBot_GH\EBB_firmware\Microchip\USB\usb_device.c
                  __pa_34   0x007b2c    program     static C:\Projects\EggBot_GH\EBB_firmware\Microchip\USB\usb_device.c
                  __pa_35   0x007b36    program     static C:\Projects\EggBot_GH\EBB_firmware\Microchip\USB\usb_device.c
                  __pa_36   0x007b3c    program     static C:\Projects\EggBot_GH\EBB_firmware\Microchip\USB\usb_device.c
                  __pa_37   0x007b44    program     static C:\Projects\EggBot_GH\EBB_firmware\Microchip\USB\usb_device.c
                  __pa_38   0x007b4a    program     static C:\Projects\EggBot_GH\EBB_firmware\Microchip\USB\usb_device.c
                  __pa_39   0x007b58    program     static C:\Projects\EggBot_GH\EBB_firmware\Microchip\USB\usb_device.c
                  __pa_40   0x007b66    program     static C:\Projects\EggBot_GH\EBB_firmware\Microchip\USB\usb_device.c
                  __pa_41   0x007b74    program     static C:\Projects\EggBot_GH\EBB_firmware\Microchip\USB\usb_device.c
                  __pa_42   0x007b7e    program     static C:\Projects\EggBot_GH\EBB_firmware\Microchip\USB\usb_device.c
                  __pa_43   0x007b88    program     static C:\Projects\EggBot_GH\EBB_firmware\Microchip\USB\usb_device.c
                  __pa_44   0x007b90    program     static C:\Projects\EggBot_GH\EBB_firmware\Microchip\USB\usb_device.c
                  __pa_45   0x007b9c    program     static C:\Projects\EggBot_GH\EBB_firmware\Microchip\USB\usb_device.c
                  __pa_46   0x007ba6    program     static C:\Projects\EggBot_GH\EBB_firmware\Microchip\USB\usb_device.c
              __string_26   0x007bae    program     static C:\Projects\EggBot_GH\EBB_firmware\app.X\source\ebb.c
              __string_25   0x007bd7    program     static C:\Projects\EggBot_GH\EBB_firmware\app.X\source\ebb.c
              __string_24   0x007c07    program     static C:\Projects\EggBot_GH\EBB_firmware\app.X\source\ebb.c
              __string_23   0x007c30    program     static C:\Projects\EggBot_GH\EBB_firmware\app.X\source\ebb.c
              __string_22   0x007c60    program     static C:\Projects\EggBot_GH\EBB_firmware\app.X\source\ebb.c
              __string_21   0x007c8d    program     static C:\Projects\EggBot_GH\EBB_firmware\app.X\source\ebb.c
              __string_20   0x007c97    program     static C:\Projects\EggBot_GH\EBB_firmware\app.X\source\ebb.c
              __string_19   0x007c9d    program     static C:\Projects\EggBot_GH\EBB_firmware\app.X\source\ebb.c
              __string_18   0x007ca3    program     static C:\Projects\EggBot_GH\EBB_firmware\app.X\source\ebb.c
              __string_17   0x007cb0    program     static C:\Projects\EggBot_GH\EBB_firmware\app.X\source\ebb.c
              __string_16   0x007ce1    program     static C:\Projects\EggBot_GH\EBB_firmware\app.X\source\ebb.c
              __string_15   0x007d12    program     static C:\Projects\EggBot_GH\EBB_firmware\app.X\source\ebb.c
              __string_14   0x007d40    program     static C:\Projects\EggBot_GH\EBB_firmware\app.X\source\ebb.c
              __string_13   0x007d64    program     static C:\Projects\EggBot_GH\EBB_firmware\app.X\source\ebb.c
              __string_12   0x007d92    program     static C:\Projects\EggBot_GH\EBB_firmware\app.X\source\ebb.c
              __string_11   0x007dbe    program     static C:\Projects\EggBot_GH\EBB_firmware\app.X\source\ebb.c
              __string_10   0x007de2    program     static C:\Projects\EggBot_GH\EBB_firmware\app.X\source\ebb.c
               __string_9   0x007e10    program     static C:\Projects\EggBot_GH\EBB_firmware\app.X\source\ebb.c
               __string_8   0x007e3c    program     static C:\Projects\EggBot_GH\EBB_firmware\app.X\source\ebb.c
               __string_7   0x007e6d    program     static C:\Projects\EggBot_GH\EBB_firmware\app.X\source\ebb.c
               __string_6   0x007e72    program     static C:\Projects\EggBot_GH\EBB_firmware\app.X\source\ebb.c
               __string_5   0x007e77    program     static C:\Projects\EggBot_GH\EBB_firmware\app.X\source\ebb.c
               __string_4   0x007e7c    program     static C:\Projects\EggBot_GH\EBB_firmware\app.X\source\ebb.c
               __string_3   0x007e81    program     static C:\Projects\EggBot_GH\EBB_firmware\app.X\source\ebb.c
               __string_2   0x007e86    program     static C:\Projects\EggBot_GH\EBB_firmware\app.X\source\ebb.c
               __string_1   0x007e8b    program     static C:\Projects\EggBot_GH\EBB_firmware\app.X\source\ebb.c
               __string_0   0x007e90    program     static C:\Projects\EggBot_GH\EBB_firmware\app.X\source\ebb.c
              __string_27   0x007e94    program     static C:\Projects\EggBot_GH\EBB_firmware\app.X\source\UBW.c
              __string_26   0x007e9c    program     static C:\Projects\EggBot_GH\EBB_firmware\app.X\source\UBW.c
              __string_25   0x007ebe    program     static C:\Projects\EggBot_GH\EBB_firmware\app.X\source\UBW.c
              __string_24   0x007ec6    program     static C:\Projects\EggBot_GH\EBB_firmware\app.X\source\UBW.c
              __string_23   0x007ece    program     static C:\Projects\EggBot_GH\EBB_firmware\app.X\source\UBW.c
              __string_22   0x007ed6    program     static C:\Projects\EggBot_GH\EBB_firmware\app.X\source\UBW.c
              __string_21   0x007ede    program     static C:\Projects\EggBot_GH\EBB_firmware\app.X\source\UBW.c
              __string_20   0x007ee6    program     static C:\Projects\EggBot_GH\EBB_firmware\app.X\source\UBW.c
              __string_19   0x007eee    program     static C:\Projects\EggBot_GH\EBB_firmware\app.X\source\UBW.c
              __string_18   0x007ef6    program     static C:\Projects\EggBot_GH\EBB_firmware\app.X\source\UBW.c
              __string_17   0x007efe    program     static C:\Projects\EggBot_GH\EBB_firmware\app.X\source\UBW.c
              __string_16   0x007f01    program     static C:\Projects\EggBot_GH\EBB_firmware\app.X\source\UBW.c
              __string_15   0x007f04    program     static C:\Projects\EggBot_GH\EBB_firmware\app.X\source\UBW.c
              __string_14   0x007f07    program     static C:\Projects\EggBot_GH\EBB_firmware\app.X\source\UBW.c
              __string_13   0x007f09    program     static C:\Projects\EggBot_GH\EBB_firmware\app.X\source\UBW.c
              __string_12   0x007f23    program     static C:\Projects\EggBot_GH\EBB_firmware\app.X\source\UBW.c
              __string_11   0x007f4c    program     static C:\Projects\EggBot_GH\EBB_firmware\app.X\source\UBW.c
              __string_10   0x007f72    program     static C:\Projects\EggBot_GH\EBB_firmware\app.X\source\UBW.c
               __string_9   0x007f91    program     static C:\Projects\EggBot_GH\EBB_firmware\app.X\source\UBW.c
               __string_8   0x007fa9    program     static C:\Projects\EggBot_GH\EBB_firmware\app.X\source\UBW.c
               __string_7   0x007fc9    program     static C:\Projects\EggBot_GH\EBB_firmware\app.X\source\UBW.c
               __string_6   0x007fe6    program     static C:\Projects\EggBot_GH\EBB_firmware\app.X\source\UBW.c
               __string_5   0x008000    program     static C:\Projects\EggBot_GH\EBB_firmware\app.X\source\UBW.c
               __string_4   0x00801a    program     static C:\Projects\EggBot_GH\EBB_firmware\app.X\source\UBW.c
               __string_3   0x008037    program     static C:\Projects\EggBot_GH\EBB_firmware\app.X\source\UBW.c
               __string_2   0x00803b    program     static C:\Projects\EggBot_GH\EBB_firmware\app.X\source\UBW.c
               __string_1   0x00803e    program     static C:\Projects\EggBot_GH\EBB_firmware\app.X\source\UBW.c
            RCServo2_Init   0x00804a    program     extern C:\Projects\EggBot_GH\EBB_firmware\app.X\source\RCServo2.c
RCServo2_get_channel_from_RPn   0x0080fc    program     extern C:\Projects\EggBot_GH\EBB_firmware\app.X\source\RCServo2.c
      RCServo2_S2_command   0x00813a    program     extern C:\Projects\EggBot_GH\EBB_firmware\app.X\source\RCServo2.c
            RCServo2_Move   0x0081e4    program     extern C:\Projects\EggBot_GH\EBB_firmware\app.X\source\RCServo2.c
                   __pa_0   0x0083a4    program     static C:\Projects\EggBot_GH\EBB_firmware\app.X\source\RCServo2.c
                   __pa_1   0x0083ac    program     static C:\Projects\EggBot_GH\EBB_firmware\app.X\source\RCServo2.c
                   __pa_2   0x0083b6    program     static C:\Projects\EggBot_GH\EBB_firmware\app.X\source\RCServo2.c
                   __pa_3   0x0083c6    program     static C:\Projects\EggBot_GH\EBB_firmware\app.X\source\RCServo2.c
                   __pa_4   0x0083d2    program     static C:\Projects\EggBot_GH\EBB_firmware\app.X\source\RCServo2.c
                   __pa_5   0x0083de    program     static C:\Projects\EggBot_GH\EBB_firmware\app.X\source\RCServo2.c
                   __pa_6   0x0083ea    program     static C:\Projects\EggBot_GH\EBB_firmware\app.X\source\RCServo2.c
                   __pa_7   0x0083f4    program     static C:\Projects\EggBot_GH\EBB_firmware\app.X\source\RCServo2.c
                   __pa_8   0x0083fc    program     static C:\Projects\EggBot_GH\EBB_firmware\app.X\source\RCServo2.c
                   __pa_9   0x008404    program     static C:\Projects\EggBot_GH\EBB_firmware\app.X\source\RCServo2.c
                  __pa_10   0x00840c    program     static C:\Projects\EggBot_GH\EBB_firmware\app.X\source\RCServo2.c
                  __pa_11   0x008416    program     static C:\Projects\EggBot_GH\EBB_firmware\app.X\source\RCServo2.c
                  __pa_12   0x008426    program     static C:\Projects\EggBot_GH\EBB_firmware\app.X\source\RCServo2.c
       USBCheckCDCRequest   0x008434    program     extern C:\Projects\EggBot_GH\EBB_firmware\Microchip\USB\CDC Device Driver\usb_function_cdc.c
                CDCInitEP   0x0084d0    program     extern C:\Projects\EggBot_GH\EBB_firmware\Microchip\USB\CDC Device Driver\usb_function_cdc.c
       USBCDCEventHandler   0x008512    program     extern C:\Projects\EggBot_GH\EBB_firmware\Microchip\USB\CDC Device Driver\usb_function_cdc.c
             getsUSBUSART   0x00854e    program     extern C:\Projects\EggBot_GH\EBB_firmware\Microchip\USB\CDC Device Driver\usb_function_cdc.c
              putUSBUSART   0x0085cc    program     extern C:\Projects\EggBot_GH\EBB_firmware\Microchip\USB\CDC Device Driver\usb_function_cdc.c
             putsUSBUSART   0x0085e4    program     extern C:\Projects\EggBot_GH\EBB_firmware\Microchip\USB\CDC Device Driver\usb_function_cdc.c
            putrsUSBUSART   0x008624    program     extern C:\Projects\EggBot_GH\EBB_firmware\Microchip\USB\CDC Device Driver\usb_function_cdc.c
             CDCTxService   0x008666    program     extern C:\Projects\EggBot_GH\EBB_firmware\Microchip\USB\CDC Device Driver\usb_function_cdc.c
                   __pa_0   0x008740    program     static C:\Projects\EggBot_GH\EBB_firmware\Microchip\USB\CDC Device Driver\usb_function_cdc.c
                   __pa_1   0x00875a    program     static C:\Projects\EggBot_GH\EBB_firmware\Microchip\USB\CDC Device Driver\usb_function_cdc.c
                   __pa_2   0x00876a    program     static C:\Projects\EggBot_GH\EBB_firmware\Microchip\USB\CDC Device Driver\usb_function_cdc.c
                   __pa_3   0x00877c    program     static C:\Projects\EggBot_GH\EBB_firmware\Microchip\USB\CDC Device Driver\usb_function_cdc.c
                   __pa_4   0x008796    program     static C:\Projects\EggBot_GH\EBB_firmware\Microchip\USB\CDC Device Driver\usb_function_cdc.c
                   __pa_5   0x0087a0    program     static C:\Projects\EggBot_GH\EBB_firmware\Microchip\USB\CDC Device Driver\usb_function_cdc.c
                   __pa_6   0x0087a8    program     static C:\Projects\EggBot_GH\EBB_firmware\Microchip\USB\CDC Device Driver\usb_function_cdc.c
                   __pa_7   0x0087b6    program     static C:\Projects\EggBot_GH\EBB_firmware\Microchip\USB\CDC Device Driver\usb_function_cdc.c
                   __pa_8   0x0087c4    program     static C:\Projects\EggBot_GH\EBB_firmware\Microchip\USB\CDC Device Driver\usb_function_cdc.c
                   __pa_9   0x0087ce    program     static C:\Projects\EggBot_GH\EBB_firmware\Microchip\USB\CDC Device Driver\usb_function_cdc.c
                  __pa_10   0x0087e0    program     static C:\Projects\EggBot_GH\EBB_firmware\Microchip\USB\CDC Device Driver\usb_function_cdc.c
                  __pa_11   0x0087ee    program     static C:\Projects\EggBot_GH\EBB_firmware\Microchip\USB\CDC Device Driver\usb_function_cdc.c
                ebb_print   0x0087fa    program     extern C:\Projects\EggBot_GH\EBB_firmware\app.X\source\ebb_print.c
            ebb_print_ram   0x00881c    program     extern C:\Projects\EggBot_GH\EBB_firmware\app.X\source\ebb_print.c
            ebb_print_hex   0x008834    program     extern C:\Projects\EggBot_GH\EBB_firmware\app.X\source\ebb_print.c
           ebb_print_uint   0x0088a8    program     extern C:\Projects\EggBot_GH\EBB_firmware\app.X\source\ebb_print.c
            ebb_print_int   0x0088e0    program     extern C:\Projects\EggBot_GH\EBB_firmware\app.X\source\ebb_print.c
                   __pa_0   0x00894c    program     static C:\Projects\EggBot_GH\EBB_firmware\app.X\source\ebb_print.c
                   __pa_1   0x008966    program     static C:\Projects\EggBot_GH\EBB_firmware\app.X\source\ebb_print.c
                   __pa_2   0x008980    program     static C:\Projects\EggBot_GH\EBB_firmware\app.X\source\ebb_print.c
                   __pa_3   0x00899e    program     static C:\Projects\EggBot_GH\EBB_firmware\app.X\source\ebb_print.c
                   __pa_4   0x0089b6    program     static C:\Projects\EggBot_GH\EBB_firmware\app.X\source\ebb_print.c
                   __pa_5   0x0089c0    program     static C:\Projects\EggBot_GH\EBB_firmware\app.X\source\ebb_print.c
                   __pa_6   0x0089cc    program     static C:\Projects\EggBot_GH\EBB_firmware\app.X\source\ebb_print.c
                   __pa_7   0x0089dc    program     static C:\Projects\EggBot_GH\EBB_firmware\app.X\source\ebb_print.c
                   __pa_8   0x0089ea    program     static C:\Projects\EggBot_GH\EBB_firmware\app.X\source\ebb_print.c
                   __pa_9   0x0089f4    program     static C:\Projects\EggBot_GH\EBB_firmware\app.X\source\ebb_print.c
                  __pa_10   0x008a0a    program     static C:\Projects\EggBot_GH\EBB_firmware\app.X\source\ebb_print.c
                  __pa_11   0x008a12    program     static C:\Projects\EggBot_GH\EBB_firmware\app.X\source\ebb_print.c
                  __pa_12   0x008a1e    program     static C:\Projects\EggBot_GH\EBB_firmware\app.X\source\ebb_print.c
          WriteBytesFlash   0x008a2a    program     extern E:\3.46\pic18-lt\cxx-framework\src\pmc_common\Flash\WriteBytesFlash.c
        ___while_lbl00001   0x008b14    program     static                          
        ___while_lbl00003   0x008b38    program     static                          
           ___if_lbl00005   0x008b72    program     static                          
        ___while_lbl00004   0x008b74    program     static                          
           ___if_lbl00006   0x008b94    program     static                          
           ___if_lbl00007   0x008bac    program     static                          
        ___while_lbl00002   0x008bf0    program     static                          
       ___return_lbl00000   0x008bf0    program     static                          
                     main   0x008c08    program     extern C:\Projects\EggBot_GH\EBB_firmware\app.X\source\main.c
         InitializeSystem   0x008c18    program     static C:\Projects\EggBot_GH\EBB_firmware\app.X\source\main.c
             USBCBSuspend   0x008c6c    program     extern C:\Projects\EggBot_GH\EBB_firmware\app.X\source\main.c
     USBCBWakeFromSuspend   0x008c6e    program     extern C:\Projects\EggBot_GH\EBB_firmware\app.X\source\main.c
        USBCB_SOF_Handler   0x008c70    program     extern C:\Projects\EggBot_GH\EBB_firmware\app.X\source\main.c
        USBCBErrorHandler   0x008c72    program     extern C:\Projects\EggBot_GH\EBB_firmware\app.X\source\main.c
       USBCBCheckOtherReq   0x008c74    program     extern C:\Projects\EggBot_GH\EBB_firmware\app.X\source\main.c
    USBCBStdSetDscHandler   0x008c78    program     extern C:\Projects\EggBot_GH\EBB_firmware\app.X\source\main.c
              USBCBInitEP   0x008c7a    program     extern C:\Projects\EggBot_GH\EBB_firmware\app.X\source\main.c
          USBCBSendResume   0x008c7e    program     extern C:\Projects\EggBot_GH\EBB_firmware\app.X\source\main.c
USER_USB_CALLBACK_EVENT_HANDLER   0x008cc2    program     extern C:\Projects\EggBot_GH\EBB_firmware\app.X\source\main.c
               EraseFlash   0x008d56    program     extern E:\3.46\pic18-lt\cxx-framework\src\pmc_common\Flash\EraseFlash.c
                   __pa_0   0x008e40    program     static E:\3.46\pic18-lt\cxx-framework\src\pmc_common\Flash\EraseFlash.c
               st_version   0x008e4e    program     extern C:\Projects\EggBot_GH\EBB_firmware\app.X\source\UBW.c
              RPnTRISPort   0x008e7d    program     extern C:\Projects\EggBot_GH\EBB_firmware\app.X\source\UBW.c
               RPnLATPort   0x008eaf    program     extern C:\Projects\EggBot_GH\EBB_firmware\app.X\source\UBW.c
                   RPnBit   0x008ee1    program     extern C:\Projects\EggBot_GH\EBB_firmware\app.X\source\UBW.c
                _do_cinit   0x008efa    program     extern C:\MCC18\src\traditional\startup\c018i.c
                     test   0x008f14    program     static                          
                copy_loop   0x008f6c    program     static                          
            copy_one_byte   0x008f72    program     static                          
             done_copying   0x008f80    program     static                          
       ___return_lbl00001   0x008f96    program     static                          
                     done   0x008f96    program     static                          
                ReadFlash   0x008f98    program     extern E:\3.46\pic18-lt\cxx-framework\src\pmc_common\Flash\ReadFlash.c
        ___while_lbl00001   0x008fe0    program     static                          
       ___return_lbl00000   0x009012    program     static                          
        ___while_lbl00002   0x009012    program     static                          
               Open1USART   0x00902a    program     extern E:\3.46\pic18-lt\cxx-framework\src\pmc_common\USART\u1open.c
                  FXM3232   0x00909c    program     extern E:\3.46\pic18-lt\cxx-framework\src\traditional\math\fxm3232.c
       ___return_lbl00000   0x00910a    program     static                          
                 FXD3232S   0x00910c    program     extern E:\3.46\pic18-lt\cxx-framework\src\traditional\math\fxd3232s.asm
                  DA3232S   0x009126    program     static E:\3.46\pic18-lt\cxx-framework\src\traditional\math\fxd3232s.asm
                   D3232S   0x00913c    program     static E:\3.46\pic18-lt\cxx-framework\src\traditional\math\fxd3232s.asm
                 D3232SOK   0x009146    program     static E:\3.46\pic18-lt\cxx-framework\src\traditional\math\fxd3232s.asm
                D3232SNEG   0x00914a    program     static E:\3.46\pic18-lt\cxx-framework\src\traditional\math\fxd3232s.asm
                  D3232SX   0x00916a    program     static E:\3.46\pic18-lt\cxx-framework\src\traditional\math\fxd3232s.asm
               device_dsc   0x009174    program     extern C:\Projects\EggBot_GH\EBB_firmware\app.X\source\usb_descriptors.c
        configDescriptor1   0x009186    program     extern C:\Projects\EggBot_GH\EBB_firmware\app.X\source\usb_descriptors.c
               USB_CD_Ptr   0x0091c9    program     extern C:\Projects\EggBot_GH\EBB_firmware\app.X\source\usb_descriptors.c
                 FXD3232U   0x0091cc    program     extern E:\3.46\pic18-lt\cxx-framework\src\traditional\math\fxd3232u.c
                     loop   0x0091da    program     static                          
                   _false   0x00920e    program     static                          
       ___return_lbl00000   0x009212    program     static                          
                   memset   0x009214    program     extern E:\3.46\pic18-lt\cxx-framework\src\traditional\stdclib\memset.asm
                    jLoop   0x009228    program     static E:\3.46\pic18-lt\cxx-framework\src\traditional\stdclib\memset.asm
              _2jContinue   0x009234    program     static E:\3.46\pic18-lt\cxx-framework\src\traditional\stdclib\memset.asm
                   _3jEnd   0x00923e    program     static E:\3.46\pic18-lt\cxx-framework\src\traditional\stdclib\memset.asm
                     jEnd   0x009246    program     static E:\3.46\pic18-lt\cxx-framework\src\traditional\stdclib\memset.asm
              Write1USART   0x009248    program     extern E:\3.46\pic18-lt\cxx-framework\src\pmc_common\USART\u1write.c
                  toupper   0x009276    program     extern E:\3.46\pic18-lt\cxx-framework\src\traditional\stdclib\toupper.asm
                 jNoMatch   0x00929c    program     static E:\3.46\pic18-lt\cxx-framework\src\traditional\stdclib\toupper.asm
            __zero_memory   0x00929e    program     extern E:\3.46\pic18-lt\cxx-framework\src\traditional\proc\p18f46j50.asm
               zero_block   0x0092ac    program     static E:\3.46\pic18-lt\cxx-framework\src\traditional\proc\p18f46j50.asm
                   loop_h   0x0092ac    program     static E:\3.46\pic18-lt\cxx-framework\src\traditional\proc\p18f46j50.asm
                compare_l   0x0092b4    program     static E:\3.46\pic18-lt\cxx-framework\src\traditional\proc\p18f46j50.asm
                   loop_l   0x0092b6    program     static E:\3.46\pic18-lt\cxx-framework\src\traditional\proc\p18f46j50.asm
                 _startup   0x0092be    program     extern C:\MCC18\src\traditional\startup\c018i.c
                     loop   0x0092ce    program     static                          
       ___return_lbl00000   0x0092d8    program     static                          
                  pow2x16   0x0092da    program     extern E:\3.46\pic18-lt\cxx-framework\src\traditional\math\pow2x16.c
       ___return_lbl00000   0x0092ee    program     static                          
                   __init   0x0092f0    program     extern E:\3.46\pic18-lt\cxx-framework\src\traditional\stdclib\__init.c
                  AllDone   0x000000       data     static C:\Projects\EggBot_GH\EBB_firmware\app.X\source\ebb.c
                    isr_i   0x000001       data     static C:\Projects\EggBot_GH\EBB_firmware\app.X\source\ebb.c
               AxisActive   0x000002       data     static C:\Projects\EggBot_GH\EBB_firmware\app.X\source\ebb.c
      DriverConfiguration   0x000004       data     extern C:\Projects\EggBot_GH\EBB_firmware\app.X\source\ebb.c
           gUseRCPenServo   0x000005       data     static C:\Projects\EggBot_GH\EBB_firmware\app.X\source\ebb.c
         gRedLEDEmptyFIFO   0x000006       data     extern C:\Projects\EggBot_GH\EBB_firmware\app.X\source\ebb.c
             ButtonPushed   0x000007       data     static C:\Projects\EggBot_GH\EBB_firmware\app.X\source\ebb.c
              UseAltPause   0x000008       data     static C:\Projects\EggBot_GH\EBB_firmware\app.X\source\ebb.c
                 TestMode   0x000009       data     extern C:\Projects\EggBot_GH\EBB_firmware\app.X\source\ebb.c
              ISR_Channel   0x00000a       data     static C:\Projects\EggBot_GH\EBB_firmware\app.X\source\ebb.c
                PortBTemp   0x00000b       data     static C:\Projects\EggBot_GH\EBB_firmware\app.X\source\ebb.c
         gLimitSwitchMask   0x00000c       data     extern C:\Projects\EggBot_GH\EBB_firmware\app.X\source\ebb.c
       gLimitSwitchTarget   0x00000d       data     extern C:\Projects\EggBot_GH\EBB_firmware\app.X\source\ebb.c
    gLimitSwitchTriggered   0x00000e       data     extern C:\Projects\EggBot_GH\EBB_firmware\app.X\source\ebb.c
                       xx   0x00000f       data     static C:\Projects\EggBot_GH\EBB_firmware\app.X\source\ebb.c
                      nib   0x000013       data     static C:\Projects\EggBot_GH\EBB_firmware\app.X\source\ebb.c
              gFIFOLength   0x000014       data     extern C:\Projects\EggBot_GH\EBB_firmware\app.X\source\ebb.c
                  gFIFOIn   0x000015       data     extern C:\Projects\EggBot_GH\EBB_firmware\app.X\source\ebb.c
                 gFIFOOut   0x000016       data     extern C:\Projects\EggBot_GH\EBB_firmware\app.X\source\ebb.c
             gFIFOCommand   0x000017       data     static C:\Projects\EggBot_GH\EBB_firmware\app.X\source\ebb.c
       gCurrentFIFOLength   0x000018       data     extern C:\Projects\EggBot_GH\EBB_firmware\app.X\source\ebb.c
        FIFO_out_ptr_high   0x000019       data     extern C:\Projects\EggBot_GH\EBB_firmware\app.X\source\ebb.c
         FIFO_out_ptr_low   0x00001a       data     extern C:\Projects\EggBot_GH\EBB_firmware\app.X\source\ebb.c
       globalStepCounter1   0x00001b       data     static C:\Projects\EggBot_GH\EBB_firmware\app.X\source\ebb.c
       globalStepCounter2   0x00001f       data     static C:\Projects\EggBot_GH\EBB_firmware\app.X\source\ebb.c
                     SIGN   0x000023       data     extern E:\3.46\pic18-lt\cxx-framework\src\traditional\math\cmath18.asm
                __FPFLAGS   0x000024       data     extern E:\3.46\pic18-lt\cxx-framework\src\traditional\math\cmath18.asm
            __FPFLAGSbits   0x000024       data     extern E:\3.46\pic18-lt\cxx-framework\src\traditional\math\cmath18.asm
                 __AARGB7   0x000025       data     extern E:\3.46\pic18-lt\cxx-framework\src\traditional\math\aarg.asm
                  __REMB3   0x000025       data     extern E:\3.46\pic18-lt\cxx-framework\src\traditional\math\aarg.asm
                 __AARGB6   0x000026       data     extern E:\3.46\pic18-lt\cxx-framework\src\traditional\math\aarg.asm
                  __REMB2   0x000026       data     extern E:\3.46\pic18-lt\cxx-framework\src\traditional\math\aarg.asm
                 __AARGB5   0x000027       data     extern E:\3.46\pic18-lt\cxx-framework\src\traditional\math\aarg.asm
                  __REMB1   0x000027       data     extern E:\3.46\pic18-lt\cxx-framework\src\traditional\math\aarg.asm
                 __AARGB4   0x000028       data     extern E:\3.46\pic18-lt\cxx-framework\src\traditional\math\aarg.asm
                  __REMB0   0x000028       data     extern E:\3.46\pic18-lt\cxx-framework\src\traditional\math\aarg.asm
                 __AARGB3   0x000029       data     extern E:\3.46\pic18-lt\cxx-framework\src\traditional\math\aarg.asm
                 __AARGB2   0x00002a       data     extern E:\3.46\pic18-lt\cxx-framework\src\traditional\math\aarg.asm
                 __AARGB1   0x00002b       data     extern E:\3.46\pic18-lt\cxx-framework\src\traditional\math\aarg.asm
                 __AARGB0   0x00002c       data     extern E:\3.46\pic18-lt\cxx-framework\src\traditional\math\aarg.asm
                   __AEXP   0x00002d       data     extern E:\3.46\pic18-lt\cxx-framework\src\traditional\math\aarg.asm
                 __BARGB3   0x00002e       data     extern E:\3.46\pic18-lt\cxx-framework\src\traditional\math\barg.asm
                 __BARGB2   0x00002f       data     extern E:\3.46\pic18-lt\cxx-framework\src\traditional\math\barg.asm
                 __BARGB1   0x000030       data     extern E:\3.46\pic18-lt\cxx-framework\src\traditional\math\barg.asm
                 __BARGB0   0x000031       data     extern E:\3.46\pic18-lt\cxx-framework\src\traditional\math\barg.asm
                   __BEXP   0x000032       data     extern E:\3.46\pic18-lt\cxx-framework\src\traditional\math\barg.asm
                  __tmp_0   0x000033       data     static E:\3.46\pic18-lt\cxx-framework\src\pmc_common\Flash\WriteBytesFlash.c
                  __tmp_0   0x000033       data     static C:\Projects\EggBot_GH\EBB_firmware\app.X\source\ebb_print.c
                  __tmp_0   0x000033       data     static C:\Projects\EggBot_GH\EBB_firmware\app.X\source\UBW.c
                  __tmp_0   0x000033       data     static E:\3.46\pic18-lt\cxx-framework\src\pmc_common\Flash\ReadFlash.c
                  __tmp_0   0x000033       data     static E:\3.46\pic18-lt\cxx-framework\src\pmc_common\USART\u1open.c
                  __tmp_0   0x000033       data     static E:\3.46\pic18-lt\cxx-framework\src\pmc_common\Flash\EraseFlash.c
                  __tmp_0   0x000033       data     static C:\Projects\EggBot_GH\EBB_firmware\app.X\source\RCServo2.c
                  __tmp_0   0x000033       data     static C:\Projects\EggBot_GH\EBB_firmware\app.X\source\main.c
                  __tmp_0   0x000033       data     static C:\Projects\EggBot_GH\EBB_firmware\app.X\source\ebb.c
                  __tmp_0   0x000033       data     static C:\Projects\EggBot_GH\EBB_firmware\Microchip\USB\CDC Device Driver\usb_function_cdc.c
                  __tmp_0   0x000033       data     static C:\Projects\EggBot_GH\EBB_firmware\Microchip\USB\usb_device.c
                  __tmp_1   0x00003b       data     static C:\Projects\EggBot_GH\EBB_firmware\app.X\source\UBW.c
                  __tmp_1   0x00003f       data     static C:\Projects\EggBot_GH\EBB_firmware\app.X\source\ebb.c
            gRC2msCounter   0x000060       data     extern C:\Projects\EggBot_GH\EBB_firmware\app.X\source\RCServo2.c
                gRC2Value   0x000061       data     extern C:\Projects\EggBot_GH\EBB_firmware\app.X\source\RCServo2.c
                  gRC2RPn   0x000069       data     extern C:\Projects\EggBot_GH\EBB_firmware\app.X\source\RCServo2.c
               gRC2Target   0x00006d       data     extern C:\Projects\EggBot_GH\EBB_firmware\app.X\source\RCServo2.c
                 gRC2Rate   0x000075       data     extern C:\Projects\EggBot_GH\EBB_firmware\app.X\source\RCServo2.c
                  gRC2Ptr   0x00007d       data     extern C:\Projects\EggBot_GH\EBB_firmware\app.X\source\RCServo2.c
                gRC2Slots   0x00007e       data     extern C:\Projects\EggBot_GH\EBB_firmware\app.X\source\RCServo2.c
               gRC2SlotMS   0x00007f       data     extern C:\Projects\EggBot_GH\EBB_firmware\app.X\source\RCServo2.c
              gRC2RPORPtr   0x000080       data     extern C:\Projects\EggBot_GH\EBB_firmware\app.X\source\RCServo2.c
             g_servo2_max   0x000082       data     extern C:\Projects\EggBot_GH\EBB_firmware\app.X\source\RCServo2.c
             g_servo2_min   0x000084       data     extern C:\Projects\EggBot_GH\EBB_firmware\app.X\source\RCServo2.c
         g_servo2_rate_up   0x000086       data     extern C:\Projects\EggBot_GH\EBB_firmware\app.X\source\RCServo2.c
       g_servo2_rate_down   0x000088       data     extern C:\Projects\EggBot_GH\EBB_firmware\app.X\source\RCServo2.c
             g_servo2_RPn   0x00008a       data     extern C:\Projects\EggBot_GH\EBB_firmware\app.X\source\RCServo2.c
     time_between_updates   0x00008b       data     extern C:\Projects\EggBot_GH\EBB_firmware\app.X\source\UBW.c
         ISR_D_RepeatRate   0x00008d       data     extern C:\Projects\EggBot_GH\EBB_firmware\app.X\source\UBW.c
            ISR_D_FIFO_in   0x00008f       data     extern C:\Projects\EggBot_GH\EBB_firmware\app.X\source\UBW.c
           ISR_D_FIFO_out   0x000090       data     extern C:\Projects\EggBot_GH\EBB_firmware\app.X\source\UBW.c
        ISR_D_FIFO_length   0x000091       data     extern C:\Projects\EggBot_GH\EBB_firmware\app.X\source\UBW.c
         ISR_A_RepeatRate   0x000092       data     extern C:\Projects\EggBot_GH\EBB_firmware\app.X\source\UBW.c
            ISR_A_FIFO_in   0x000094       data     extern C:\Projects\EggBot_GH\EBB_firmware\app.X\source\UBW.c
           ISR_A_FIFO_out   0x000095       data     extern C:\Projects\EggBot_GH\EBB_firmware\app.X\source\UBW.c
        ISR_A_FIFO_length   0x000096       data     extern C:\Projects\EggBot_GH\EBB_firmware\app.X\source\UBW.c
               error_byte   0x000097       data     extern C:\Projects\EggBot_GH\EBB_firmware\app.X\source\UBW.c
          g_RC_primed_ptr   0x000098       data     extern C:\Projects\EggBot_GH\EBB_firmware\app.X\source\UBW.c
            g_RC_next_ptr   0x000099       data     extern C:\Projects\EggBot_GH\EBB_firmware\app.X\source\UBW.c
          g_RC_timing_ptr   0x00009a       data     extern C:\Projects\EggBot_GH\EBB_firmware\app.X\source\UBW.c
           D_tick_counter   0x00009b       data     extern C:\Projects\EggBot_GH\EBB_firmware\app.X\source\UBW.c
           A_tick_counter   0x00009d       data     extern C:\Projects\EggBot_GH\EBB_firmware\app.X\source\UBW.c
            A_cur_channel   0x00009f       data     extern C:\Projects\EggBot_GH\EBB_firmware\app.X\source\UBW.c
           AnalogInitiate   0x0000a0       data     extern C:\Projects\EggBot_GH\EBB_firmware\app.X\source\UBW.c
    AnalogEnabledChannels   0x0000a1       data     extern C:\Projects\EggBot_GH\EBB_firmware\app.X\source\UBW.c
               ChannelBit   0x0000a3       data     extern C:\Projects\EggBot_GH\EBB_firmware\app.X\source\UBW.c
g_PowerMonitorThresholdADC   0x0000a5       data     extern C:\Projects\EggBot_GH\EBB_firmware\app.X\source\UBW.c
      g_PowerDropDetected   0x0000a7       data     extern C:\Projects\EggBot_GH\EBB_firmware\app.X\source\UBW.c
    g_StepperDisableState   0x0000a8       data     extern C:\Projects\EggBot_GH\EBB_firmware\app.X\source\UBW.c
 g_StepperDisableTimeoutS   0x0000a9       data     extern C:\Projects\EggBot_GH\EBB_firmware\app.X\source\UBW.c
g_StepperDisableSecondCounter   0x0000ab       data     extern C:\Projects\EggBot_GH\EBB_firmware\app.X\source\UBW.c
g_StepperDisableCountdownS   0x0000ad       data     extern C:\Projects\EggBot_GH\EBB_firmware\app.X\source\UBW.c
           g_USART_RX_buf   0x0000af       data     extern C:\Projects\EggBot_GH\EBB_firmware\app.X\source\UBW.c
           g_USART_TX_buf   0x0000b9       data     extern C:\Projects\EggBot_GH\EBB_firmware\app.X\source\UBW.c
                g_BO_init   0x0000c3       data     extern C:\Projects\EggBot_GH\EBB_firmware\app.X\source\UBW.c
         g_BO_strobe_mask   0x0000c4       data     extern C:\Projects\EggBot_GH\EBB_firmware\app.X\source\UBW.c
           g_BO_wait_mask   0x0000c5       data     extern C:\Projects\EggBot_GH\EBB_firmware\app.X\source\UBW.c
          g_BO_wait_delay   0x0000c6       data     extern C:\Projects\EggBot_GH\EBB_firmware\app.X\source\UBW.c
        g_BO_strobe_delay   0x0000c7       data     extern C:\Projects\EggBot_GH\EBB_firmware\app.X\source\UBW.c
              g_TX_buf_in   0x0000c8       data     extern C:\Projects\EggBot_GH\EBB_firmware\app.X\source\UBW.c
             g_TX_buf_out   0x0000c9       data     extern C:\Projects\EggBot_GH\EBB_firmware\app.X\source\UBW.c
              g_RX_buf_in   0x0000ca       data     extern C:\Projects\EggBot_GH\EBB_firmware\app.X\source\UBW.c
             g_RX_buf_out   0x0000cb       data     extern C:\Projects\EggBot_GH\EBB_firmware\app.X\source\UBW.c
        g_USART_RX_buf_in   0x0000cc       data     extern C:\Projects\EggBot_GH\EBB_firmware\app.X\source\UBW.c
       g_USART_RX_buf_out   0x0000cd       data     extern C:\Projects\EggBot_GH\EBB_firmware\app.X\source\UBW.c
        g_USART_TX_buf_in   0x0000ce       data     extern C:\Projects\EggBot_GH\EBB_firmware\app.X\source\UBW.c
       g_USART_TX_buf_out   0x0000cf       data     extern C:\Projects\EggBot_GH\EBB_firmware\app.X\source\UBW.c
             g_ack_enable   0x0000d0       data     extern C:\Projects\EggBot_GH\EBB_firmware\app.X\source\UBW.c
gRCServoPoweroffCounterMS   0x0000d1       data     extern C:\Projects\EggBot_GH\EBB_firmware\app.X\source\UBW.c
gRCServoPoweroffCounterReloadMS   0x0000d5       data     extern C:\Projects\EggBot_GH\EBB_firmware\app.X\source\UBW.c
    gAutomaticMotorEnable   0x0000d9       data     extern C:\Projects\EggBot_GH\EBB_firmware\app.X\source\UBW.c
           gCommand_Char1   0x0000da       data     extern C:\Projects\EggBot_GH\EBB_firmware\app.X\source\UBW.c
           gCommand_Char2   0x0000db       data     extern C:\Projects\EggBot_GH\EBB_firmware\app.X\source\UBW.c
        gLimitSwitchPortB   0x0000dc       data     extern C:\Projects\EggBot_GH\EBB_firmware\app.X\source\UBW.c
      gLimitSwitchReplies   0x0000dd       data     extern C:\Projects\EggBot_GH\EBB_firmware\app.X\source\UBW.c
 gLimitSwitchReplyPrinted   0x0000de       data     extern C:\Projects\EggBot_GH\EBB_firmware\app.X\source\UBW.c
 gCommandChecksumRequired   0x0000df       data     extern C:\Projects\EggBot_GH\EBB_firmware\app.X\source\UBW.c
          gStackHighWater   0x0000e0       data     static C:\Projects\EggBot_GH\EBB_firmware\app.X\source\UBW.c
            RC2Difference   0x0000e2       data     static C:\Projects\EggBot_GH\EBB_firmware\app.X\source\UBW.c
     tempStackPointerHigh   0x0000e4       data     static C:\Projects\EggBot_GH\EBB_firmware\app.X\source\UBW.c
      tempStackPointerLow   0x0000e5       data     static C:\Projects\EggBot_GH\EBB_firmware\app.X\source\UBW.c
         tempStackPointer   0x0000e6       data     static C:\Projects\EggBot_GH\EBB_firmware\app.X\source\UBW.c
        gDeviceStringName   0x0000e8       data     static C:\Projects\EggBot_GH\EBB_firmware\app.X\source\UBW.c
           last_fifo_size   0x0000f9       data     static C:\Projects\EggBot_GH\EBB_firmware\app.X\source\UBW.c
               ISR_A_FIFO   0x000100       data     extern C:\Projects\EggBot_GH\EBB_firmware\app.X\source\UBW.c
               ISR_D_FIFO   0x000120       data     extern C:\Projects\EggBot_GH\EBB_firmware\app.X\source\UBW.c
               g_RC_state   0x000129       data     extern C:\Projects\EggBot_GH\EBB_firmware\app.X\source\UBW.c
               g_RC_value   0x000141       data     extern C:\Projects\EggBot_GH\EBB_firmware\app.X\source\UBW.c
               gOutputStr   0x000171       data     static C:\Projects\EggBot_GH\EBB_firmware\app.X\source\ebb_print.c
                     gPos   0x00017d       data     static C:\Projects\EggBot_GH\EBB_firmware\app.X\source\ebb_print.c
                        i   0x00017e       data     static C:\Projects\EggBot_GH\EBB_firmware\app.X\source\ebb_print.c
           CurrentCommand   0x000180       data     extern C:\Projects\EggBot_GH\EBB_firmware\app.X\source\ebb.c
                acc_union   0x0001af       data     static C:\Projects\EggBot_GH\EBB_firmware\app.X\source\ebb.c
gISRTickCountForThisCommand   0x0001b7       data     static C:\Projects\EggBot_GH\EBB_firmware\app.X\source\ebb.c
gISRStepCountForThisCommand   0x0001bb       data     static C:\Projects\EggBot_GH\EBB_firmware\app.X\source\ebb.c
gISRPositionForThisCommand   0x0001bf       data     static C:\Projects\EggBot_GH\EBB_firmware\app.X\source\ebb.c
           USBDeviceState   0x0001c3       data     extern C:\Projects\EggBot_GH\EBB_firmware\Microchip\USB\usb_device.c
   USBActiveConfiguration   0x0001c4       data     extern C:\Projects\EggBot_GH\EBB_firmware\Microchip\USB\usb_device.c
    USBAlternateInterface   0x0001c5       data     extern C:\Projects\EggBot_GH\EBB_firmware\Microchip\USB\usb_device.c
   pBDTEntryEP0OutCurrent   0x0001c6       data     extern C:\Projects\EggBot_GH\EBB_firmware\Microchip\USB\usb_device.c
      pBDTEntryEP0OutNext   0x0001c8       data     extern C:\Projects\EggBot_GH\EBB_firmware\Microchip\USB\usb_device.c
             pBDTEntryOut   0x0001ca       data     extern C:\Projects\EggBot_GH\EBB_firmware\Microchip\USB\usb_device.c
              pBDTEntryIn   0x0001d0       data     extern C:\Projects\EggBot_GH\EBB_firmware\Microchip\USB\usb_device.c
        shortPacketStatus   0x0001d6       data     extern C:\Projects\EggBot_GH\EBB_firmware\Microchip\USB\usb_device.c
     controlTransferState   0x0001d7       data     extern C:\Projects\EggBot_GH\EBB_firmware\Microchip\USB\usb_device.c
                  inPipes   0x0001d8       data     extern C:\Projects\EggBot_GH\EBB_firmware\Microchip\USB\usb_device.c
                 outPipes   0x0001dd       data     extern C:\Projects\EggBot_GH\EBB_firmware\Microchip\USB\usb_device.c
                     pDst   0x0001e4       data     extern C:\Projects\EggBot_GH\EBB_firmware\Microchip\USB\usb_device.c
             RemoteWakeup   0x0001e6       data     extern C:\Projects\EggBot_GH\EBB_firmware\Microchip\USB\usb_device.c
        USBBusIsSuspended   0x0001e7       data     extern C:\Projects\EggBot_GH\EBB_firmware\Microchip\USB\usb_device.c
                USTATcopy   0x0001e8       data     extern C:\Projects\EggBot_GH\EBB_firmware\Microchip\USB\usb_device.c
          endpoint_number   0x0001e9       data     extern C:\Projects\EggBot_GH\EBB_firmware\Microchip\USB\usb_device.c
       BothEP0OutUOWNsSet   0x0001ea       data     extern C:\Projects\EggBot_GH\EBB_firmware\Microchip\USB\usb_device.c
               ep_data_in   0x0001eb       data     extern C:\Projects\EggBot_GH\EBB_firmware\Microchip\USB\usb_device.c
              ep_data_out   0x0001ee       data     extern C:\Projects\EggBot_GH\EBB_firmware\Microchip\USB\usb_device.c
USBStatusStageTimeoutCounter   0x0001f1       data     extern C:\Projects\EggBot_GH\EBB_firmware\Microchip\USB\usb_device.c
USBDeferStatusStagePacket   0x0001f2       data     extern C:\Projects\EggBot_GH\EBB_firmware\Microchip\USB\usb_device.c
USBStatusStageEnabledFlag1   0x0001f3       data     extern C:\Projects\EggBot_GH\EBB_firmware\Microchip\USB\usb_device.c
USBStatusStageEnabledFlag2   0x0001f4       data     extern C:\Projects\EggBot_GH\EBB_firmware\Microchip\USB\usb_device.c
USBDeferINDataStagePackets   0x0001f5       data     extern C:\Projects\EggBot_GH\EBB_firmware\Microchip\USB\usb_device.c
USBDeferOUTDataStagePackets   0x0001f6       data     extern C:\Projects\EggBot_GH\EBB_firmware\Microchip\USB\usb_device.c
                 g_TX_buf   0x000200       data     extern C:\Projects\EggBot_GH\EBB_firmware\app.X\source\UBW.c
         g_RX_command_buf   0x000240       data     extern C:\Projects\EggBot_GH\EBB_firmware\app.X\source\UBW.c
                    sd000   0x000280       data     extern C:\Projects\EggBot_GH\EBB_firmware\app.X\source\usb_descriptors.c
                    sd001   0x000284       data     extern C:\Projects\EggBot_GH\EBB_firmware\app.X\source\usb_descriptors.c
                    sd002   0x00029c       data     extern C:\Projects\EggBot_GH\EBB_firmware\app.X\source\usb_descriptors.c
                    sd003   0x0002d4       data     extern C:\Projects\EggBot_GH\EBB_firmware\app.X\source\usb_descriptors.c
               USB_SD_Ptr   0x0002f6       data     extern C:\Projects\EggBot_GH\EBB_firmware\app.X\source\usb_descriptors.c
              delay_count   0x0002fe       data     static C:\Projects\EggBot_GH\EBB_firmware\app.X\source\main.c
                 g_RX_buf   0x000300       data     extern C:\Projects\EggBot_GH\EBB_firmware\app.X\source\UBW.c
                      BDT   0x000400       data     extern C:\Projects\EggBot_GH\EBB_firmware\Microchip\USB\usb_device.c
                 SetupPkt   0x000430       data     extern C:\Projects\EggBot_GH\EBB_firmware\Microchip\USB\usb_device.c
              CtrlTrfData   0x000438       data     extern C:\Projects\EggBot_GH\EBB_firmware\Microchip\USB\usb_device.c
              cdc_data_tx   0x000500       data     extern C:\Projects\EggBot_GH\EBB_firmware\Microchip\USB\CDC Device Driver\usb_function_cdc.c
              cdc_data_rx   0x000540       data     extern C:\Projects\EggBot_GH\EBB_firmware\Microchip\USB\CDC Device Driver\usb_function_cdc.c
              line_coding   0x000580       data     extern C:\Projects\EggBot_GH\EBB_firmware\Microchip\USB\CDC Device Driver\usb_function_cdc.c
               cdc_notice   0x000587       data     extern C:\Projects\EggBot_GH\EBB_firmware\Microchip\USB\CDC Device Driver\usb_function_cdc.c
               cdc_rx_len   0x00058f       data     extern C:\Projects\EggBot_GH\EBB_firmware\Microchip\USB\CDC Device Driver\usb_function_cdc.c
            cdc_trf_state   0x000590       data     extern C:\Projects\EggBot_GH\EBB_firmware\Microchip\USB\CDC Device Driver\usb_function_cdc.c
                  pCDCSrc   0x000591       data     extern C:\Projects\EggBot_GH\EBB_firmware\Microchip\USB\CDC Device Driver\usb_function_cdc.c
                  pCDCDst   0x000593       data     extern C:\Projects\EggBot_GH\EBB_firmware\Microchip\USB\CDC Device Driver\usb_function_cdc.c
               cdc_tx_len   0x000595       data     extern C:\Projects\EggBot_GH\EBB_firmware\Microchip\USB\CDC Device Driver\usb_function_cdc.c
             cdc_mem_type   0x000596       data     extern C:\Projects\EggBot_GH\EBB_firmware\Microchip\USB\CDC Device Driver\usb_function_cdc.c
         CDCDataOutHandle   0x000597       data     extern C:\Projects\EggBot_GH\EBB_firmware\Microchip\USB\CDC Device Driver\usb_function_cdc.c
          CDCDataInHandle   0x000599       data     extern C:\Projects\EggBot_GH\EBB_firmware\Microchip\USB\CDC Device Driver\usb_function_cdc.c
    control_signal_bitmap   0x00059b       data     extern C:\Projects\EggBot_GH\EBB_firmware\Microchip\USB\CDC Device Driver\usb_function_cdc.c
              BaudRateGen   0x00059c       data     extern C:\Projects\EggBot_GH\EBB_firmware\Microchip\USB\CDC Device Driver\usb_function_cdc.c
dummy_encapsulated_cmd_response   0x0005a0       data     extern C:\Projects\EggBot_GH\EBB_firmware\Microchip\USB\CDC Device Driver\usb_function_cdc.c
             last_command   0x0005a8       data     static C:\Projects\EggBot_GH\EBB_firmware\app.X\source\UBW.c
                   in_esc   0x0005e8       data     static C:\Projects\EggBot_GH\EBB_firmware\app.X\source\UBW.c
             esc_sequence   0x0005e9       data     static C:\Projects\EggBot_GH\EBB_firmware\app.X\source\UBW.c
                    in_cr   0x0005ec       data     static C:\Projects\EggBot_GH\EBB_firmware\app.X\source\UBW.c
             button_state   0x0005ed       data     static C:\Projects\EggBot_GH\EBB_firmware\app.X\source\UBW.c
               button_ctr   0x0005ee       data     static C:\Projects\EggBot_GH\EBB_firmware\app.X\source\UBW.c
                 LEDCount   0x0005f0       data     static C:\Projects\EggBot_GH\EBB_firmware\app.X\source\UBW.c
                 LEDState   0x0005f2       data     static C:\Projects\EggBot_GH\EBB_firmware\app.X\source\UBW.c
                     prom   0x0005f3       data     static C:\MCC18\src\traditional\startup\c018i.c
                curr_byte   0x0005f6       data     static C:\MCC18\src\traditional\startup\c018i.c
               curr_entry   0x0005f8       data     static C:\MCC18\src\traditional\startup\c018i.c
                 data_ptr   0x0005fa       data     static C:\MCC18\src\traditional\startup\c018i.c
                  FIFOPtr   0x0005fd       data     extern C:\Projects\EggBot_GH\EBB_firmware\app.X\source\ebb.c
            USART1_Status   0x0005ff       data     extern E:\3.46\pic18-lt\cxx-framework\src\pmc_common\USART\u1defs.c
              CommandFIFO   0x000600       data     extern C:\Projects\EggBot_GH\EBB_firmware\app.X\source\ebb.c
                gMoveTemp   0x000b24       data     static C:\Projects\EggBot_GH\EBB_firmware\app.X\source\ebb.c
           DemoModeActive   0x000b53       data     extern C:\Projects\EggBot_GH\EBB_firmware\app.X\source\ebb.c
             comd_counter   0x000b55       data     extern C:\Projects\EggBot_GH\EBB_firmware\app.X\source\ebb.c
            SolenoidState   0x000b57       data     static C:\Projects\EggBot_GH\EBB_firmware\app.X\source\ebb.c
            SolenoidDelay   0x000b58       data     static C:\Projects\EggBot_GH\EBB_firmware\app.X\source\ebb.c
                 PenState   0x000b5a       data     static C:\Projects\EggBot_GH\EBB_firmware\app.X\source\ebb.c
                NodeCount   0x000b5b       data     static C:\Projects\EggBot_GH\EBB_firmware\app.X\source\ebb.c
              gSL_Storage   0x000b5f       data     static C:\Projects\EggBot_GH\EBB_firmware\app.X\source\ebb.c
              QC_ms_timer   0x000b7f       data     extern C:\Projects\EggBot_GH\EBB_firmware\app.X\source\ebb.c
      StoredEngraverPower   0x000b80       data     static C:\Projects\EggBot_GH\EBB_firmware\app.X\source\ebb.c
             gUseSolenoid   0x000b82       data     extern C:\Projects\EggBot_GH\EBB_firmware\app.X\source\ebb.c
             gLimitChecks   0x000b83       data     extern C:\Projects\EggBot_GH\EBB_firmware\app.X\source\ebb.c
gStandardizedCommandFormat   0x000b84       data     extern C:\Projects\EggBot_GH\EBB_firmware\app.X\source\ebb.c
           gTmpDurationMS   0x000b85       data     static C:\Projects\EggBot_GH\EBB_firmware\app.X\source\ebb.c
            gTmpIntervals   0x000b89       data     static C:\Projects\EggBot_GH\EBB_firmware\app.X\source\ebb.c
                gTmpRate1   0x000b8d       data     static C:\Projects\EggBot_GH\EBB_firmware\app.X\source\ebb.c
                gTmpRate2   0x000b91       data     static C:\Projects\EggBot_GH\EBB_firmware\app.X\source\ebb.c
               gTmpSteps1   0x000b95       data     static C:\Projects\EggBot_GH\EBB_firmware\app.X\source\ebb.c
               gTmpSteps2   0x000b99       data     static C:\Projects\EggBot_GH\EBB_firmware\app.X\source\ebb.c
               gTmpAccel1   0x000b9d       data     static C:\Projects\EggBot_GH\EBB_firmware\app.X\source\ebb.c
               gTmpAccel2   0x000ba1       data     static C:\Projects\EggBot_GH\EBB_firmware\app.X\source\ebb.c
                gTmpJerk1   0x000ba5       data     static C:\Projects\EggBot_GH\EBB_firmware\app.X\source\ebb.c
                gTmpJerk2   0x000ba9       data     static C:\Projects\EggBot_GH\EBB_firmware\app.X\source\ebb.c
            gTmpClearAccs   0x000bad       data     static C:\Projects\EggBot_GH\EBB_firmware\app.X\source\ebb.c
                    RPOR0   0x000ec6       data     extern E:\3.46\pic18-lt\cxx-framework\src\traditional\proc\p18f46j50.asm
                    RPOR1   0x000ec7       data     extern E:\3.46\pic18-lt\cxx-framework\src\traditional\proc\p18f46j50.asm
                    RPOR2   0x000ec8       data     extern E:\3.46\pic18-lt\cxx-framework\src\traditional\proc\p18f46j50.asm
                    RPOR3   0x000ec9       data     extern E:\3.46\pic18-lt\cxx-framework\src\traditional\proc\p18f46j50.asm
                    RPOR4   0x000eca       data     extern E:\3.46\pic18-lt\cxx-framework\src\traditional\proc\p18f46j50.asm
                    RPOR5   0x000ecb       data     extern E:\3.46\pic18-lt\cxx-framework\src\traditional\proc\p18f46j50.asm
                    RPOR6   0x000ecc       data     extern E:\3.46\pic18-lt\cxx-framework\src\traditional\proc\p18f46j50.asm
                    RPOR7   0x000ecd       data     extern E:\3.46\pic18-lt\cxx-framework\src\traditional\proc\p18f46j50.asm
                    RPOR8   0x000ece       data     extern E:\3.46\pic18-lt\cxx-framework\src\traditional\proc\p18f46j50.asm
                    RPOR9   0x000ecf       data     extern E:\3.46\pic18-lt\cxx-framework\src\traditional\proc\p18f46j50.asm
                   RPOR10   0x000ed0       data     extern E:\3.46\pic18-lt\cxx-framework\src\traditional\proc\p18f46j50.asm
                   RPOR11   0x000ed1       data     extern E:\3.46\pic18-lt\cxx-framework\src\traditional\proc\p18f46j50.asm
                   RPOR12   0x000ed2       data     extern E:\3.46\pic18-lt\cxx-framework\src\traditional\proc\p18f46j50.asm
                   RPOR13   0x000ed3       data     extern E:\3.46\pic18-lt\cxx-framework\src\traditional\proc\p18f46j50.asm
                   RPOR17   0x000ed7       data     extern E:\3.46\pic18-lt\cxx-framework\src\traditional\proc\p18f46j50.asm
                   RPOR18   0x000ed8       data     extern E:\3.46\pic18-lt\cxx-framework\src\traditional\proc\p18f46j50.asm
                   RPOR19   0x000ed9       data     extern E:\3.46\pic18-lt\cxx-framework\src\traditional\proc\p18f46j50.asm
                   RPOR20   0x000eda       data     extern E:\3.46\pic18-lt\cxx-framework\src\traditional\proc\p18f46j50.asm
                   RPOR21   0x000edb       data     extern E:\3.46\pic18-lt\cxx-framework\src\traditional\proc\p18f46j50.asm
                   RPOR22   0x000edc       data     extern E:\3.46\pic18-lt\cxx-framework\src\traditional\proc\p18f46j50.asm
                   RPOR23   0x000edd       data     extern E:\3.46\pic18-lt\cxx-framework\src\traditional\proc\p18f46j50.asm
                   RPOR24   0x000ede       data     extern E:\3.46\pic18-lt\cxx-framework\src\traditional\proc\p18f46j50.asm
                   RPINR1   0x000ee7       data     extern E:\3.46\pic18-lt\cxx-framework\src\traditional\proc\p18f46j50.asm
                   RPINR2   0x000ee8       data     extern E:\3.46\pic18-lt\cxx-framework\src\traditional\proc\p18f46j50.asm
                   RPINR3   0x000ee9       data     extern E:\3.46\pic18-lt\cxx-framework\src\traditional\proc\p18f46j50.asm
                   RPINR4   0x000eea       data     extern E:\3.46\pic18-lt\cxx-framework\src\traditional\proc\p18f46j50.asm
                   RPINR6   0x000eec       data     extern E:\3.46\pic18-lt\cxx-framework\src\traditional\proc\p18f46j50.asm
                   RPINR7   0x000eed       data     extern E:\3.46\pic18-lt\cxx-framework\src\traditional\proc\p18f46j50.asm
                   RPINR8   0x000eee       data     extern E:\3.46\pic18-lt\cxx-framework\src\traditional\proc\p18f46j50.asm
                  RPINR12   0x000ef2       data     extern E:\3.46\pic18-lt\cxx-framework\src\traditional\proc\p18f46j50.asm
                  RPINR13   0x000ef3       data     extern E:\3.46\pic18-lt\cxx-framework\src\traditional\proc\p18f46j50.asm
                  RPINR16   0x000ef6       data     extern E:\3.46\pic18-lt\cxx-framework\src\traditional\proc\p18f46j50.asm
                  RPINR17   0x000ef7       data     extern E:\3.46\pic18-lt\cxx-framework\src\traditional\proc\p18f46j50.asm
                  RPINR21   0x000efb       data     extern E:\3.46\pic18-lt\cxx-framework\src\traditional\proc\p18f46j50.asm
                  RPINR22   0x000efc       data     extern E:\3.46\pic18-lt\cxx-framework\src\traditional\proc\p18f46j50.asm
                  RPINR23   0x000efd       data     extern E:\3.46\pic18-lt\cxx-framework\src\traditional\proc\p18f46j50.asm
                  RPINR24   0x000efe       data     extern E:\3.46\pic18-lt\cxx-framework\src\traditional\proc\p18f46j50.asm
                   PPSCON   0x000eff       data     extern E:\3.46\pic18-lt\cxx-framework\src\traditional\proc\p18f46j50.asm
               PPSCONbits   0x000eff       data     extern E:\3.46\pic18-lt\cxx-framework\src\traditional\proc\p18f46j50.asm
                 UEP0bits   0x000f26       data     extern E:\3.46\pic18-lt\cxx-framework\src\traditional\proc\p18f46j50.asm
                     UEP0   0x000f26       data     extern E:\3.46\pic18-lt\cxx-framework\src\traditional\proc\p18f46j50.asm
                 UEP1bits   0x000f27       data     extern E:\3.46\pic18-lt\cxx-framework\src\traditional\proc\p18f46j50.asm
                     UEP1   0x000f27       data     extern E:\3.46\pic18-lt\cxx-framework\src\traditional\proc\p18f46j50.asm
                 UEP2bits   0x000f28       data     extern E:\3.46\pic18-lt\cxx-framework\src\traditional\proc\p18f46j50.asm
                     UEP2   0x000f28       data     extern E:\3.46\pic18-lt\cxx-framework\src\traditional\proc\p18f46j50.asm
                 UEP3bits   0x000f29       data     extern E:\3.46\pic18-lt\cxx-framework\src\traditional\proc\p18f46j50.asm
                     UEP3   0x000f29       data     extern E:\3.46\pic18-lt\cxx-framework\src\traditional\proc\p18f46j50.asm
                 UEP4bits   0x000f2a       data     extern E:\3.46\pic18-lt\cxx-framework\src\traditional\proc\p18f46j50.asm
                     UEP4   0x000f2a       data     extern E:\3.46\pic18-lt\cxx-framework\src\traditional\proc\p18f46j50.asm
                     UEP5   0x000f2b       data     extern E:\3.46\pic18-lt\cxx-framework\src\traditional\proc\p18f46j50.asm
                 UEP5bits   0x000f2b       data     extern E:\3.46\pic18-lt\cxx-framework\src\traditional\proc\p18f46j50.asm
                     UEP6   0x000f2c       data     extern E:\3.46\pic18-lt\cxx-framework\src\traditional\proc\p18f46j50.asm
                 UEP6bits   0x000f2c       data     extern E:\3.46\pic18-lt\cxx-framework\src\traditional\proc\p18f46j50.asm
                     UEP7   0x000f2d       data     extern E:\3.46\pic18-lt\cxx-framework\src\traditional\proc\p18f46j50.asm
                 UEP7bits   0x000f2d       data     extern E:\3.46\pic18-lt\cxx-framework\src\traditional\proc\p18f46j50.asm
                     UEP8   0x000f2e       data     extern E:\3.46\pic18-lt\cxx-framework\src\traditional\proc\p18f46j50.asm
                 UEP8bits   0x000f2e       data     extern E:\3.46\pic18-lt\cxx-framework\src\traditional\proc\p18f46j50.asm
                     UEP9   0x000f2f       data     extern E:\3.46\pic18-lt\cxx-framework\src\traditional\proc\p18f46j50.asm
                 UEP9bits   0x000f2f       data     extern E:\3.46\pic18-lt\cxx-framework\src\traditional\proc\p18f46j50.asm
                    UEP10   0x000f30       data     extern E:\3.46\pic18-lt\cxx-framework\src\traditional\proc\p18f46j50.asm
                UEP10bits   0x000f30       data     extern E:\3.46\pic18-lt\cxx-framework\src\traditional\proc\p18f46j50.asm
                    UEP11   0x000f31       data     extern E:\3.46\pic18-lt\cxx-framework\src\traditional\proc\p18f46j50.asm
                UEP11bits   0x000f31       data     extern E:\3.46\pic18-lt\cxx-framework\src\traditional\proc\p18f46j50.asm
                    UEP12   0x000f32       data     extern E:\3.46\pic18-lt\cxx-framework\src\traditional\proc\p18f46j50.asm
                UEP12bits   0x000f32       data     extern E:\3.46\pic18-lt\cxx-framework\src\traditional\proc\p18f46j50.asm
                    UEP13   0x000f33       data     extern E:\3.46\pic18-lt\cxx-framework\src\traditional\proc\p18f46j50.asm
                UEP13bits   0x000f33       data     extern E:\3.46\pic18-lt\cxx-framework\src\traditional\proc\p18f46j50.asm
                    UEP14   0x000f34       data     extern E:\3.46\pic18-lt\cxx-framework\src\traditional\proc\p18f46j50.asm
                UEP14bits   0x000f34       data     extern E:\3.46\pic18-lt\cxx-framework\src\traditional\proc\p18f46j50.asm
                UEP15bits   0x000f35       data     extern E:\3.46\pic18-lt\cxx-framework\src\traditional\proc\p18f46j50.asm
                    UEP15   0x000f35       data     extern E:\3.46\pic18-lt\cxx-framework\src\traditional\proc\p18f46j50.asm
                      UIE   0x000f36       data     extern E:\3.46\pic18-lt\cxx-framework\src\traditional\proc\p18f46j50.asm
                  UIEbits   0x000f36       data     extern E:\3.46\pic18-lt\cxx-framework\src\traditional\proc\p18f46j50.asm
                     UEIE   0x000f37       data     extern E:\3.46\pic18-lt\cxx-framework\src\traditional\proc\p18f46j50.asm
                 UEIEbits   0x000f37       data     extern E:\3.46\pic18-lt\cxx-framework\src\traditional\proc\p18f46j50.asm
                    UADDR   0x000f38       data     extern E:\3.46\pic18-lt\cxx-framework\src\traditional\proc\p18f46j50.asm
                UADDRbits   0x000f38       data     extern E:\3.46\pic18-lt\cxx-framework\src\traditional\proc\p18f46j50.asm
                     UCFG   0x000f39       data     extern E:\3.46\pic18-lt\cxx-framework\src\traditional\proc\p18f46j50.asm
                 UCFGbits   0x000f39       data     extern E:\3.46\pic18-lt\cxx-framework\src\traditional\proc\p18f46j50.asm
                  PADCFG1   0x000f3c       data     extern E:\3.46\pic18-lt\cxx-framework\src\traditional\proc\p18f46j50.asm
              PADCFG1bits   0x000f3c       data     extern E:\3.46\pic18-lt\cxx-framework\src\traditional\proc\p18f46j50.asm
              REFOCONbits   0x000f3d       data     extern E:\3.46\pic18-lt\cxx-framework\src\traditional\proc\p18f46j50.asm
                  REFOCON   0x000f3d       data     extern E:\3.46\pic18-lt\cxx-framework\src\traditional\proc\p18f46j50.asm
               RTCCALbits   0x000f3e       data     extern E:\3.46\pic18-lt\cxx-framework\src\traditional\proc\p18f46j50.asm
                   RTCCAL   0x000f3e       data     extern E:\3.46\pic18-lt\cxx-framework\src\traditional\proc\p18f46j50.asm
               RTCCFGbits   0x000f3f       data     extern E:\3.46\pic18-lt\cxx-framework\src\traditional\proc\p18f46j50.asm
                   RTCCFG   0x000f3f       data     extern E:\3.46\pic18-lt\cxx-framework\src\traditional\proc\p18f46j50.asm
               ODCON3bits   0x000f40       data     extern E:\3.46\pic18-lt\cxx-framework\src\traditional\proc\p18f46j50.asm
                   ODCON3   0x000f40       data     extern E:\3.46\pic18-lt\cxx-framework\src\traditional\proc\p18f46j50.asm
                   ODCON2   0x000f41       data     extern E:\3.46\pic18-lt\cxx-framework\src\traditional\proc\p18f46j50.asm
               ODCON2bits   0x000f41       data     extern E:\3.46\pic18-lt\cxx-framework\src\traditional\proc\p18f46j50.asm
               ODCON1bits   0x000f42       data     extern E:\3.46\pic18-lt\cxx-framework\src\traditional\proc\p18f46j50.asm
                   ODCON1   0x000f42       data     extern E:\3.46\pic18-lt\cxx-framework\src\traditional\proc\p18f46j50.asm
               ANCON0bits   0x000f48       data     extern E:\3.46\pic18-lt\cxx-framework\src\traditional\proc\p18f46j50.asm
                   ANCON0   0x000f48       data     extern E:\3.46\pic18-lt\cxx-framework\src\traditional\proc\p18f46j50.asm
               ANCON1bits   0x000f49       data     extern E:\3.46\pic18-lt\cxx-framework\src\traditional\proc\p18f46j50.asm
                   ANCON1   0x000f49       data     extern E:\3.46\pic18-lt\cxx-framework\src\traditional\proc\p18f46j50.asm
                  DSWAKEL   0x000f4a       data     extern E:\3.46\pic18-lt\cxx-framework\src\traditional\proc\p18f46j50.asm
              DSWAKELbits   0x000f4a       data     extern E:\3.46\pic18-lt\cxx-framework\src\traditional\proc\p18f46j50.asm
                  DSWAKEH   0x000f4b       data     extern E:\3.46\pic18-lt\cxx-framework\src\traditional\proc\p18f46j50.asm
              DSWAKEHbits   0x000f4b       data     extern E:\3.46\pic18-lt\cxx-framework\src\traditional\proc\p18f46j50.asm
                   DSCONL   0x000f4c       data     extern E:\3.46\pic18-lt\cxx-framework\src\traditional\proc\p18f46j50.asm
               DSCONLbits   0x000f4c       data     extern E:\3.46\pic18-lt\cxx-framework\src\traditional\proc\p18f46j50.asm
               DSCONHbits   0x000f4d       data     extern E:\3.46\pic18-lt\cxx-framework\src\traditional\proc\p18f46j50.asm
                   DSCONH   0x000f4d       data     extern E:\3.46\pic18-lt\cxx-framework\src\traditional\proc\p18f46j50.asm
                   DSGPR0   0x000f4e       data     extern E:\3.46\pic18-lt\cxx-framework\src\traditional\proc\p18f46j50.asm
                   DSGPR1   0x000f4f       data     extern E:\3.46\pic18-lt\cxx-framework\src\traditional\proc\p18f46j50.asm
                  TCLKCON   0x000f52       data     extern E:\3.46\pic18-lt\cxx-framework\src\traditional\proc\p18f46j50.asm
              TCLKCONbits   0x000f52       data     extern E:\3.46\pic18-lt\cxx-framework\src\traditional\proc\p18f46j50.asm
                   CVRCON   0x000f53       data     extern E:\3.46\pic18-lt\cxx-framework\src\traditional\proc\p18f46j50.asm
               CVRCONbits   0x000f53       data     extern E:\3.46\pic18-lt\cxx-framework\src\traditional\proc\p18f46j50.asm
                  PMSTATL   0x000f54       data     extern E:\3.46\pic18-lt\cxx-framework\src\traditional\proc\p18f46j50.asm
              PMSTATLbits   0x000f54       data     extern E:\3.46\pic18-lt\cxx-framework\src\traditional\proc\p18f46j50.asm
                  PMSTATH   0x000f55       data     extern E:\3.46\pic18-lt\cxx-framework\src\traditional\proc\p18f46j50.asm
              PMSTATHbits   0x000f55       data     extern E:\3.46\pic18-lt\cxx-framework\src\traditional\proc\p18f46j50.asm
                     PMEL   0x000f56       data     extern E:\3.46\pic18-lt\cxx-framework\src\traditional\proc\p18f46j50.asm
                 PMELbits   0x000f56       data     extern E:\3.46\pic18-lt\cxx-framework\src\traditional\proc\p18f46j50.asm
                     PMEH   0x000f57       data     extern E:\3.46\pic18-lt\cxx-framework\src\traditional\proc\p18f46j50.asm
                 PMEHbits   0x000f57       data     extern E:\3.46\pic18-lt\cxx-framework\src\traditional\proc\p18f46j50.asm
                  PMDIN2L   0x000f58       data     extern E:\3.46\pic18-lt\cxx-framework\src\traditional\proc\p18f46j50.asm
                  PMDIN2H   0x000f59       data     extern E:\3.46\pic18-lt\cxx-framework\src\traditional\proc\p18f46j50.asm
                 PMDOUT2L   0x000f5a       data     extern E:\3.46\pic18-lt\cxx-framework\src\traditional\proc\p18f46j50.asm
                 PMDOUT2H   0x000f5b       data     extern E:\3.46\pic18-lt\cxx-framework\src\traditional\proc\p18f46j50.asm
                  PMMODEL   0x000f5c       data     extern E:\3.46\pic18-lt\cxx-framework\src\traditional\proc\p18f46j50.asm
              PMMODELbits   0x000f5c       data     extern E:\3.46\pic18-lt\cxx-framework\src\traditional\proc\p18f46j50.asm
                  PMMODEH   0x000f5d       data     extern E:\3.46\pic18-lt\cxx-framework\src\traditional\proc\p18f46j50.asm
              PMMODEHbits   0x000f5d       data     extern E:\3.46\pic18-lt\cxx-framework\src\traditional\proc\p18f46j50.asm
                   PMCONL   0x000f5e       data     extern E:\3.46\pic18-lt\cxx-framework\src\traditional\proc\p18f46j50.asm
               PMCONLbits   0x000f5e       data     extern E:\3.46\pic18-lt\cxx-framework\src\traditional\proc\p18f46j50.asm
                   PMCONH   0x000f5f       data     extern E:\3.46\pic18-lt\cxx-framework\src\traditional\proc\p18f46j50.asm
               PMCONHbits   0x000f5f       data     extern E:\3.46\pic18-lt\cxx-framework\src\traditional\proc\p18f46j50.asm
                     UFRM   0x000f60       data     extern E:\3.46\pic18-lt\cxx-framework\src\traditional\proc\p18f46j50.asm
                    UFRML   0x000f60       data     extern E:\3.46\pic18-lt\cxx-framework\src\traditional\proc\p18f46j50.asm
                UFRMLbits   0x000f60       data     extern E:\3.46\pic18-lt\cxx-framework\src\traditional\proc\p18f46j50.asm
                    UFRMH   0x000f61       data     extern E:\3.46\pic18-lt\cxx-framework\src\traditional\proc\p18f46j50.asm
                UFRMHbits   0x000f61       data     extern E:\3.46\pic18-lt\cxx-framework\src\traditional\proc\p18f46j50.asm
                      UIR   0x000f62       data     extern E:\3.46\pic18-lt\cxx-framework\src\traditional\proc\p18f46j50.asm
                  UIRbits   0x000f62       data     extern E:\3.46\pic18-lt\cxx-framework\src\traditional\proc\p18f46j50.asm
                 UEIRbits   0x000f63       data     extern E:\3.46\pic18-lt\cxx-framework\src\traditional\proc\p18f46j50.asm
                     UEIR   0x000f63       data     extern E:\3.46\pic18-lt\cxx-framework\src\traditional\proc\p18f46j50.asm
                    USTAT   0x000f64       data     extern E:\3.46\pic18-lt\cxx-framework\src\traditional\proc\p18f46j50.asm
                USTATbits   0x000f64       data     extern E:\3.46\pic18-lt\cxx-framework\src\traditional\proc\p18f46j50.asm
                 UCONbits   0x000f65       data     extern E:\3.46\pic18-lt\cxx-framework\src\traditional\proc\p18f46j50.asm
                     UCON   0x000f65       data     extern E:\3.46\pic18-lt\cxx-framework\src\traditional\proc\p18f46j50.asm
               DMABCHbits   0x000f66       data     extern E:\3.46\pic18-lt\cxx-framework\src\traditional\proc\p18f46j50.asm
                   DMABCH   0x000f66       data     extern E:\3.46\pic18-lt\cxx-framework\src\traditional\proc\p18f46j50.asm
                   DMABCL   0x000f67       data     extern E:\3.46\pic18-lt\cxx-framework\src\traditional\proc\p18f46j50.asm
                  RXADDRH   0x000f68       data     extern E:\3.46\pic18-lt\cxx-framework\src\traditional\proc\p18f46j50.asm
              RXADDRHbits   0x000f68       data     extern E:\3.46\pic18-lt\cxx-framework\src\traditional\proc\p18f46j50.asm
                  RXADDRL   0x000f69       data     extern E:\3.46\pic18-lt\cxx-framework\src\traditional\proc\p18f46j50.asm
              TXADDRHbits   0x000f6a       data     extern E:\3.46\pic18-lt\cxx-framework\src\traditional\proc\p18f46j50.asm
                  TXADDRH   0x000f6a       data     extern E:\3.46\pic18-lt\cxx-framework\src\traditional\proc\p18f46j50.asm
                  TXADDRL   0x000f6b       data     extern E:\3.46\pic18-lt\cxx-framework\src\traditional\proc\p18f46j50.asm
                  PMDIN1L   0x000f6c       data     extern E:\3.46\pic18-lt\cxx-framework\src\traditional\proc\p18f46j50.asm
                  PMDIN1H   0x000f6d       data     extern E:\3.46\pic18-lt\cxx-framework\src\traditional\proc\p18f46j50.asm
                 PMDOUT1L   0x000f6e       data     extern E:\3.46\pic18-lt\cxx-framework\src\traditional\proc\p18f46j50.asm
                  PMADDRL   0x000f6e       data     extern E:\3.46\pic18-lt\cxx-framework\src\traditional\proc\p18f46j50.asm
                  PMADDRH   0x000f6f       data     extern E:\3.46\pic18-lt\cxx-framework\src\traditional\proc\p18f46j50.asm
              PMADDRHbits   0x000f6f       data     extern E:\3.46\pic18-lt\cxx-framework\src\traditional\proc\p18f46j50.asm
                 PMDOUT1H   0x000f6f       data     extern E:\3.46\pic18-lt\cxx-framework\src\traditional\proc\p18f46j50.asm
               CMSTATbits   0x000f70       data     extern E:\3.46\pic18-lt\cxx-framework\src\traditional\proc\p18f46j50.asm
                 CMSTATUS   0x000f70       data     extern E:\3.46\pic18-lt\cxx-framework\src\traditional\proc\p18f46j50.asm
                   CMSTAT   0x000f70       data     extern E:\3.46\pic18-lt\cxx-framework\src\traditional\proc\p18f46j50.asm
             CMSTATUSbits   0x000f70       data     extern E:\3.46\pic18-lt\cxx-framework\src\traditional\proc\p18f46j50.asm
             SSP2CON2bits   0x000f71       data     extern E:\3.46\pic18-lt\cxx-framework\src\traditional\proc\p18f46j50.asm
                 SSP2CON2   0x000f71       data     extern E:\3.46\pic18-lt\cxx-framework\src\traditional\proc\p18f46j50.asm
                 SSP2CON1   0x000f72       data     extern E:\3.46\pic18-lt\cxx-framework\src\traditional\proc\p18f46j50.asm
             SSP2CON1bits   0x000f72       data     extern E:\3.46\pic18-lt\cxx-framework\src\traditional\proc\p18f46j50.asm
                 SSP2STAT   0x000f73       data     extern E:\3.46\pic18-lt\cxx-framework\src\traditional\proc\p18f46j50.asm
             SSP2STATbits   0x000f73       data     extern E:\3.46\pic18-lt\cxx-framework\src\traditional\proc\p18f46j50.asm
              SSP2ADDbits   0x000f74       data     extern E:\3.46\pic18-lt\cxx-framework\src\traditional\proc\p18f46j50.asm
                  SSP2ADD   0x000f74       data     extern E:\3.46\pic18-lt\cxx-framework\src\traditional\proc\p18f46j50.asm
                  SSP2BUF   0x000f75       data     extern E:\3.46\pic18-lt\cxx-framework\src\traditional\proc\p18f46j50.asm
                T4CONbits   0x000f76       data     extern E:\3.46\pic18-lt\cxx-framework\src\traditional\proc\p18f46j50.asm
                    T4CON   0x000f76       data     extern E:\3.46\pic18-lt\cxx-framework\src\traditional\proc\p18f46j50.asm
                      PR4   0x000f77       data     extern E:\3.46\pic18-lt\cxx-framework\src\traditional\proc\p18f46j50.asm
                     TMR4   0x000f78       data     extern E:\3.46\pic18-lt\cxx-framework\src\traditional\proc\p18f46j50.asm
                    T3CON   0x000f79       data     extern E:\3.46\pic18-lt\cxx-framework\src\traditional\proc\p18f46j50.asm
                T3CONbits   0x000f79       data     extern E:\3.46\pic18-lt\cxx-framework\src\traditional\proc\p18f46j50.asm
                    TMR3L   0x000f7a       data     extern E:\3.46\pic18-lt\cxx-framework\src\traditional\proc\p18f46j50.asm
                    TMR3H   0x000f7b       data     extern E:\3.46\pic18-lt\cxx-framework\src\traditional\proc\p18f46j50.asm
             BAUDCON2bits   0x000f7c       data     extern E:\3.46\pic18-lt\cxx-framework\src\traditional\proc\p18f46j50.asm
                 BAUDCON2   0x000f7c       data     extern E:\3.46\pic18-lt\cxx-framework\src\traditional\proc\p18f46j50.asm
                  SPBRGH2   0x000f7d       data     extern E:\3.46\pic18-lt\cxx-framework\src\traditional\proc\p18f46j50.asm
                  BAUDCTL   0x000f7e       data     extern E:\3.46\pic18-lt\cxx-framework\src\traditional\proc\p18f46j50.asm
              BAUDCTLbits   0x000f7e       data     extern E:\3.46\pic18-lt\cxx-framework\src\traditional\proc\p18f46j50.asm
              BAUDCONbits   0x000f7e       data     extern E:\3.46\pic18-lt\cxx-framework\src\traditional\proc\p18f46j50.asm
             BAUDCON1bits   0x000f7e       data     extern E:\3.46\pic18-lt\cxx-framework\src\traditional\proc\p18f46j50.asm
                 BAUDCON1   0x000f7e       data     extern E:\3.46\pic18-lt\cxx-framework\src\traditional\proc\p18f46j50.asm
                  BAUDCON   0x000f7e       data     extern E:\3.46\pic18-lt\cxx-framework\src\traditional\proc\p18f46j50.asm
                   SPBRGH   0x000f7f       data     extern E:\3.46\pic18-lt\cxx-framework\src\traditional\proc\p18f46j50.asm
                  SPBRGH1   0x000f7f       data     extern E:\3.46\pic18-lt\cxx-framework\src\traditional\proc\p18f46j50.asm
                PORTAbits   0x000f80       data     extern E:\3.46\pic18-lt\cxx-framework\src\traditional\proc\p18f46j50.asm
                    PORTA   0x000f80       data     extern E:\3.46\pic18-lt\cxx-framework\src\traditional\proc\p18f46j50.asm
                    PORTB   0x000f81       data     extern E:\3.46\pic18-lt\cxx-framework\src\traditional\proc\p18f46j50.asm
                PORTBbits   0x000f81       data     extern E:\3.46\pic18-lt\cxx-framework\src\traditional\proc\p18f46j50.asm
                PORTCbits   0x000f82       data     extern E:\3.46\pic18-lt\cxx-framework\src\traditional\proc\p18f46j50.asm
                    PORTC   0x000f82       data     extern E:\3.46\pic18-lt\cxx-framework\src\traditional\proc\p18f46j50.asm
                PORTDbits   0x000f83       data     extern E:\3.46\pic18-lt\cxx-framework\src\traditional\proc\p18f46j50.asm
                    PORTD   0x000f83       data     extern E:\3.46\pic18-lt\cxx-framework\src\traditional\proc\p18f46j50.asm
                PORTEbits   0x000f84       data     extern E:\3.46\pic18-lt\cxx-framework\src\traditional\proc\p18f46j50.asm
                    PORTE   0x000f84       data     extern E:\3.46\pic18-lt\cxx-framework\src\traditional\proc\p18f46j50.asm
              HLVDCONbits   0x000f85       data     extern E:\3.46\pic18-lt\cxx-framework\src\traditional\proc\p18f46j50.asm
                  HLVDCON   0x000f85       data     extern E:\3.46\pic18-lt\cxx-framework\src\traditional\proc\p18f46j50.asm
              DMACON2bits   0x000f86       data     extern E:\3.46\pic18-lt\cxx-framework\src\traditional\proc\p18f46j50.asm
                  DMACON2   0x000f86       data     extern E:\3.46\pic18-lt\cxx-framework\src\traditional\proc\p18f46j50.asm
                  DMACON1   0x000f88       data     extern E:\3.46\pic18-lt\cxx-framework\src\traditional\proc\p18f46j50.asm
              DMACON1bits   0x000f88       data     extern E:\3.46\pic18-lt\cxx-framework\src\traditional\proc\p18f46j50.asm
                     LATA   0x000f89       data     extern E:\3.46\pic18-lt\cxx-framework\src\traditional\proc\p18f46j50.asm
                 LATAbits   0x000f89       data     extern E:\3.46\pic18-lt\cxx-framework\src\traditional\proc\p18f46j50.asm
                 LATBbits   0x000f8a       data     extern E:\3.46\pic18-lt\cxx-framework\src\traditional\proc\p18f46j50.asm
                     LATB   0x000f8a       data     extern E:\3.46\pic18-lt\cxx-framework\src\traditional\proc\p18f46j50.asm
                 LATCbits   0x000f8b       data     extern E:\3.46\pic18-lt\cxx-framework\src\traditional\proc\p18f46j50.asm
                     LATC   0x000f8b       data     extern E:\3.46\pic18-lt\cxx-framework\src\traditional\proc\p18f46j50.asm
                 LATDbits   0x000f8c       data     extern E:\3.46\pic18-lt\cxx-framework\src\traditional\proc\p18f46j50.asm
                     LATD   0x000f8c       data     extern E:\3.46\pic18-lt\cxx-framework\src\traditional\proc\p18f46j50.asm
                 LATEbits   0x000f8d       data     extern E:\3.46\pic18-lt\cxx-framework\src\traditional\proc\p18f46j50.asm
                     LATE   0x000f8d       data     extern E:\3.46\pic18-lt\cxx-framework\src\traditional\proc\p18f46j50.asm
                 ALRMVALL   0x000f8e       data     extern E:\3.46\pic18-lt\cxx-framework\src\traditional\proc\p18f46j50.asm
                 ALRMVALH   0x000f8f       data     extern E:\3.46\pic18-lt\cxx-framework\src\traditional\proc\p18f46j50.asm
              ALRMRPTbits   0x000f90       data     extern E:\3.46\pic18-lt\cxx-framework\src\traditional\proc\p18f46j50.asm
                  ALRMRPT   0x000f90       data     extern E:\3.46\pic18-lt\cxx-framework\src\traditional\proc\p18f46j50.asm
              ALRMCFGbits   0x000f91       data     extern E:\3.46\pic18-lt\cxx-framework\src\traditional\proc\p18f46j50.asm
                  ALRMCFG   0x000f91       data     extern E:\3.46\pic18-lt\cxx-framework\src\traditional\proc\p18f46j50.asm
                TRISAbits   0x000f92       data     extern E:\3.46\pic18-lt\cxx-framework\src\traditional\proc\p18f46j50.asm
                    TRISA   0x000f92       data     extern E:\3.46\pic18-lt\cxx-framework\src\traditional\proc\p18f46j50.asm
                TRISBbits   0x000f93       data     extern E:\3.46\pic18-lt\cxx-framework\src\traditional\proc\p18f46j50.asm
                    TRISB   0x000f93       data     extern E:\3.46\pic18-lt\cxx-framework\src\traditional\proc\p18f46j50.asm
                    TRISC   0x000f94       data     extern E:\3.46\pic18-lt\cxx-framework\src\traditional\proc\p18f46j50.asm
                TRISCbits   0x000f94       data     extern E:\3.46\pic18-lt\cxx-framework\src\traditional\proc\p18f46j50.asm
                    TRISD   0x000f95       data     extern E:\3.46\pic18-lt\cxx-framework\src\traditional\proc\p18f46j50.asm
                TRISDbits   0x000f95       data     extern E:\3.46\pic18-lt\cxx-framework\src\traditional\proc\p18f46j50.asm
                    TRISE   0x000f96       data     extern E:\3.46\pic18-lt\cxx-framework\src\traditional\proc\p18f46j50.asm
                TRISEbits   0x000f96       data     extern E:\3.46\pic18-lt\cxx-framework\src\traditional\proc\p18f46j50.asm
               T3GCONbits   0x000f97       data     extern E:\3.46\pic18-lt\cxx-framework\src\traditional\proc\p18f46j50.asm
                   T3GCON   0x000f97       data     extern E:\3.46\pic18-lt\cxx-framework\src\traditional\proc\p18f46j50.asm
                  RTCVALL   0x000f98       data     extern E:\3.46\pic18-lt\cxx-framework\src\traditional\proc\p18f46j50.asm
                  RTCVALH   0x000f99       data     extern E:\3.46\pic18-lt\cxx-framework\src\traditional\proc\p18f46j50.asm
                   T1GCON   0x000f9a       data     extern E:\3.46\pic18-lt\cxx-framework\src\traditional\proc\p18f46j50.asm
               T1GCONbits   0x000f9a       data     extern E:\3.46\pic18-lt\cxx-framework\src\traditional\proc\p18f46j50.asm
              OSCTUNEbits   0x000f9b       data     extern E:\3.46\pic18-lt\cxx-framework\src\traditional\proc\p18f46j50.asm
                  OSCTUNE   0x000f9b       data     extern E:\3.46\pic18-lt\cxx-framework\src\traditional\proc\p18f46j50.asm
               RCSTA2bits   0x000f9c       data     extern E:\3.46\pic18-lt\cxx-framework\src\traditional\proc\p18f46j50.asm
                   RCSTA2   0x000f9c       data     extern E:\3.46\pic18-lt\cxx-framework\src\traditional\proc\p18f46j50.asm
                 PIE1bits   0x000f9d       data     extern E:\3.46\pic18-lt\cxx-framework\src\traditional\proc\p18f46j50.asm
                     PIE1   0x000f9d       data     extern E:\3.46\pic18-lt\cxx-framework\src\traditional\proc\p18f46j50.asm
                 PIR1bits   0x000f9e       data     extern E:\3.46\pic18-lt\cxx-framework\src\traditional\proc\p18f46j50.asm
                     PIR1   0x000f9e       data     extern E:\3.46\pic18-lt\cxx-framework\src\traditional\proc\p18f46j50.asm
                 IPR1bits   0x000f9f       data     extern E:\3.46\pic18-lt\cxx-framework\src\traditional\proc\p18f46j50.asm
                     IPR1   0x000f9f       data     extern E:\3.46\pic18-lt\cxx-framework\src\traditional\proc\p18f46j50.asm
                     PIE2   0x000fa0       data     extern E:\3.46\pic18-lt\cxx-framework\src\traditional\proc\p18f46j50.asm
                 PIE2bits   0x000fa0       data     extern E:\3.46\pic18-lt\cxx-framework\src\traditional\proc\p18f46j50.asm
                     PIR2   0x000fa1       data     extern E:\3.46\pic18-lt\cxx-framework\src\traditional\proc\p18f46j50.asm
                 PIR2bits   0x000fa1       data     extern E:\3.46\pic18-lt\cxx-framework\src\traditional\proc\p18f46j50.asm
                     IPR2   0x000fa2       data     extern E:\3.46\pic18-lt\cxx-framework\src\traditional\proc\p18f46j50.asm
                 IPR2bits   0x000fa2       data     extern E:\3.46\pic18-lt\cxx-framework\src\traditional\proc\p18f46j50.asm
                 PIE3bits   0x000fa3       data     extern E:\3.46\pic18-lt\cxx-framework\src\traditional\proc\p18f46j50.asm
                     PIE3   0x000fa3       data     extern E:\3.46\pic18-lt\cxx-framework\src\traditional\proc\p18f46j50.asm
                     PIR3   0x000fa4       data     extern E:\3.46\pic18-lt\cxx-framework\src\traditional\proc\p18f46j50.asm
                 PIR3bits   0x000fa4       data     extern E:\3.46\pic18-lt\cxx-framework\src\traditional\proc\p18f46j50.asm
                     IPR3   0x000fa5       data     extern E:\3.46\pic18-lt\cxx-framework\src\traditional\proc\p18f46j50.asm
                 IPR3bits   0x000fa5       data     extern E:\3.46\pic18-lt\cxx-framework\src\traditional\proc\p18f46j50.asm
               EECON1bits   0x000fa6       data     extern E:\3.46\pic18-lt\cxx-framework\src\traditional\proc\p18f46j50.asm
                   EECON1   0x000fa6       data     extern E:\3.46\pic18-lt\cxx-framework\src\traditional\proc\p18f46j50.asm
                   EECON2   0x000fa7       data     extern E:\3.46\pic18-lt\cxx-framework\src\traditional\proc\p18f46j50.asm
                   TXSTA2   0x000fa8       data     extern E:\3.46\pic18-lt\cxx-framework\src\traditional\proc\p18f46j50.asm
               TXSTA2bits   0x000fa8       data     extern E:\3.46\pic18-lt\cxx-framework\src\traditional\proc\p18f46j50.asm
                   TXREG2   0x000fa9       data     extern E:\3.46\pic18-lt\cxx-framework\src\traditional\proc\p18f46j50.asm
                   RCREG2   0x000faa       data     extern E:\3.46\pic18-lt\cxx-framework\src\traditional\proc\p18f46j50.asm
                   SPBRG2   0x000fab       data     extern E:\3.46\pic18-lt\cxx-framework\src\traditional\proc\p18f46j50.asm
                    RCSTA   0x000fac       data     extern E:\3.46\pic18-lt\cxx-framework\src\traditional\proc\p18f46j50.asm
                   RCSTA1   0x000fac       data     extern E:\3.46\pic18-lt\cxx-framework\src\traditional\proc\p18f46j50.asm
               RCSTA1bits   0x000fac       data     extern E:\3.46\pic18-lt\cxx-framework\src\traditional\proc\p18f46j50.asm
                RCSTAbits   0x000fac       data     extern E:\3.46\pic18-lt\cxx-framework\src\traditional\proc\p18f46j50.asm
                TXSTAbits   0x000fad       data     extern E:\3.46\pic18-lt\cxx-framework\src\traditional\proc\p18f46j50.asm
               TXSTA1bits   0x000fad       data     extern E:\3.46\pic18-lt\cxx-framework\src\traditional\proc\p18f46j50.asm
                   TXSTA1   0x000fad       data     extern E:\3.46\pic18-lt\cxx-framework\src\traditional\proc\p18f46j50.asm
                    TXSTA   0x000fad       data     extern E:\3.46\pic18-lt\cxx-framework\src\traditional\proc\p18f46j50.asm
                   TXREG1   0x000fae       data     extern E:\3.46\pic18-lt\cxx-framework\src\traditional\proc\p18f46j50.asm
                    TXREG   0x000fae       data     extern E:\3.46\pic18-lt\cxx-framework\src\traditional\proc\p18f46j50.asm
                   RCREG1   0x000faf       data     extern E:\3.46\pic18-lt\cxx-framework\src\traditional\proc\p18f46j50.asm
                    RCREG   0x000faf       data     extern E:\3.46\pic18-lt\cxx-framework\src\traditional\proc\p18f46j50.asm
                   SPBRG1   0x000fb0       data     extern E:\3.46\pic18-lt\cxx-framework\src\traditional\proc\p18f46j50.asm
                    SPBRG   0x000fb0       data     extern E:\3.46\pic18-lt\cxx-framework\src\traditional\proc\p18f46j50.asm
                 CTMUICON   0x000fb1       data     extern E:\3.46\pic18-lt\cxx-framework\src\traditional\proc\p18f46j50.asm
             CTMUICONbits   0x000fb1       data     extern E:\3.46\pic18-lt\cxx-framework\src\traditional\proc\p18f46j50.asm
                 CTMUCONL   0x000fb2       data     extern E:\3.46\pic18-lt\cxx-framework\src\traditional\proc\p18f46j50.asm
             CTMUCONLbits   0x000fb2       data     extern E:\3.46\pic18-lt\cxx-framework\src\traditional\proc\p18f46j50.asm
                 CTMUCONH   0x000fb3       data     extern E:\3.46\pic18-lt\cxx-framework\src\traditional\proc\p18f46j50.asm
             CTMUCONHbits   0x000fb3       data     extern E:\3.46\pic18-lt\cxx-framework\src\traditional\proc\p18f46j50.asm
                 ECCP2CON   0x000fb4       data     extern E:\3.46\pic18-lt\cxx-framework\src\traditional\proc\p18f46j50.asm
             ECCP2CONbits   0x000fb4       data     extern E:\3.46\pic18-lt\cxx-framework\src\traditional\proc\p18f46j50.asm
              CCP2CONbits   0x000fb4       data     extern E:\3.46\pic18-lt\cxx-framework\src\traditional\proc\p18f46j50.asm
                  CCP2CON   0x000fb4       data     extern E:\3.46\pic18-lt\cxx-framework\src\traditional\proc\p18f46j50.asm
                    CCPR2   0x000fb5       data     extern E:\3.46\pic18-lt\cxx-framework\src\traditional\proc\p18f46j50.asm
                   CCPR2L   0x000fb5       data     extern E:\3.46\pic18-lt\cxx-framework\src\traditional\proc\p18f46j50.asm
                   CCPR2H   0x000fb6       data     extern E:\3.46\pic18-lt\cxx-framework\src\traditional\proc\p18f46j50.asm
             ECCP2DELbits   0x000fb7       data     extern E:\3.46\pic18-lt\cxx-framework\src\traditional\proc\p18f46j50.asm
                 ECCP2DEL   0x000fb7       data     extern E:\3.46\pic18-lt\cxx-framework\src\traditional\proc\p18f46j50.asm
              PWM2CONbits   0x000fb7       data     extern E:\3.46\pic18-lt\cxx-framework\src\traditional\proc\p18f46j50.asm
                  PWM2CON   0x000fb7       data     extern E:\3.46\pic18-lt\cxx-framework\src\traditional\proc\p18f46j50.asm
              ECCP2ASbits   0x000fb8       data     extern E:\3.46\pic18-lt\cxx-framework\src\traditional\proc\p18f46j50.asm
                  ECCP2AS   0x000fb8       data     extern E:\3.46\pic18-lt\cxx-framework\src\traditional\proc\p18f46j50.asm
             PSTR2CONbits   0x000fb9       data     extern E:\3.46\pic18-lt\cxx-framework\src\traditional\proc\p18f46j50.asm
                 PSTR2CON   0x000fb9       data     extern E:\3.46\pic18-lt\cxx-framework\src\traditional\proc\p18f46j50.asm
              CCP1CONbits   0x000fba       data     extern E:\3.46\pic18-lt\cxx-framework\src\traditional\proc\p18f46j50.asm
                  CCP1CON   0x000fba       data     extern E:\3.46\pic18-lt\cxx-framework\src\traditional\proc\p18f46j50.asm
                 ECCP1CON   0x000fba       data     extern E:\3.46\pic18-lt\cxx-framework\src\traditional\proc\p18f46j50.asm
             ECCP1CONbits   0x000fba       data     extern E:\3.46\pic18-lt\cxx-framework\src\traditional\proc\p18f46j50.asm
                   CCPR1L   0x000fbb       data     extern E:\3.46\pic18-lt\cxx-framework\src\traditional\proc\p18f46j50.asm
                    CCPR1   0x000fbb       data     extern E:\3.46\pic18-lt\cxx-framework\src\traditional\proc\p18f46j50.asm
                   CCPR1H   0x000fbc       data     extern E:\3.46\pic18-lt\cxx-framework\src\traditional\proc\p18f46j50.asm
             ECCP1DELbits   0x000fbd       data     extern E:\3.46\pic18-lt\cxx-framework\src\traditional\proc\p18f46j50.asm
                 ECCP1DEL   0x000fbd       data     extern E:\3.46\pic18-lt\cxx-framework\src\traditional\proc\p18f46j50.asm
                  PWM1CON   0x000fbd       data     extern E:\3.46\pic18-lt\cxx-framework\src\traditional\proc\p18f46j50.asm
              PWM1CONbits   0x000fbd       data     extern E:\3.46\pic18-lt\cxx-framework\src\traditional\proc\p18f46j50.asm
              ECCP1ASbits   0x000fbe       data     extern E:\3.46\pic18-lt\cxx-framework\src\traditional\proc\p18f46j50.asm
                  ECCP1AS   0x000fbe       data     extern E:\3.46\pic18-lt\cxx-framework\src\traditional\proc\p18f46j50.asm
                 PSTR1CON   0x000fbf       data     extern E:\3.46\pic18-lt\cxx-framework\src\traditional\proc\p18f46j50.asm
             PSTR1CONbits   0x000fbf       data     extern E:\3.46\pic18-lt\cxx-framework\src\traditional\proc\p18f46j50.asm
               WDTCONbits   0x000fc0       data     extern E:\3.46\pic18-lt\cxx-framework\src\traditional\proc\p18f46j50.asm
                   WDTCON   0x000fc0       data     extern E:\3.46\pic18-lt\cxx-framework\src\traditional\proc\p18f46j50.asm
               ADCON1bits   0x000fc1       data     extern E:\3.46\pic18-lt\cxx-framework\src\traditional\proc\p18f46j50.asm
                   ADCON1   0x000fc1       data     extern E:\3.46\pic18-lt\cxx-framework\src\traditional\proc\p18f46j50.asm
                   ADCON0   0x000fc2       data     extern E:\3.46\pic18-lt\cxx-framework\src\traditional\proc\p18f46j50.asm
               ADCON0bits   0x000fc2       data     extern E:\3.46\pic18-lt\cxx-framework\src\traditional\proc\p18f46j50.asm
                    ADRES   0x000fc3       data     extern E:\3.46\pic18-lt\cxx-framework\src\traditional\proc\p18f46j50.asm
                   ADRESL   0x000fc3       data     extern E:\3.46\pic18-lt\cxx-framework\src\traditional\proc\p18f46j50.asm
                   ADRESH   0x000fc4       data     extern E:\3.46\pic18-lt\cxx-framework\src\traditional\proc\p18f46j50.asm
              SSPCON2bits   0x000fc5       data     extern E:\3.46\pic18-lt\cxx-framework\src\traditional\proc\p18f46j50.asm
                  SSPCON2   0x000fc5       data     extern E:\3.46\pic18-lt\cxx-framework\src\traditional\proc\p18f46j50.asm
             SSP1CON2bits   0x000fc5       data     extern E:\3.46\pic18-lt\cxx-framework\src\traditional\proc\p18f46j50.asm
                 SSP1CON2   0x000fc5       data     extern E:\3.46\pic18-lt\cxx-framework\src\traditional\proc\p18f46j50.asm
             SSP1CON1bits   0x000fc6       data     extern E:\3.46\pic18-lt\cxx-framework\src\traditional\proc\p18f46j50.asm
                 SSP1CON1   0x000fc6       data     extern E:\3.46\pic18-lt\cxx-framework\src\traditional\proc\p18f46j50.asm
                  SSPCON1   0x000fc6       data     extern E:\3.46\pic18-lt\cxx-framework\src\traditional\proc\p18f46j50.asm
              SSPCON1bits   0x000fc6       data     extern E:\3.46\pic18-lt\cxx-framework\src\traditional\proc\p18f46j50.asm
                 SSP1STAT   0x000fc7       data     extern E:\3.46\pic18-lt\cxx-framework\src\traditional\proc\p18f46j50.asm
             SSP1STATbits   0x000fc7       data     extern E:\3.46\pic18-lt\cxx-framework\src\traditional\proc\p18f46j50.asm
                  SSPSTAT   0x000fc7       data     extern E:\3.46\pic18-lt\cxx-framework\src\traditional\proc\p18f46j50.asm
              SSPSTATbits   0x000fc7       data     extern E:\3.46\pic18-lt\cxx-framework\src\traditional\proc\p18f46j50.asm
                   SSPADD   0x000fc8       data     extern E:\3.46\pic18-lt\cxx-framework\src\traditional\proc\p18f46j50.asm
               SSPADDbits   0x000fc8       data     extern E:\3.46\pic18-lt\cxx-framework\src\traditional\proc\p18f46j50.asm
              SSP1ADDbits   0x000fc8       data     extern E:\3.46\pic18-lt\cxx-framework\src\traditional\proc\p18f46j50.asm
                  SSP1ADD   0x000fc8       data     extern E:\3.46\pic18-lt\cxx-framework\src\traditional\proc\p18f46j50.asm
                  SSP1BUF   0x000fc9       data     extern E:\3.46\pic18-lt\cxx-framework\src\traditional\proc\p18f46j50.asm
                   SSPBUF   0x000fc9       data     extern E:\3.46\pic18-lt\cxx-framework\src\traditional\proc\p18f46j50.asm
                    T2CON   0x000fca       data     extern E:\3.46\pic18-lt\cxx-framework\src\traditional\proc\p18f46j50.asm
                T2CONbits   0x000fca       data     extern E:\3.46\pic18-lt\cxx-framework\src\traditional\proc\p18f46j50.asm
                      PR2   0x000fcb       data     extern E:\3.46\pic18-lt\cxx-framework\src\traditional\proc\p18f46j50.asm
                     TMR2   0x000fcc       data     extern E:\3.46\pic18-lt\cxx-framework\src\traditional\proc\p18f46j50.asm
                    T1CON   0x000fcd       data     extern E:\3.46\pic18-lt\cxx-framework\src\traditional\proc\p18f46j50.asm
                T1CONbits   0x000fcd       data     extern E:\3.46\pic18-lt\cxx-framework\src\traditional\proc\p18f46j50.asm
                    TMR1L   0x000fce       data     extern E:\3.46\pic18-lt\cxx-framework\src\traditional\proc\p18f46j50.asm
                    TMR1H   0x000fcf       data     extern E:\3.46\pic18-lt\cxx-framework\src\traditional\proc\p18f46j50.asm
                 RCONbits   0x000fd0       data     extern E:\3.46\pic18-lt\cxx-framework\src\traditional\proc\p18f46j50.asm
                     RCON   0x000fd0       data     extern E:\3.46\pic18-lt\cxx-framework\src\traditional\proc\p18f46j50.asm
                  CM2CON1   0x000fd1       data     extern E:\3.46\pic18-lt\cxx-framework\src\traditional\proc\p18f46j50.asm
                   CM2CON   0x000fd1       data     extern E:\3.46\pic18-lt\cxx-framework\src\traditional\proc\p18f46j50.asm
               CM2CONbits   0x000fd1       data     extern E:\3.46\pic18-lt\cxx-framework\src\traditional\proc\p18f46j50.asm
              CM2CON1bits   0x000fd1       data     extern E:\3.46\pic18-lt\cxx-framework\src\traditional\proc\p18f46j50.asm
                   CM1CON   0x000fd2       data     extern E:\3.46\pic18-lt\cxx-framework\src\traditional\proc\p18f46j50.asm
                  CM1CON1   0x000fd2       data     extern E:\3.46\pic18-lt\cxx-framework\src\traditional\proc\p18f46j50.asm
              CM1CON1bits   0x000fd2       data     extern E:\3.46\pic18-lt\cxx-framework\src\traditional\proc\p18f46j50.asm
               CM1CONbits   0x000fd2       data     extern E:\3.46\pic18-lt\cxx-framework\src\traditional\proc\p18f46j50.asm
                   OSCCON   0x000fd3       data     extern E:\3.46\pic18-lt\cxx-framework\src\traditional\proc\p18f46j50.asm
               OSCCONbits   0x000fd3       data     extern E:\3.46\pic18-lt\cxx-framework\src\traditional\proc\p18f46j50.asm
                T0CONbits   0x000fd5       data     extern E:\3.46\pic18-lt\cxx-framework\src\traditional\proc\p18f46j50.asm
                    T0CON   0x000fd5       data     extern E:\3.46\pic18-lt\cxx-framework\src\traditional\proc\p18f46j50.asm
                    TMR0L   0x000fd6       data     extern E:\3.46\pic18-lt\cxx-framework\src\traditional\proc\p18f46j50.asm
                    TMR0H   0x000fd7       data     extern E:\3.46\pic18-lt\cxx-framework\src\traditional\proc\p18f46j50.asm
               STATUSbits   0x000fd8       data     extern E:\3.46\pic18-lt\cxx-framework\src\traditional\proc\p18f46j50.asm
                   STATUS   0x000fd8       data     extern E:\3.46\pic18-lt\cxx-framework\src\traditional\proc\p18f46j50.asm
                     FSR2   0x000fd9       data     extern E:\3.46\pic18-lt\cxx-framework\src\traditional\proc\p18f46j50.asm
                    FSR2L   0x000fd9       data     extern E:\3.46\pic18-lt\cxx-framework\src\traditional\proc\p18f46j50.asm
                    FSR2H   0x000fda       data     extern E:\3.46\pic18-lt\cxx-framework\src\traditional\proc\p18f46j50.asm
                   PLUSW2   0x000fdb       data     extern E:\3.46\pic18-lt\cxx-framework\src\traditional\proc\p18f46j50.asm
                  PREINC2   0x000fdc       data     extern E:\3.46\pic18-lt\cxx-framework\src\traditional\proc\p18f46j50.asm
                 POSTDEC2   0x000fdd       data     extern E:\3.46\pic18-lt\cxx-framework\src\traditional\proc\p18f46j50.asm
                 POSTINC2   0x000fde       data     extern E:\3.46\pic18-lt\cxx-framework\src\traditional\proc\p18f46j50.asm
                    INDF2   0x000fdf       data     extern E:\3.46\pic18-lt\cxx-framework\src\traditional\proc\p18f46j50.asm
                      BSR   0x000fe0       data     extern E:\3.46\pic18-lt\cxx-framework\src\traditional\proc\p18f46j50.asm
                    FSR1L   0x000fe1       data     extern E:\3.46\pic18-lt\cxx-framework\src\traditional\proc\p18f46j50.asm
                     FSR1   0x000fe1       data     extern E:\3.46\pic18-lt\cxx-framework\src\traditional\proc\p18f46j50.asm
                    FSR1H   0x000fe2       data     extern E:\3.46\pic18-lt\cxx-framework\src\traditional\proc\p18f46j50.asm
                   PLUSW1   0x000fe3       data     extern E:\3.46\pic18-lt\cxx-framework\src\traditional\proc\p18f46j50.asm
                  PREINC1   0x000fe4       data     extern E:\3.46\pic18-lt\cxx-framework\src\traditional\proc\p18f46j50.asm
                 POSTDEC1   0x000fe5       data     extern E:\3.46\pic18-lt\cxx-framework\src\traditional\proc\p18f46j50.asm
                 POSTINC1   0x000fe6       data     extern E:\3.46\pic18-lt\cxx-framework\src\traditional\proc\p18f46j50.asm
                    INDF1   0x000fe7       data     extern E:\3.46\pic18-lt\cxx-framework\src\traditional\proc\p18f46j50.asm
                     WREG   0x000fe8       data     extern E:\3.46\pic18-lt\cxx-framework\src\traditional\proc\p18f46j50.asm
                     FSR0   0x000fe9       data     extern E:\3.46\pic18-lt\cxx-framework\src\traditional\proc\p18f46j50.asm
                    FSR0L   0x000fe9       data     extern E:\3.46\pic18-lt\cxx-framework\src\traditional\proc\p18f46j50.asm
                    FSR0H   0x000fea       data     extern E:\3.46\pic18-lt\cxx-framework\src\traditional\proc\p18f46j50.asm
                   PLUSW0   0x000feb       data     extern E:\3.46\pic18-lt\cxx-framework\src\traditional\proc\p18f46j50.asm
                  PREINC0   0x000fec       data     extern E:\3.46\pic18-lt\cxx-framework\src\traditional\proc\p18f46j50.asm
                 POSTDEC0   0x000fed       data     extern E:\3.46\pic18-lt\cxx-framework\src\traditional\proc\p18f46j50.asm
                 POSTINC0   0x000fee       data     extern E:\3.46\pic18-lt\cxx-framework\src\traditional\proc\p18f46j50.asm
                    INDF0   0x000fef       data     extern E:\3.46\pic18-lt\cxx-framework\src\traditional\proc\p18f46j50.asm
              INTCON3bits   0x000ff0       data     extern E:\3.46\pic18-lt\cxx-framework\src\traditional\proc\p18f46j50.asm
                  INTCON3   0x000ff0       data     extern E:\3.46\pic18-lt\cxx-framework\src\traditional\proc\p18f46j50.asm
              INTCON2bits   0x000ff1       data     extern E:\3.46\pic18-lt\cxx-framework\src\traditional\proc\p18f46j50.asm
                  INTCON2   0x000ff1       data     extern E:\3.46\pic18-lt\cxx-framework\src\traditional\proc\p18f46j50.asm
                   INTCON   0x000ff2       data     extern E:\3.46\pic18-lt\cxx-framework\src\traditional\proc\p18f46j50.asm
               INTCONbits   0x000ff2       data     extern E:\3.46\pic18-lt\cxx-framework\src\traditional\proc\p18f46j50.asm
                     PROD   0x000ff3       data     extern E:\3.46\pic18-lt\cxx-framework\src\traditional\proc\p18f46j50.asm
                    PRODL   0x000ff3       data     extern E:\3.46\pic18-lt\cxx-framework\src\traditional\proc\p18f46j50.asm
                    PRODH   0x000ff4       data     extern E:\3.46\pic18-lt\cxx-framework\src\traditional\proc\p18f46j50.asm
                   TABLAT   0x000ff5       data     extern E:\3.46\pic18-lt\cxx-framework\src\traditional\proc\p18f46j50.asm
                  TBLPTRL   0x000ff6       data     extern E:\3.46\pic18-lt\cxx-framework\src\traditional\proc\p18f46j50.asm
                   TBLPTR   0x000ff6       data     extern E:\3.46\pic18-lt\cxx-framework\src\traditional\proc\p18f46j50.asm
                  TBLPTRH   0x000ff7       data     extern E:\3.46\pic18-lt\cxx-framework\src\traditional\proc\p18f46j50.asm
                  TBLPTRU   0x000ff8       data     extern E:\3.46\pic18-lt\cxx-framework\src\traditional\proc\p18f46j50.asm
                      PCL   0x000ff9       data     extern E:\3.46\pic18-lt\cxx-framework\src\traditional\proc\p18f46j50.asm
                       PC   0x000ff9       data     extern E:\3.46\pic18-lt\cxx-framework\src\traditional\proc\p18f46j50.asm
                   PCLATH   0x000ffa       data     extern E:\3.46\pic18-lt\cxx-framework\src\traditional\proc\p18f46j50.asm
                   PCLATU   0x000ffb       data     extern E:\3.46\pic18-lt\cxx-framework\src\traditional\proc\p18f46j50.asm
               STKPTRbits   0x000ffc       data     extern E:\3.46\pic18-lt\cxx-framework\src\traditional\proc\p18f46j50.asm
                   STKPTR   0x000ffc       data     extern E:\3.46\pic18-lt\cxx-framework\src\traditional\proc\p18f46j50.asm
                      TOS   0x000ffd       data     extern E:\3.46\pic18-lt\cxx-framework\src\traditional\proc\p18f46j50.asm
                     TOSL   0x000ffd       data     extern E:\3.46\pic18-lt\cxx-framework\src\traditional\proc\p18f46j50.asm
                     TOSH   0x000ffe       data     extern E:\3.46\pic18-lt\cxx-framework\src\traditional\proc\p18f46j50.asm
                     TOSU   0x000fff       data     extern E:\3.46\pic18-lt\cxx-framework\src\traditional\proc\p18f46j50.asm


